
NUCLEO-L476RG_DFSDM.elf:     file format elf32-littlearm

Sections:
Idx Name          Size      VMA       LMA       File off  Algn
  0 .isr_vector   00000188  08000000  08000000  00010000  2**0
                  CONTENTS, ALLOC, LOAD, READONLY, DATA
  1 .text         00008b90  08000190  08000190  00010190  2**4
                  CONTENTS, ALLOC, LOAD, READONLY, CODE
  2 .rodata       00014008  08008d20  08008d20  00018d20  2**3
                  CONTENTS, ALLOC, LOAD, READONLY, DATA
  3 .ARM.extab    00000000  0801cd28  0801cd28  000301e0  2**0
                  CONTENTS
  4 .ARM          00000008  0801cd28  0801cd28  0002cd28  2**2
                  CONTENTS, ALLOC, LOAD, READONLY, DATA
  5 .preinit_array 00000000  0801cd30  0801cd30  000301e0  2**0
                  CONTENTS, ALLOC, LOAD, DATA
  6 .init_array   00000008  0801cd30  0801cd30  0002cd30  2**2
                  CONTENTS, ALLOC, LOAD, DATA
  7 .fini_array   00000008  0801cd38  0801cd38  0002cd38  2**2
                  CONTENTS, ALLOC, LOAD, DATA
  8 .data         000001e0  20000000  0801cd40  00030000  2**2
                  CONTENTS, ALLOC, LOAD, DATA
  9 .bss          0000f1c4  200001e0  0801cf20  000301e0  2**2
                  ALLOC
 10 ._user_heap_stack 00000604  2000f3a4  0801cf20  0003f3a4  2**0
                  ALLOC
 11 .ARM.attributes 00000030  00000000  00000000  000301e0  2**0
                  CONTENTS, READONLY
 12 .comment      000000ec  00000000  00000000  00030210  2**0
                  CONTENTS, READONLY
 13 .debug_line   00001c64  00000000  00000000  000302fc  2**0
                  CONTENTS, READONLY, DEBUGGING
 14 .debug_info   00002a06  00000000  00000000  00031f60  2**0
                  CONTENTS, READONLY, DEBUGGING
 15 .debug_abbrev 00000946  00000000  00000000  00034966  2**0
                  CONTENTS, READONLY, DEBUGGING
 16 .debug_aranges 000001a0  00000000  00000000  000352b0  2**3
                  CONTENTS, READONLY, DEBUGGING
 17 .debug_ranges 00000190  00000000  00000000  00035450  2**3
                  CONTENTS, READONLY, DEBUGGING
 18 .debug_loc    00003836  00000000  00000000  000355e0  2**0
                  CONTENTS, READONLY, DEBUGGING
 19 .debug_str    00000bbf  00000000  00000000  00038e16  2**0
                  CONTENTS, READONLY, DEBUGGING
 20 .debug_frame  0000140c  00000000  00000000  000399d8  2**2
                  CONTENTS, READONLY, DEBUGGING
 21 .stab         00000084  00000000  00000000  0003ade4  2**2
                  CONTENTS, READONLY, DEBUGGING
 22 .stabstr      00000117  00000000  00000000  0003ae68  2**0
                  CONTENTS, READONLY, DEBUGGING

Disassembly of section .text:

08000190 <__do_global_dtors_aux>:
 8000190:	b510      	push	{r4, lr}
 8000192:	4c05      	ldr	r4, [pc, #20]	; (80001a8 <__do_global_dtors_aux+0x18>)
 8000194:	7823      	ldrb	r3, [r4, #0]
 8000196:	b933      	cbnz	r3, 80001a6 <__do_global_dtors_aux+0x16>
 8000198:	4b04      	ldr	r3, [pc, #16]	; (80001ac <__do_global_dtors_aux+0x1c>)
 800019a:	b113      	cbz	r3, 80001a2 <__do_global_dtors_aux+0x12>
 800019c:	4804      	ldr	r0, [pc, #16]	; (80001b0 <__do_global_dtors_aux+0x20>)
 800019e:	f3af 8000 	nop.w
 80001a2:	2301      	movs	r3, #1
 80001a4:	7023      	strb	r3, [r4, #0]
 80001a6:	bd10      	pop	{r4, pc}
 80001a8:	200001e0 	.word	0x200001e0
 80001ac:	00000000 	.word	0x00000000
 80001b0:	08008d04 	.word	0x08008d04

080001b4 <frame_dummy>:
 80001b4:	b508      	push	{r3, lr}
 80001b6:	4b03      	ldr	r3, [pc, #12]	; (80001c4 <frame_dummy+0x10>)
 80001b8:	b11b      	cbz	r3, 80001c2 <frame_dummy+0xe>
 80001ba:	4903      	ldr	r1, [pc, #12]	; (80001c8 <frame_dummy+0x14>)
 80001bc:	4803      	ldr	r0, [pc, #12]	; (80001cc <frame_dummy+0x18>)
 80001be:	f3af 8000 	nop.w
 80001c2:	bd08      	pop	{r3, pc}
 80001c4:	00000000 	.word	0x00000000
 80001c8:	200001e4 	.word	0x200001e4
 80001cc:	08008d04 	.word	0x08008d04

080001d0 <arm_bitreversal_32>:
 80001d0:	1c4b      	adds	r3, r1, #1
 80001d2:	2b01      	cmp	r3, #1
 80001d4:	bf98      	it	ls
 80001d6:	4770      	bxls	lr
 80001d8:	e92d 03f0 	stmdb	sp!, {r4, r5, r6, r7, r8, r9}
 80001dc:	1c91      	adds	r1, r2, #2
 80001de:	089b      	lsrs	r3, r3, #2

080001e0 <arm_bitreversal_32_0>:
 80001e0:	f8b1 8004 	ldrh.w	r8, [r1, #4]
 80001e4:	f8b1 9002 	ldrh.w	r9, [r1, #2]
 80001e8:	880a      	ldrh	r2, [r1, #0]
 80001ea:	f831 cc02 	ldrh.w	ip, [r1, #-2]
 80001ee:	4480      	add	r8, r0
 80001f0:	4481      	add	r9, r0
 80001f2:	4402      	add	r2, r0
 80001f4:	4484      	add	ip, r0
 80001f6:	f8d9 7000 	ldr.w	r7, [r9]
 80001fa:	f8d8 6000 	ldr.w	r6, [r8]
 80001fe:	6815      	ldr	r5, [r2, #0]
 8000200:	f8dc 4000 	ldr.w	r4, [ip]
 8000204:	f8c9 6000 	str.w	r6, [r9]
 8000208:	f8c8 7000 	str.w	r7, [r8]
 800020c:	f8cc 5000 	str.w	r5, [ip]
 8000210:	6014      	str	r4, [r2, #0]
 8000212:	f8d9 7004 	ldr.w	r7, [r9, #4]
 8000216:	f8d8 6004 	ldr.w	r6, [r8, #4]
 800021a:	6855      	ldr	r5, [r2, #4]
 800021c:	f8dc 4004 	ldr.w	r4, [ip, #4]
 8000220:	f8c9 6004 	str.w	r6, [r9, #4]
 8000224:	f8c8 7004 	str.w	r7, [r8, #4]
 8000228:	f8cc 5004 	str.w	r5, [ip, #4]
 800022c:	6054      	str	r4, [r2, #4]
 800022e:	3108      	adds	r1, #8
 8000230:	3b01      	subs	r3, #1
 8000232:	d1d5      	bne.n	80001e0 <arm_bitreversal_32_0>
 8000234:	e8bd 03f0 	ldmia.w	sp!, {r4, r5, r6, r7, r8, r9}
 8000238:	4770      	bx	lr

0800023a <arm_bitreversal_16>:
 800023a:	1c4b      	adds	r3, r1, #1
 800023c:	2b01      	cmp	r3, #1
 800023e:	bf98      	it	ls
 8000240:	4770      	bxls	lr
 8000242:	e92d 03f0 	stmdb	sp!, {r4, r5, r6, r7, r8, r9}
 8000246:	1c91      	adds	r1, r2, #2
 8000248:	089b      	lsrs	r3, r3, #2

0800024a <arm_bitreversal_16_0>:
 800024a:	f8b1 8004 	ldrh.w	r8, [r1, #4]
 800024e:	f8b1 9002 	ldrh.w	r9, [r1, #2]
 8000252:	880a      	ldrh	r2, [r1, #0]
 8000254:	f831 cc02 	ldrh.w	ip, [r1, #-2]
 8000258:	eb00 0858 	add.w	r8, r0, r8, lsr #1
 800025c:	eb00 0959 	add.w	r9, r0, r9, lsr #1
 8000260:	eb00 0252 	add.w	r2, r0, r2, lsr #1
 8000264:	eb00 0c5c 	add.w	ip, r0, ip, lsr #1
 8000268:	f8d9 7000 	ldr.w	r7, [r9]
 800026c:	f8d8 6000 	ldr.w	r6, [r8]
 8000270:	6815      	ldr	r5, [r2, #0]
 8000272:	f8dc 4000 	ldr.w	r4, [ip]
 8000276:	f8c9 6000 	str.w	r6, [r9]
 800027a:	f8c8 7000 	str.w	r7, [r8]
 800027e:	f8cc 5000 	str.w	r5, [ip]
 8000282:	6014      	str	r4, [r2, #0]
 8000284:	3108      	adds	r1, #8
 8000286:	3b01      	subs	r3, #1
 8000288:	d1df      	bne.n	800024a <arm_bitreversal_16_0>
 800028a:	e8bd 03f0 	ldmia.w	sp!, {r4, r5, r6, r7, r8, r9}
 800028e:	4770      	bx	lr

08000290 <strlen>:
 8000290:	4603      	mov	r3, r0
 8000292:	f813 2b01 	ldrb.w	r2, [r3], #1
 8000296:	2a00      	cmp	r2, #0
 8000298:	d1fb      	bne.n	8000292 <strlen+0x2>
 800029a:	1a18      	subs	r0, r3, r0
 800029c:	3801      	subs	r0, #1
 800029e:	4770      	bx	lr

080002a0 <memchr>:
 80002a0:	f001 01ff 	and.w	r1, r1, #255	; 0xff
 80002a4:	2a10      	cmp	r2, #16
 80002a6:	db2b      	blt.n	8000300 <memchr+0x60>
 80002a8:	f010 0f07 	tst.w	r0, #7
 80002ac:	d008      	beq.n	80002c0 <memchr+0x20>
 80002ae:	f810 3b01 	ldrb.w	r3, [r0], #1
 80002b2:	3a01      	subs	r2, #1
 80002b4:	428b      	cmp	r3, r1
 80002b6:	d02d      	beq.n	8000314 <memchr+0x74>
 80002b8:	f010 0f07 	tst.w	r0, #7
 80002bc:	b342      	cbz	r2, 8000310 <memchr+0x70>
 80002be:	d1f6      	bne.n	80002ae <memchr+0xe>
 80002c0:	b4f0      	push	{r4, r5, r6, r7}
 80002c2:	ea41 2101 	orr.w	r1, r1, r1, lsl #8
 80002c6:	ea41 4101 	orr.w	r1, r1, r1, lsl #16
 80002ca:	f022 0407 	bic.w	r4, r2, #7
 80002ce:	f07f 0700 	mvns.w	r7, #0
 80002d2:	2300      	movs	r3, #0
 80002d4:	e8f0 5602 	ldrd	r5, r6, [r0], #8
 80002d8:	3c08      	subs	r4, #8
 80002da:	ea85 0501 	eor.w	r5, r5, r1
 80002de:	ea86 0601 	eor.w	r6, r6, r1
 80002e2:	fa85 f547 	uadd8	r5, r5, r7
 80002e6:	faa3 f587 	sel	r5, r3, r7
 80002ea:	fa86 f647 	uadd8	r6, r6, r7
 80002ee:	faa5 f687 	sel	r6, r5, r7
 80002f2:	b98e      	cbnz	r6, 8000318 <memchr+0x78>
 80002f4:	d1ee      	bne.n	80002d4 <memchr+0x34>
 80002f6:	bcf0      	pop	{r4, r5, r6, r7}
 80002f8:	f001 01ff 	and.w	r1, r1, #255	; 0xff
 80002fc:	f002 0207 	and.w	r2, r2, #7
 8000300:	b132      	cbz	r2, 8000310 <memchr+0x70>
 8000302:	f810 3b01 	ldrb.w	r3, [r0], #1
 8000306:	3a01      	subs	r2, #1
 8000308:	ea83 0301 	eor.w	r3, r3, r1
 800030c:	b113      	cbz	r3, 8000314 <memchr+0x74>
 800030e:	d1f8      	bne.n	8000302 <memchr+0x62>
 8000310:	2000      	movs	r0, #0
 8000312:	4770      	bx	lr
 8000314:	3801      	subs	r0, #1
 8000316:	4770      	bx	lr
 8000318:	2d00      	cmp	r5, #0
 800031a:	bf06      	itte	eq
 800031c:	4635      	moveq	r5, r6
 800031e:	3803      	subeq	r0, #3
 8000320:	3807      	subne	r0, #7
 8000322:	f015 0f01 	tst.w	r5, #1
 8000326:	d107      	bne.n	8000338 <memchr+0x98>
 8000328:	3001      	adds	r0, #1
 800032a:	f415 7f80 	tst.w	r5, #256	; 0x100
 800032e:	bf02      	ittt	eq
 8000330:	3001      	addeq	r0, #1
 8000332:	f415 3fc0 	tsteq.w	r5, #98304	; 0x18000
 8000336:	3001      	addeq	r0, #1
 8000338:	bcf0      	pop	{r4, r5, r6, r7}
 800033a:	3801      	subs	r0, #1
 800033c:	4770      	bx	lr
 800033e:	bf00      	nop

08000340 <__aeabi_drsub>:
 8000340:	f081 4100 	eor.w	r1, r1, #2147483648	; 0x80000000
 8000344:	e002      	b.n	800034c <__adddf3>
 8000346:	bf00      	nop

08000348 <__aeabi_dsub>:
 8000348:	f083 4300 	eor.w	r3, r3, #2147483648	; 0x80000000

0800034c <__adddf3>:
 800034c:	b530      	push	{r4, r5, lr}
 800034e:	ea4f 0441 	mov.w	r4, r1, lsl #1
 8000352:	ea4f 0543 	mov.w	r5, r3, lsl #1
 8000356:	ea94 0f05 	teq	r4, r5
 800035a:	bf08      	it	eq
 800035c:	ea90 0f02 	teqeq	r0, r2
 8000360:	bf1f      	itttt	ne
 8000362:	ea54 0c00 	orrsne.w	ip, r4, r0
 8000366:	ea55 0c02 	orrsne.w	ip, r5, r2
 800036a:	ea7f 5c64 	mvnsne.w	ip, r4, asr #21
 800036e:	ea7f 5c65 	mvnsne.w	ip, r5, asr #21
 8000372:	f000 80e2 	beq.w	800053a <__adddf3+0x1ee>
 8000376:	ea4f 5454 	mov.w	r4, r4, lsr #21
 800037a:	ebd4 5555 	rsbs	r5, r4, r5, lsr #21
 800037e:	bfb8      	it	lt
 8000380:	426d      	neglt	r5, r5
 8000382:	dd0c      	ble.n	800039e <__adddf3+0x52>
 8000384:	442c      	add	r4, r5
 8000386:	ea80 0202 	eor.w	r2, r0, r2
 800038a:	ea81 0303 	eor.w	r3, r1, r3
 800038e:	ea82 0000 	eor.w	r0, r2, r0
 8000392:	ea83 0101 	eor.w	r1, r3, r1
 8000396:	ea80 0202 	eor.w	r2, r0, r2
 800039a:	ea81 0303 	eor.w	r3, r1, r3
 800039e:	2d36      	cmp	r5, #54	; 0x36
 80003a0:	bf88      	it	hi
 80003a2:	bd30      	pophi	{r4, r5, pc}
 80003a4:	f011 4f00 	tst.w	r1, #2147483648	; 0x80000000
 80003a8:	ea4f 3101 	mov.w	r1, r1, lsl #12
 80003ac:	f44f 1c80 	mov.w	ip, #1048576	; 0x100000
 80003b0:	ea4c 3111 	orr.w	r1, ip, r1, lsr #12
 80003b4:	d002      	beq.n	80003bc <__adddf3+0x70>
 80003b6:	4240      	negs	r0, r0
 80003b8:	eb61 0141 	sbc.w	r1, r1, r1, lsl #1
 80003bc:	f013 4f00 	tst.w	r3, #2147483648	; 0x80000000
 80003c0:	ea4f 3303 	mov.w	r3, r3, lsl #12
 80003c4:	ea4c 3313 	orr.w	r3, ip, r3, lsr #12
 80003c8:	d002      	beq.n	80003d0 <__adddf3+0x84>
 80003ca:	4252      	negs	r2, r2
 80003cc:	eb63 0343 	sbc.w	r3, r3, r3, lsl #1
 80003d0:	ea94 0f05 	teq	r4, r5
 80003d4:	f000 80a7 	beq.w	8000526 <__adddf3+0x1da>
 80003d8:	f1a4 0401 	sub.w	r4, r4, #1
 80003dc:	f1d5 0e20 	rsbs	lr, r5, #32
 80003e0:	db0d      	blt.n	80003fe <__adddf3+0xb2>
 80003e2:	fa02 fc0e 	lsl.w	ip, r2, lr
 80003e6:	fa22 f205 	lsr.w	r2, r2, r5
 80003ea:	1880      	adds	r0, r0, r2
 80003ec:	f141 0100 	adc.w	r1, r1, #0
 80003f0:	fa03 f20e 	lsl.w	r2, r3, lr
 80003f4:	1880      	adds	r0, r0, r2
 80003f6:	fa43 f305 	asr.w	r3, r3, r5
 80003fa:	4159      	adcs	r1, r3
 80003fc:	e00e      	b.n	800041c <__adddf3+0xd0>
 80003fe:	f1a5 0520 	sub.w	r5, r5, #32
 8000402:	f10e 0e20 	add.w	lr, lr, #32
 8000406:	2a01      	cmp	r2, #1
 8000408:	fa03 fc0e 	lsl.w	ip, r3, lr
 800040c:	bf28      	it	cs
 800040e:	f04c 0c02 	orrcs.w	ip, ip, #2
 8000412:	fa43 f305 	asr.w	r3, r3, r5
 8000416:	18c0      	adds	r0, r0, r3
 8000418:	eb51 71e3 	adcs.w	r1, r1, r3, asr #31
 800041c:	f001 4500 	and.w	r5, r1, #2147483648	; 0x80000000
 8000420:	d507      	bpl.n	8000432 <__adddf3+0xe6>
 8000422:	f04f 0e00 	mov.w	lr, #0
 8000426:	f1dc 0c00 	rsbs	ip, ip, #0
 800042a:	eb7e 0000 	sbcs.w	r0, lr, r0
 800042e:	eb6e 0101 	sbc.w	r1, lr, r1
 8000432:	f5b1 1f80 	cmp.w	r1, #1048576	; 0x100000
 8000436:	d31b      	bcc.n	8000470 <__adddf3+0x124>
 8000438:	f5b1 1f00 	cmp.w	r1, #2097152	; 0x200000
 800043c:	d30c      	bcc.n	8000458 <__adddf3+0x10c>
 800043e:	0849      	lsrs	r1, r1, #1
 8000440:	ea5f 0030 	movs.w	r0, r0, rrx
 8000444:	ea4f 0c3c 	mov.w	ip, ip, rrx
 8000448:	f104 0401 	add.w	r4, r4, #1
 800044c:	ea4f 5244 	mov.w	r2, r4, lsl #21
 8000450:	f512 0f80 	cmn.w	r2, #4194304	; 0x400000
 8000454:	f080 809a 	bcs.w	800058c <__adddf3+0x240>
 8000458:	f1bc 4f00 	cmp.w	ip, #2147483648	; 0x80000000
 800045c:	bf08      	it	eq
 800045e:	ea5f 0c50 	movseq.w	ip, r0, lsr #1
 8000462:	f150 0000 	adcs.w	r0, r0, #0
 8000466:	eb41 5104 	adc.w	r1, r1, r4, lsl #20
 800046a:	ea41 0105 	orr.w	r1, r1, r5
 800046e:	bd30      	pop	{r4, r5, pc}
 8000470:	ea5f 0c4c 	movs.w	ip, ip, lsl #1
 8000474:	4140      	adcs	r0, r0
 8000476:	eb41 0101 	adc.w	r1, r1, r1
 800047a:	f411 1f80 	tst.w	r1, #1048576	; 0x100000
 800047e:	f1a4 0401 	sub.w	r4, r4, #1
 8000482:	d1e9      	bne.n	8000458 <__adddf3+0x10c>
 8000484:	f091 0f00 	teq	r1, #0
 8000488:	bf04      	itt	eq
 800048a:	4601      	moveq	r1, r0
 800048c:	2000      	moveq	r0, #0
 800048e:	fab1 f381 	clz	r3, r1
 8000492:	bf08      	it	eq
 8000494:	3320      	addeq	r3, #32
 8000496:	f1a3 030b 	sub.w	r3, r3, #11
 800049a:	f1b3 0220 	subs.w	r2, r3, #32
 800049e:	da0c      	bge.n	80004ba <__adddf3+0x16e>
 80004a0:	320c      	adds	r2, #12
 80004a2:	dd08      	ble.n	80004b6 <__adddf3+0x16a>
 80004a4:	f102 0c14 	add.w	ip, r2, #20
 80004a8:	f1c2 020c 	rsb	r2, r2, #12
 80004ac:	fa01 f00c 	lsl.w	r0, r1, ip
 80004b0:	fa21 f102 	lsr.w	r1, r1, r2
 80004b4:	e00c      	b.n	80004d0 <__adddf3+0x184>
 80004b6:	f102 0214 	add.w	r2, r2, #20
 80004ba:	bfd8      	it	le
 80004bc:	f1c2 0c20 	rsble	ip, r2, #32
 80004c0:	fa01 f102 	lsl.w	r1, r1, r2
 80004c4:	fa20 fc0c 	lsr.w	ip, r0, ip
 80004c8:	bfdc      	itt	le
 80004ca:	ea41 010c 	orrle.w	r1, r1, ip
 80004ce:	4090      	lslle	r0, r2
 80004d0:	1ae4      	subs	r4, r4, r3
 80004d2:	bfa2      	ittt	ge
 80004d4:	eb01 5104 	addge.w	r1, r1, r4, lsl #20
 80004d8:	4329      	orrge	r1, r5
 80004da:	bd30      	popge	{r4, r5, pc}
 80004dc:	ea6f 0404 	mvn.w	r4, r4
 80004e0:	3c1f      	subs	r4, #31
 80004e2:	da1c      	bge.n	800051e <__adddf3+0x1d2>
 80004e4:	340c      	adds	r4, #12
 80004e6:	dc0e      	bgt.n	8000506 <__adddf3+0x1ba>
 80004e8:	f104 0414 	add.w	r4, r4, #20
 80004ec:	f1c4 0220 	rsb	r2, r4, #32
 80004f0:	fa20 f004 	lsr.w	r0, r0, r4
 80004f4:	fa01 f302 	lsl.w	r3, r1, r2
 80004f8:	ea40 0003 	orr.w	r0, r0, r3
 80004fc:	fa21 f304 	lsr.w	r3, r1, r4
 8000500:	ea45 0103 	orr.w	r1, r5, r3
 8000504:	bd30      	pop	{r4, r5, pc}
 8000506:	f1c4 040c 	rsb	r4, r4, #12
 800050a:	f1c4 0220 	rsb	r2, r4, #32
 800050e:	fa20 f002 	lsr.w	r0, r0, r2
 8000512:	fa01 f304 	lsl.w	r3, r1, r4
 8000516:	ea40 0003 	orr.w	r0, r0, r3
 800051a:	4629      	mov	r1, r5
 800051c:	bd30      	pop	{r4, r5, pc}
 800051e:	fa21 f004 	lsr.w	r0, r1, r4
 8000522:	4629      	mov	r1, r5
 8000524:	bd30      	pop	{r4, r5, pc}
 8000526:	f094 0f00 	teq	r4, #0
 800052a:	f483 1380 	eor.w	r3, r3, #1048576	; 0x100000
 800052e:	bf06      	itte	eq
 8000530:	f481 1180 	eoreq.w	r1, r1, #1048576	; 0x100000
 8000534:	3401      	addeq	r4, #1
 8000536:	3d01      	subne	r5, #1
 8000538:	e74e      	b.n	80003d8 <__adddf3+0x8c>
 800053a:	ea7f 5c64 	mvns.w	ip, r4, asr #21
 800053e:	bf18      	it	ne
 8000540:	ea7f 5c65 	mvnsne.w	ip, r5, asr #21
 8000544:	d029      	beq.n	800059a <__adddf3+0x24e>
 8000546:	ea94 0f05 	teq	r4, r5
 800054a:	bf08      	it	eq
 800054c:	ea90 0f02 	teqeq	r0, r2
 8000550:	d005      	beq.n	800055e <__adddf3+0x212>
 8000552:	ea54 0c00 	orrs.w	ip, r4, r0
 8000556:	bf04      	itt	eq
 8000558:	4619      	moveq	r1, r3
 800055a:	4610      	moveq	r0, r2
 800055c:	bd30      	pop	{r4, r5, pc}
 800055e:	ea91 0f03 	teq	r1, r3
 8000562:	bf1e      	ittt	ne
 8000564:	2100      	movne	r1, #0
 8000566:	2000      	movne	r0, #0
 8000568:	bd30      	popne	{r4, r5, pc}
 800056a:	ea5f 5c54 	movs.w	ip, r4, lsr #21
 800056e:	d105      	bne.n	800057c <__adddf3+0x230>
 8000570:	0040      	lsls	r0, r0, #1
 8000572:	4149      	adcs	r1, r1
 8000574:	bf28      	it	cs
 8000576:	f041 4100 	orrcs.w	r1, r1, #2147483648	; 0x80000000
 800057a:	bd30      	pop	{r4, r5, pc}
 800057c:	f514 0480 	adds.w	r4, r4, #4194304	; 0x400000
 8000580:	bf3c      	itt	cc
 8000582:	f501 1180 	addcc.w	r1, r1, #1048576	; 0x100000
 8000586:	bd30      	popcc	{r4, r5, pc}
 8000588:	f001 4500 	and.w	r5, r1, #2147483648	; 0x80000000
 800058c:	f045 41fe 	orr.w	r1, r5, #2130706432	; 0x7f000000
 8000590:	f441 0170 	orr.w	r1, r1, #15728640	; 0xf00000
 8000594:	f04f 0000 	mov.w	r0, #0
 8000598:	bd30      	pop	{r4, r5, pc}
 800059a:	ea7f 5c64 	mvns.w	ip, r4, asr #21
 800059e:	bf1a      	itte	ne
 80005a0:	4619      	movne	r1, r3
 80005a2:	4610      	movne	r0, r2
 80005a4:	ea7f 5c65 	mvnseq.w	ip, r5, asr #21
 80005a8:	bf1c      	itt	ne
 80005aa:	460b      	movne	r3, r1
 80005ac:	4602      	movne	r2, r0
 80005ae:	ea50 3401 	orrs.w	r4, r0, r1, lsl #12
 80005b2:	bf06      	itte	eq
 80005b4:	ea52 3503 	orrseq.w	r5, r2, r3, lsl #12
 80005b8:	ea91 0f03 	teqeq	r1, r3
 80005bc:	f441 2100 	orrne.w	r1, r1, #524288	; 0x80000
 80005c0:	bd30      	pop	{r4, r5, pc}
 80005c2:	bf00      	nop

080005c4 <__aeabi_ui2d>:
 80005c4:	f090 0f00 	teq	r0, #0
 80005c8:	bf04      	itt	eq
 80005ca:	2100      	moveq	r1, #0
 80005cc:	4770      	bxeq	lr
 80005ce:	b530      	push	{r4, r5, lr}
 80005d0:	f44f 6480 	mov.w	r4, #1024	; 0x400
 80005d4:	f104 0432 	add.w	r4, r4, #50	; 0x32
 80005d8:	f04f 0500 	mov.w	r5, #0
 80005dc:	f04f 0100 	mov.w	r1, #0
 80005e0:	e750      	b.n	8000484 <__adddf3+0x138>
 80005e2:	bf00      	nop

080005e4 <__aeabi_i2d>:
 80005e4:	f090 0f00 	teq	r0, #0
 80005e8:	bf04      	itt	eq
 80005ea:	2100      	moveq	r1, #0
 80005ec:	4770      	bxeq	lr
 80005ee:	b530      	push	{r4, r5, lr}
 80005f0:	f44f 6480 	mov.w	r4, #1024	; 0x400
 80005f4:	f104 0432 	add.w	r4, r4, #50	; 0x32
 80005f8:	f010 4500 	ands.w	r5, r0, #2147483648	; 0x80000000
 80005fc:	bf48      	it	mi
 80005fe:	4240      	negmi	r0, r0
 8000600:	f04f 0100 	mov.w	r1, #0
 8000604:	e73e      	b.n	8000484 <__adddf3+0x138>
 8000606:	bf00      	nop

08000608 <__aeabi_f2d>:
 8000608:	0042      	lsls	r2, r0, #1
 800060a:	ea4f 01e2 	mov.w	r1, r2, asr #3
 800060e:	ea4f 0131 	mov.w	r1, r1, rrx
 8000612:	ea4f 7002 	mov.w	r0, r2, lsl #28
 8000616:	bf1f      	itttt	ne
 8000618:	f012 437f 	andsne.w	r3, r2, #4278190080	; 0xff000000
 800061c:	f093 4f7f 	teqne	r3, #4278190080	; 0xff000000
 8000620:	f081 5160 	eorne.w	r1, r1, #939524096	; 0x38000000
 8000624:	4770      	bxne	lr
 8000626:	f092 0f00 	teq	r2, #0
 800062a:	bf14      	ite	ne
 800062c:	f093 4f7f 	teqne	r3, #4278190080	; 0xff000000
 8000630:	4770      	bxeq	lr
 8000632:	b530      	push	{r4, r5, lr}
 8000634:	f44f 7460 	mov.w	r4, #896	; 0x380
 8000638:	f001 4500 	and.w	r5, r1, #2147483648	; 0x80000000
 800063c:	f021 4100 	bic.w	r1, r1, #2147483648	; 0x80000000
 8000640:	e720      	b.n	8000484 <__adddf3+0x138>
 8000642:	bf00      	nop

08000644 <__aeabi_ul2d>:
 8000644:	ea50 0201 	orrs.w	r2, r0, r1
 8000648:	bf08      	it	eq
 800064a:	4770      	bxeq	lr
 800064c:	b530      	push	{r4, r5, lr}
 800064e:	f04f 0500 	mov.w	r5, #0
 8000652:	e00a      	b.n	800066a <__aeabi_l2d+0x16>

08000654 <__aeabi_l2d>:
 8000654:	ea50 0201 	orrs.w	r2, r0, r1
 8000658:	bf08      	it	eq
 800065a:	4770      	bxeq	lr
 800065c:	b530      	push	{r4, r5, lr}
 800065e:	f011 4500 	ands.w	r5, r1, #2147483648	; 0x80000000
 8000662:	d502      	bpl.n	800066a <__aeabi_l2d+0x16>
 8000664:	4240      	negs	r0, r0
 8000666:	eb61 0141 	sbc.w	r1, r1, r1, lsl #1
 800066a:	f44f 6480 	mov.w	r4, #1024	; 0x400
 800066e:	f104 0432 	add.w	r4, r4, #50	; 0x32
 8000672:	ea5f 5c91 	movs.w	ip, r1, lsr #22
 8000676:	f43f aedc 	beq.w	8000432 <__adddf3+0xe6>
 800067a:	f04f 0203 	mov.w	r2, #3
 800067e:	ea5f 0cdc 	movs.w	ip, ip, lsr #3
 8000682:	bf18      	it	ne
 8000684:	3203      	addne	r2, #3
 8000686:	ea5f 0cdc 	movs.w	ip, ip, lsr #3
 800068a:	bf18      	it	ne
 800068c:	3203      	addne	r2, #3
 800068e:	eb02 02dc 	add.w	r2, r2, ip, lsr #3
 8000692:	f1c2 0320 	rsb	r3, r2, #32
 8000696:	fa00 fc03 	lsl.w	ip, r0, r3
 800069a:	fa20 f002 	lsr.w	r0, r0, r2
 800069e:	fa01 fe03 	lsl.w	lr, r1, r3
 80006a2:	ea40 000e 	orr.w	r0, r0, lr
 80006a6:	fa21 f102 	lsr.w	r1, r1, r2
 80006aa:	4414      	add	r4, r2
 80006ac:	e6c1      	b.n	8000432 <__adddf3+0xe6>
 80006ae:	bf00      	nop

080006b0 <__aeabi_dmul>:
 80006b0:	b570      	push	{r4, r5, r6, lr}
 80006b2:	f04f 0cff 	mov.w	ip, #255	; 0xff
 80006b6:	f44c 6ce0 	orr.w	ip, ip, #1792	; 0x700
 80006ba:	ea1c 5411 	ands.w	r4, ip, r1, lsr #20
 80006be:	bf1d      	ittte	ne
 80006c0:	ea1c 5513 	andsne.w	r5, ip, r3, lsr #20
 80006c4:	ea94 0f0c 	teqne	r4, ip
 80006c8:	ea95 0f0c 	teqne	r5, ip
 80006cc:	f000 f8de 	bleq	800088c <__aeabi_dmul+0x1dc>
 80006d0:	442c      	add	r4, r5
 80006d2:	ea81 0603 	eor.w	r6, r1, r3
 80006d6:	ea21 514c 	bic.w	r1, r1, ip, lsl #21
 80006da:	ea23 534c 	bic.w	r3, r3, ip, lsl #21
 80006de:	ea50 3501 	orrs.w	r5, r0, r1, lsl #12
 80006e2:	bf18      	it	ne
 80006e4:	ea52 3503 	orrsne.w	r5, r2, r3, lsl #12
 80006e8:	f441 1180 	orr.w	r1, r1, #1048576	; 0x100000
 80006ec:	f443 1380 	orr.w	r3, r3, #1048576	; 0x100000
 80006f0:	d038      	beq.n	8000764 <__aeabi_dmul+0xb4>
 80006f2:	fba0 ce02 	umull	ip, lr, r0, r2
 80006f6:	f04f 0500 	mov.w	r5, #0
 80006fa:	fbe1 e502 	umlal	lr, r5, r1, r2
 80006fe:	f006 4200 	and.w	r2, r6, #2147483648	; 0x80000000
 8000702:	fbe0 e503 	umlal	lr, r5, r0, r3
 8000706:	f04f 0600 	mov.w	r6, #0
 800070a:	fbe1 5603 	umlal	r5, r6, r1, r3
 800070e:	f09c 0f00 	teq	ip, #0
 8000712:	bf18      	it	ne
 8000714:	f04e 0e01 	orrne.w	lr, lr, #1
 8000718:	f1a4 04ff 	sub.w	r4, r4, #255	; 0xff
 800071c:	f5b6 7f00 	cmp.w	r6, #512	; 0x200
 8000720:	f564 7440 	sbc.w	r4, r4, #768	; 0x300
 8000724:	d204      	bcs.n	8000730 <__aeabi_dmul+0x80>
 8000726:	ea5f 0e4e 	movs.w	lr, lr, lsl #1
 800072a:	416d      	adcs	r5, r5
 800072c:	eb46 0606 	adc.w	r6, r6, r6
 8000730:	ea42 21c6 	orr.w	r1, r2, r6, lsl #11
 8000734:	ea41 5155 	orr.w	r1, r1, r5, lsr #21
 8000738:	ea4f 20c5 	mov.w	r0, r5, lsl #11
 800073c:	ea40 505e 	orr.w	r0, r0, lr, lsr #21
 8000740:	ea4f 2ece 	mov.w	lr, lr, lsl #11
 8000744:	f1b4 0cfd 	subs.w	ip, r4, #253	; 0xfd
 8000748:	bf88      	it	hi
 800074a:	f5bc 6fe0 	cmphi.w	ip, #1792	; 0x700
 800074e:	d81e      	bhi.n	800078e <__aeabi_dmul+0xde>
 8000750:	f1be 4f00 	cmp.w	lr, #2147483648	; 0x80000000
 8000754:	bf08      	it	eq
 8000756:	ea5f 0e50 	movseq.w	lr, r0, lsr #1
 800075a:	f150 0000 	adcs.w	r0, r0, #0
 800075e:	eb41 5104 	adc.w	r1, r1, r4, lsl #20
 8000762:	bd70      	pop	{r4, r5, r6, pc}
 8000764:	f006 4600 	and.w	r6, r6, #2147483648	; 0x80000000
 8000768:	ea46 0101 	orr.w	r1, r6, r1
 800076c:	ea40 0002 	orr.w	r0, r0, r2
 8000770:	ea81 0103 	eor.w	r1, r1, r3
 8000774:	ebb4 045c 	subs.w	r4, r4, ip, lsr #1
 8000778:	bfc2      	ittt	gt
 800077a:	ebd4 050c 	rsbsgt	r5, r4, ip
 800077e:	ea41 5104 	orrgt.w	r1, r1, r4, lsl #20
 8000782:	bd70      	popgt	{r4, r5, r6, pc}
 8000784:	f441 1180 	orr.w	r1, r1, #1048576	; 0x100000
 8000788:	f04f 0e00 	mov.w	lr, #0
 800078c:	3c01      	subs	r4, #1
 800078e:	f300 80ab 	bgt.w	80008e8 <__aeabi_dmul+0x238>
 8000792:	f114 0f36 	cmn.w	r4, #54	; 0x36
 8000796:	bfde      	ittt	le
 8000798:	2000      	movle	r0, #0
 800079a:	f001 4100 	andle.w	r1, r1, #2147483648	; 0x80000000
 800079e:	bd70      	pople	{r4, r5, r6, pc}
 80007a0:	f1c4 0400 	rsb	r4, r4, #0
 80007a4:	3c20      	subs	r4, #32
 80007a6:	da35      	bge.n	8000814 <__aeabi_dmul+0x164>
 80007a8:	340c      	adds	r4, #12
 80007aa:	dc1b      	bgt.n	80007e4 <__aeabi_dmul+0x134>
 80007ac:	f104 0414 	add.w	r4, r4, #20
 80007b0:	f1c4 0520 	rsb	r5, r4, #32
 80007b4:	fa00 f305 	lsl.w	r3, r0, r5
 80007b8:	fa20 f004 	lsr.w	r0, r0, r4
 80007bc:	fa01 f205 	lsl.w	r2, r1, r5
 80007c0:	ea40 0002 	orr.w	r0, r0, r2
 80007c4:	f001 4200 	and.w	r2, r1, #2147483648	; 0x80000000
 80007c8:	f021 4100 	bic.w	r1, r1, #2147483648	; 0x80000000
 80007cc:	eb10 70d3 	adds.w	r0, r0, r3, lsr #31
 80007d0:	fa21 f604 	lsr.w	r6, r1, r4
 80007d4:	eb42 0106 	adc.w	r1, r2, r6
 80007d8:	ea5e 0e43 	orrs.w	lr, lr, r3, lsl #1
 80007dc:	bf08      	it	eq
 80007de:	ea20 70d3 	biceq.w	r0, r0, r3, lsr #31
 80007e2:	bd70      	pop	{r4, r5, r6, pc}
 80007e4:	f1c4 040c 	rsb	r4, r4, #12
 80007e8:	f1c4 0520 	rsb	r5, r4, #32
 80007ec:	fa00 f304 	lsl.w	r3, r0, r4
 80007f0:	fa20 f005 	lsr.w	r0, r0, r5
 80007f4:	fa01 f204 	lsl.w	r2, r1, r4
 80007f8:	ea40 0002 	orr.w	r0, r0, r2
 80007fc:	f001 4100 	and.w	r1, r1, #2147483648	; 0x80000000
 8000800:	eb10 70d3 	adds.w	r0, r0, r3, lsr #31
 8000804:	f141 0100 	adc.w	r1, r1, #0
 8000808:	ea5e 0e43 	orrs.w	lr, lr, r3, lsl #1
 800080c:	bf08      	it	eq
 800080e:	ea20 70d3 	biceq.w	r0, r0, r3, lsr #31
 8000812:	bd70      	pop	{r4, r5, r6, pc}
 8000814:	f1c4 0520 	rsb	r5, r4, #32
 8000818:	fa00 f205 	lsl.w	r2, r0, r5
 800081c:	ea4e 0e02 	orr.w	lr, lr, r2
 8000820:	fa20 f304 	lsr.w	r3, r0, r4
 8000824:	fa01 f205 	lsl.w	r2, r1, r5
 8000828:	ea43 0302 	orr.w	r3, r3, r2
 800082c:	fa21 f004 	lsr.w	r0, r1, r4
 8000830:	f001 4100 	and.w	r1, r1, #2147483648	; 0x80000000
 8000834:	fa21 f204 	lsr.w	r2, r1, r4
 8000838:	ea20 0002 	bic.w	r0, r0, r2
 800083c:	eb00 70d3 	add.w	r0, r0, r3, lsr #31
 8000840:	ea5e 0e43 	orrs.w	lr, lr, r3, lsl #1
 8000844:	bf08      	it	eq
 8000846:	ea20 70d3 	biceq.w	r0, r0, r3, lsr #31
 800084a:	bd70      	pop	{r4, r5, r6, pc}
 800084c:	f094 0f00 	teq	r4, #0
 8000850:	d10f      	bne.n	8000872 <__aeabi_dmul+0x1c2>
 8000852:	f001 4600 	and.w	r6, r1, #2147483648	; 0x80000000
 8000856:	0040      	lsls	r0, r0, #1
 8000858:	eb41 0101 	adc.w	r1, r1, r1
 800085c:	f411 1f80 	tst.w	r1, #1048576	; 0x100000
 8000860:	bf08      	it	eq
 8000862:	3c01      	subeq	r4, #1
 8000864:	d0f7      	beq.n	8000856 <__aeabi_dmul+0x1a6>
 8000866:	ea41 0106 	orr.w	r1, r1, r6
 800086a:	f095 0f00 	teq	r5, #0
 800086e:	bf18      	it	ne
 8000870:	4770      	bxne	lr
 8000872:	f003 4600 	and.w	r6, r3, #2147483648	; 0x80000000
 8000876:	0052      	lsls	r2, r2, #1
 8000878:	eb43 0303 	adc.w	r3, r3, r3
 800087c:	f413 1f80 	tst.w	r3, #1048576	; 0x100000
 8000880:	bf08      	it	eq
 8000882:	3d01      	subeq	r5, #1
 8000884:	d0f7      	beq.n	8000876 <__aeabi_dmul+0x1c6>
 8000886:	ea43 0306 	orr.w	r3, r3, r6
 800088a:	4770      	bx	lr
 800088c:	ea94 0f0c 	teq	r4, ip
 8000890:	ea0c 5513 	and.w	r5, ip, r3, lsr #20
 8000894:	bf18      	it	ne
 8000896:	ea95 0f0c 	teqne	r5, ip
 800089a:	d00c      	beq.n	80008b6 <__aeabi_dmul+0x206>
 800089c:	ea50 0641 	orrs.w	r6, r0, r1, lsl #1
 80008a0:	bf18      	it	ne
 80008a2:	ea52 0643 	orrsne.w	r6, r2, r3, lsl #1
 80008a6:	d1d1      	bne.n	800084c <__aeabi_dmul+0x19c>
 80008a8:	ea81 0103 	eor.w	r1, r1, r3
 80008ac:	f001 4100 	and.w	r1, r1, #2147483648	; 0x80000000
 80008b0:	f04f 0000 	mov.w	r0, #0
 80008b4:	bd70      	pop	{r4, r5, r6, pc}
 80008b6:	ea50 0641 	orrs.w	r6, r0, r1, lsl #1
 80008ba:	bf06      	itte	eq
 80008bc:	4610      	moveq	r0, r2
 80008be:	4619      	moveq	r1, r3
 80008c0:	ea52 0643 	orrsne.w	r6, r2, r3, lsl #1
 80008c4:	d019      	beq.n	80008fa <__aeabi_dmul+0x24a>
 80008c6:	ea94 0f0c 	teq	r4, ip
 80008ca:	d102      	bne.n	80008d2 <__aeabi_dmul+0x222>
 80008cc:	ea50 3601 	orrs.w	r6, r0, r1, lsl #12
 80008d0:	d113      	bne.n	80008fa <__aeabi_dmul+0x24a>
 80008d2:	ea95 0f0c 	teq	r5, ip
 80008d6:	d105      	bne.n	80008e4 <__aeabi_dmul+0x234>
 80008d8:	ea52 3603 	orrs.w	r6, r2, r3, lsl #12
 80008dc:	bf1c      	itt	ne
 80008de:	4610      	movne	r0, r2
 80008e0:	4619      	movne	r1, r3
 80008e2:	d10a      	bne.n	80008fa <__aeabi_dmul+0x24a>
 80008e4:	ea81 0103 	eor.w	r1, r1, r3
 80008e8:	f001 4100 	and.w	r1, r1, #2147483648	; 0x80000000
 80008ec:	f041 41fe 	orr.w	r1, r1, #2130706432	; 0x7f000000
 80008f0:	f441 0170 	orr.w	r1, r1, #15728640	; 0xf00000
 80008f4:	f04f 0000 	mov.w	r0, #0
 80008f8:	bd70      	pop	{r4, r5, r6, pc}
 80008fa:	f041 41fe 	orr.w	r1, r1, #2130706432	; 0x7f000000
 80008fe:	f441 0178 	orr.w	r1, r1, #16252928	; 0xf80000
 8000902:	bd70      	pop	{r4, r5, r6, pc}

08000904 <__aeabi_ddiv>:
 8000904:	b570      	push	{r4, r5, r6, lr}
 8000906:	f04f 0cff 	mov.w	ip, #255	; 0xff
 800090a:	f44c 6ce0 	orr.w	ip, ip, #1792	; 0x700
 800090e:	ea1c 5411 	ands.w	r4, ip, r1, lsr #20
 8000912:	bf1d      	ittte	ne
 8000914:	ea1c 5513 	andsne.w	r5, ip, r3, lsr #20
 8000918:	ea94 0f0c 	teqne	r4, ip
 800091c:	ea95 0f0c 	teqne	r5, ip
 8000920:	f000 f8a7 	bleq	8000a72 <__aeabi_ddiv+0x16e>
 8000924:	eba4 0405 	sub.w	r4, r4, r5
 8000928:	ea81 0e03 	eor.w	lr, r1, r3
 800092c:	ea52 3503 	orrs.w	r5, r2, r3, lsl #12
 8000930:	ea4f 3101 	mov.w	r1, r1, lsl #12
 8000934:	f000 8088 	beq.w	8000a48 <__aeabi_ddiv+0x144>
 8000938:	ea4f 3303 	mov.w	r3, r3, lsl #12
 800093c:	f04f 5580 	mov.w	r5, #268435456	; 0x10000000
 8000940:	ea45 1313 	orr.w	r3, r5, r3, lsr #4
 8000944:	ea43 6312 	orr.w	r3, r3, r2, lsr #24
 8000948:	ea4f 2202 	mov.w	r2, r2, lsl #8
 800094c:	ea45 1511 	orr.w	r5, r5, r1, lsr #4
 8000950:	ea45 6510 	orr.w	r5, r5, r0, lsr #24
 8000954:	ea4f 2600 	mov.w	r6, r0, lsl #8
 8000958:	f00e 4100 	and.w	r1, lr, #2147483648	; 0x80000000
 800095c:	429d      	cmp	r5, r3
 800095e:	bf08      	it	eq
 8000960:	4296      	cmpeq	r6, r2
 8000962:	f144 04fd 	adc.w	r4, r4, #253	; 0xfd
 8000966:	f504 7440 	add.w	r4, r4, #768	; 0x300
 800096a:	d202      	bcs.n	8000972 <__aeabi_ddiv+0x6e>
 800096c:	085b      	lsrs	r3, r3, #1
 800096e:	ea4f 0232 	mov.w	r2, r2, rrx
 8000972:	1ab6      	subs	r6, r6, r2
 8000974:	eb65 0503 	sbc.w	r5, r5, r3
 8000978:	085b      	lsrs	r3, r3, #1
 800097a:	ea4f 0232 	mov.w	r2, r2, rrx
 800097e:	f44f 1080 	mov.w	r0, #1048576	; 0x100000
 8000982:	f44f 2c00 	mov.w	ip, #524288	; 0x80000
 8000986:	ebb6 0e02 	subs.w	lr, r6, r2
 800098a:	eb75 0e03 	sbcs.w	lr, r5, r3
 800098e:	bf22      	ittt	cs
 8000990:	1ab6      	subcs	r6, r6, r2
 8000992:	4675      	movcs	r5, lr
 8000994:	ea40 000c 	orrcs.w	r0, r0, ip
 8000998:	085b      	lsrs	r3, r3, #1
 800099a:	ea4f 0232 	mov.w	r2, r2, rrx
 800099e:	ebb6 0e02 	subs.w	lr, r6, r2
 80009a2:	eb75 0e03 	sbcs.w	lr, r5, r3
 80009a6:	bf22      	ittt	cs
 80009a8:	1ab6      	subcs	r6, r6, r2
 80009aa:	4675      	movcs	r5, lr
 80009ac:	ea40 005c 	orrcs.w	r0, r0, ip, lsr #1
 80009b0:	085b      	lsrs	r3, r3, #1
 80009b2:	ea4f 0232 	mov.w	r2, r2, rrx
 80009b6:	ebb6 0e02 	subs.w	lr, r6, r2
 80009ba:	eb75 0e03 	sbcs.w	lr, r5, r3
 80009be:	bf22      	ittt	cs
 80009c0:	1ab6      	subcs	r6, r6, r2
 80009c2:	4675      	movcs	r5, lr
 80009c4:	ea40 009c 	orrcs.w	r0, r0, ip, lsr #2
 80009c8:	085b      	lsrs	r3, r3, #1
 80009ca:	ea4f 0232 	mov.w	r2, r2, rrx
 80009ce:	ebb6 0e02 	subs.w	lr, r6, r2
 80009d2:	eb75 0e03 	sbcs.w	lr, r5, r3
 80009d6:	bf22      	ittt	cs
 80009d8:	1ab6      	subcs	r6, r6, r2
 80009da:	4675      	movcs	r5, lr
 80009dc:	ea40 00dc 	orrcs.w	r0, r0, ip, lsr #3
 80009e0:	ea55 0e06 	orrs.w	lr, r5, r6
 80009e4:	d018      	beq.n	8000a18 <__aeabi_ddiv+0x114>
 80009e6:	ea4f 1505 	mov.w	r5, r5, lsl #4
 80009ea:	ea45 7516 	orr.w	r5, r5, r6, lsr #28
 80009ee:	ea4f 1606 	mov.w	r6, r6, lsl #4
 80009f2:	ea4f 03c3 	mov.w	r3, r3, lsl #3
 80009f6:	ea43 7352 	orr.w	r3, r3, r2, lsr #29
 80009fa:	ea4f 02c2 	mov.w	r2, r2, lsl #3
 80009fe:	ea5f 1c1c 	movs.w	ip, ip, lsr #4
 8000a02:	d1c0      	bne.n	8000986 <__aeabi_ddiv+0x82>
 8000a04:	f411 1f80 	tst.w	r1, #1048576	; 0x100000
 8000a08:	d10b      	bne.n	8000a22 <__aeabi_ddiv+0x11e>
 8000a0a:	ea41 0100 	orr.w	r1, r1, r0
 8000a0e:	f04f 0000 	mov.w	r0, #0
 8000a12:	f04f 4c00 	mov.w	ip, #2147483648	; 0x80000000
 8000a16:	e7b6      	b.n	8000986 <__aeabi_ddiv+0x82>
 8000a18:	f411 1f80 	tst.w	r1, #1048576	; 0x100000
 8000a1c:	bf04      	itt	eq
 8000a1e:	4301      	orreq	r1, r0
 8000a20:	2000      	moveq	r0, #0
 8000a22:	f1b4 0cfd 	subs.w	ip, r4, #253	; 0xfd
 8000a26:	bf88      	it	hi
 8000a28:	f5bc 6fe0 	cmphi.w	ip, #1792	; 0x700
 8000a2c:	f63f aeaf 	bhi.w	800078e <__aeabi_dmul+0xde>
 8000a30:	ebb5 0c03 	subs.w	ip, r5, r3
 8000a34:	bf04      	itt	eq
 8000a36:	ebb6 0c02 	subseq.w	ip, r6, r2
 8000a3a:	ea5f 0c50 	movseq.w	ip, r0, lsr #1
 8000a3e:	f150 0000 	adcs.w	r0, r0, #0
 8000a42:	eb41 5104 	adc.w	r1, r1, r4, lsl #20
 8000a46:	bd70      	pop	{r4, r5, r6, pc}
 8000a48:	f00e 4e00 	and.w	lr, lr, #2147483648	; 0x80000000
 8000a4c:	ea4e 3111 	orr.w	r1, lr, r1, lsr #12
 8000a50:	eb14 045c 	adds.w	r4, r4, ip, lsr #1
 8000a54:	bfc2      	ittt	gt
 8000a56:	ebd4 050c 	rsbsgt	r5, r4, ip
 8000a5a:	ea41 5104 	orrgt.w	r1, r1, r4, lsl #20
 8000a5e:	bd70      	popgt	{r4, r5, r6, pc}
 8000a60:	f441 1180 	orr.w	r1, r1, #1048576	; 0x100000
 8000a64:	f04f 0e00 	mov.w	lr, #0
 8000a68:	3c01      	subs	r4, #1
 8000a6a:	e690      	b.n	800078e <__aeabi_dmul+0xde>
 8000a6c:	ea45 0e06 	orr.w	lr, r5, r6
 8000a70:	e68d      	b.n	800078e <__aeabi_dmul+0xde>
 8000a72:	ea0c 5513 	and.w	r5, ip, r3, lsr #20
 8000a76:	ea94 0f0c 	teq	r4, ip
 8000a7a:	bf08      	it	eq
 8000a7c:	ea95 0f0c 	teqeq	r5, ip
 8000a80:	f43f af3b 	beq.w	80008fa <__aeabi_dmul+0x24a>
 8000a84:	ea94 0f0c 	teq	r4, ip
 8000a88:	d10a      	bne.n	8000aa0 <__aeabi_ddiv+0x19c>
 8000a8a:	ea50 3401 	orrs.w	r4, r0, r1, lsl #12
 8000a8e:	f47f af34 	bne.w	80008fa <__aeabi_dmul+0x24a>
 8000a92:	ea95 0f0c 	teq	r5, ip
 8000a96:	f47f af25 	bne.w	80008e4 <__aeabi_dmul+0x234>
 8000a9a:	4610      	mov	r0, r2
 8000a9c:	4619      	mov	r1, r3
 8000a9e:	e72c      	b.n	80008fa <__aeabi_dmul+0x24a>
 8000aa0:	ea95 0f0c 	teq	r5, ip
 8000aa4:	d106      	bne.n	8000ab4 <__aeabi_ddiv+0x1b0>
 8000aa6:	ea52 3503 	orrs.w	r5, r2, r3, lsl #12
 8000aaa:	f43f aefd 	beq.w	80008a8 <__aeabi_dmul+0x1f8>
 8000aae:	4610      	mov	r0, r2
 8000ab0:	4619      	mov	r1, r3
 8000ab2:	e722      	b.n	80008fa <__aeabi_dmul+0x24a>
 8000ab4:	ea50 0641 	orrs.w	r6, r0, r1, lsl #1
 8000ab8:	bf18      	it	ne
 8000aba:	ea52 0643 	orrsne.w	r6, r2, r3, lsl #1
 8000abe:	f47f aec5 	bne.w	800084c <__aeabi_dmul+0x19c>
 8000ac2:	ea50 0441 	orrs.w	r4, r0, r1, lsl #1
 8000ac6:	f47f af0d 	bne.w	80008e4 <__aeabi_dmul+0x234>
 8000aca:	ea52 0543 	orrs.w	r5, r2, r3, lsl #1
 8000ace:	f47f aeeb 	bne.w	80008a8 <__aeabi_dmul+0x1f8>
 8000ad2:	e712      	b.n	80008fa <__aeabi_dmul+0x24a>

08000ad4 <__gedf2>:
 8000ad4:	f04f 3cff 	mov.w	ip, #4294967295
 8000ad8:	e006      	b.n	8000ae8 <__cmpdf2+0x4>
 8000ada:	bf00      	nop

08000adc <__ledf2>:
 8000adc:	f04f 0c01 	mov.w	ip, #1
 8000ae0:	e002      	b.n	8000ae8 <__cmpdf2+0x4>
 8000ae2:	bf00      	nop

08000ae4 <__cmpdf2>:
 8000ae4:	f04f 0c01 	mov.w	ip, #1
 8000ae8:	f84d cd04 	str.w	ip, [sp, #-4]!
 8000aec:	ea4f 0c41 	mov.w	ip, r1, lsl #1
 8000af0:	ea7f 5c6c 	mvns.w	ip, ip, asr #21
 8000af4:	ea4f 0c43 	mov.w	ip, r3, lsl #1
 8000af8:	bf18      	it	ne
 8000afa:	ea7f 5c6c 	mvnsne.w	ip, ip, asr #21
 8000afe:	d01b      	beq.n	8000b38 <__cmpdf2+0x54>
 8000b00:	b001      	add	sp, #4
 8000b02:	ea50 0c41 	orrs.w	ip, r0, r1, lsl #1
 8000b06:	bf0c      	ite	eq
 8000b08:	ea52 0c43 	orrseq.w	ip, r2, r3, lsl #1
 8000b0c:	ea91 0f03 	teqne	r1, r3
 8000b10:	bf02      	ittt	eq
 8000b12:	ea90 0f02 	teqeq	r0, r2
 8000b16:	2000      	moveq	r0, #0
 8000b18:	4770      	bxeq	lr
 8000b1a:	f110 0f00 	cmn.w	r0, #0
 8000b1e:	ea91 0f03 	teq	r1, r3
 8000b22:	bf58      	it	pl
 8000b24:	4299      	cmppl	r1, r3
 8000b26:	bf08      	it	eq
 8000b28:	4290      	cmpeq	r0, r2
 8000b2a:	bf2c      	ite	cs
 8000b2c:	17d8      	asrcs	r0, r3, #31
 8000b2e:	ea6f 70e3 	mvncc.w	r0, r3, asr #31
 8000b32:	f040 0001 	orr.w	r0, r0, #1
 8000b36:	4770      	bx	lr
 8000b38:	ea4f 0c41 	mov.w	ip, r1, lsl #1
 8000b3c:	ea7f 5c6c 	mvns.w	ip, ip, asr #21
 8000b40:	d102      	bne.n	8000b48 <__cmpdf2+0x64>
 8000b42:	ea50 3c01 	orrs.w	ip, r0, r1, lsl #12
 8000b46:	d107      	bne.n	8000b58 <__cmpdf2+0x74>
 8000b48:	ea4f 0c43 	mov.w	ip, r3, lsl #1
 8000b4c:	ea7f 5c6c 	mvns.w	ip, ip, asr #21
 8000b50:	d1d6      	bne.n	8000b00 <__cmpdf2+0x1c>
 8000b52:	ea52 3c03 	orrs.w	ip, r2, r3, lsl #12
 8000b56:	d0d3      	beq.n	8000b00 <__cmpdf2+0x1c>
 8000b58:	f85d 0b04 	ldr.w	r0, [sp], #4
 8000b5c:	4770      	bx	lr
 8000b5e:	bf00      	nop

08000b60 <__aeabi_cdrcmple>:
 8000b60:	4684      	mov	ip, r0
 8000b62:	4610      	mov	r0, r2
 8000b64:	4662      	mov	r2, ip
 8000b66:	468c      	mov	ip, r1
 8000b68:	4619      	mov	r1, r3
 8000b6a:	4663      	mov	r3, ip
 8000b6c:	e000      	b.n	8000b70 <__aeabi_cdcmpeq>
 8000b6e:	bf00      	nop

08000b70 <__aeabi_cdcmpeq>:
 8000b70:	b501      	push	{r0, lr}
 8000b72:	f7ff ffb7 	bl	8000ae4 <__cmpdf2>
 8000b76:	2800      	cmp	r0, #0
 8000b78:	bf48      	it	mi
 8000b7a:	f110 0f00 	cmnmi.w	r0, #0
 8000b7e:	bd01      	pop	{r0, pc}

08000b80 <__aeabi_dcmpeq>:
 8000b80:	f84d ed08 	str.w	lr, [sp, #-8]!
 8000b84:	f7ff fff4 	bl	8000b70 <__aeabi_cdcmpeq>
 8000b88:	bf0c      	ite	eq
 8000b8a:	2001      	moveq	r0, #1
 8000b8c:	2000      	movne	r0, #0
 8000b8e:	f85d fb08 	ldr.w	pc, [sp], #8
 8000b92:	bf00      	nop

08000b94 <__aeabi_dcmplt>:
 8000b94:	f84d ed08 	str.w	lr, [sp, #-8]!
 8000b98:	f7ff ffea 	bl	8000b70 <__aeabi_cdcmpeq>
 8000b9c:	bf34      	ite	cc
 8000b9e:	2001      	movcc	r0, #1
 8000ba0:	2000      	movcs	r0, #0
 8000ba2:	f85d fb08 	ldr.w	pc, [sp], #8
 8000ba6:	bf00      	nop

08000ba8 <__aeabi_dcmple>:
 8000ba8:	f84d ed08 	str.w	lr, [sp, #-8]!
 8000bac:	f7ff ffe0 	bl	8000b70 <__aeabi_cdcmpeq>
 8000bb0:	bf94      	ite	ls
 8000bb2:	2001      	movls	r0, #1
 8000bb4:	2000      	movhi	r0, #0
 8000bb6:	f85d fb08 	ldr.w	pc, [sp], #8
 8000bba:	bf00      	nop

08000bbc <__aeabi_dcmpge>:
 8000bbc:	f84d ed08 	str.w	lr, [sp, #-8]!
 8000bc0:	f7ff ffce 	bl	8000b60 <__aeabi_cdrcmple>
 8000bc4:	bf94      	ite	ls
 8000bc6:	2001      	movls	r0, #1
 8000bc8:	2000      	movhi	r0, #0
 8000bca:	f85d fb08 	ldr.w	pc, [sp], #8
 8000bce:	bf00      	nop

08000bd0 <__aeabi_dcmpgt>:
 8000bd0:	f84d ed08 	str.w	lr, [sp, #-8]!
 8000bd4:	f7ff ffc4 	bl	8000b60 <__aeabi_cdrcmple>
 8000bd8:	bf34      	ite	cc
 8000bda:	2001      	movcc	r0, #1
 8000bdc:	2000      	movcs	r0, #0
 8000bde:	f85d fb08 	ldr.w	pc, [sp], #8
 8000be2:	bf00      	nop

08000be4 <__aeabi_dcmpun>:
 8000be4:	ea4f 0c41 	mov.w	ip, r1, lsl #1
 8000be8:	ea7f 5c6c 	mvns.w	ip, ip, asr #21
 8000bec:	d102      	bne.n	8000bf4 <__aeabi_dcmpun+0x10>
 8000bee:	ea50 3c01 	orrs.w	ip, r0, r1, lsl #12
 8000bf2:	d10a      	bne.n	8000c0a <__aeabi_dcmpun+0x26>
 8000bf4:	ea4f 0c43 	mov.w	ip, r3, lsl #1
 8000bf8:	ea7f 5c6c 	mvns.w	ip, ip, asr #21
 8000bfc:	d102      	bne.n	8000c04 <__aeabi_dcmpun+0x20>
 8000bfe:	ea52 3c03 	orrs.w	ip, r2, r3, lsl #12
 8000c02:	d102      	bne.n	8000c0a <__aeabi_dcmpun+0x26>
 8000c04:	f04f 0000 	mov.w	r0, #0
 8000c08:	4770      	bx	lr
 8000c0a:	f04f 0001 	mov.w	r0, #1
 8000c0e:	4770      	bx	lr

08000c10 <__aeabi_d2iz>:
 8000c10:	ea4f 0241 	mov.w	r2, r1, lsl #1
 8000c14:	f512 1200 	adds.w	r2, r2, #2097152	; 0x200000
 8000c18:	d215      	bcs.n	8000c46 <__aeabi_d2iz+0x36>
 8000c1a:	d511      	bpl.n	8000c40 <__aeabi_d2iz+0x30>
 8000c1c:	f46f 7378 	mvn.w	r3, #992	; 0x3e0
 8000c20:	ebb3 5262 	subs.w	r2, r3, r2, asr #21
 8000c24:	d912      	bls.n	8000c4c <__aeabi_d2iz+0x3c>
 8000c26:	ea4f 23c1 	mov.w	r3, r1, lsl #11
 8000c2a:	f043 4300 	orr.w	r3, r3, #2147483648	; 0x80000000
 8000c2e:	ea43 5350 	orr.w	r3, r3, r0, lsr #21
 8000c32:	f011 4f00 	tst.w	r1, #2147483648	; 0x80000000
 8000c36:	fa23 f002 	lsr.w	r0, r3, r2
 8000c3a:	bf18      	it	ne
 8000c3c:	4240      	negne	r0, r0
 8000c3e:	4770      	bx	lr
 8000c40:	f04f 0000 	mov.w	r0, #0
 8000c44:	4770      	bx	lr
 8000c46:	ea50 3001 	orrs.w	r0, r0, r1, lsl #12
 8000c4a:	d105      	bne.n	8000c58 <__aeabi_d2iz+0x48>
 8000c4c:	f011 4000 	ands.w	r0, r1, #2147483648	; 0x80000000
 8000c50:	bf08      	it	eq
 8000c52:	f06f 4000 	mvneq.w	r0, #2147483648	; 0x80000000
 8000c56:	4770      	bx	lr
 8000c58:	f04f 0000 	mov.w	r0, #0
 8000c5c:	4770      	bx	lr
 8000c5e:	bf00      	nop

08000c60 <__aeabi_d2f>:
 8000c60:	ea4f 0241 	mov.w	r2, r1, lsl #1
 8000c64:	f1b2 43e0 	subs.w	r3, r2, #1879048192	; 0x70000000
 8000c68:	bf24      	itt	cs
 8000c6a:	f5b3 1c00 	subscs.w	ip, r3, #2097152	; 0x200000
 8000c6e:	f1dc 5cfe 	rsbscs	ip, ip, #532676608	; 0x1fc00000
 8000c72:	d90d      	bls.n	8000c90 <__aeabi_d2f+0x30>
 8000c74:	f001 4c00 	and.w	ip, r1, #2147483648	; 0x80000000
 8000c78:	ea4f 02c0 	mov.w	r2, r0, lsl #3
 8000c7c:	ea4c 7050 	orr.w	r0, ip, r0, lsr #29
 8000c80:	f1b2 4f00 	cmp.w	r2, #2147483648	; 0x80000000
 8000c84:	eb40 0083 	adc.w	r0, r0, r3, lsl #2
 8000c88:	bf08      	it	eq
 8000c8a:	f020 0001 	biceq.w	r0, r0, #1
 8000c8e:	4770      	bx	lr
 8000c90:	f011 4f80 	tst.w	r1, #1073741824	; 0x40000000
 8000c94:	d121      	bne.n	8000cda <__aeabi_d2f+0x7a>
 8000c96:	f113 7238 	adds.w	r2, r3, #48234496	; 0x2e00000
 8000c9a:	bfbc      	itt	lt
 8000c9c:	f001 4000 	andlt.w	r0, r1, #2147483648	; 0x80000000
 8000ca0:	4770      	bxlt	lr
 8000ca2:	f441 1180 	orr.w	r1, r1, #1048576	; 0x100000
 8000ca6:	ea4f 5252 	mov.w	r2, r2, lsr #21
 8000caa:	f1c2 0218 	rsb	r2, r2, #24
 8000cae:	f1c2 0c20 	rsb	ip, r2, #32
 8000cb2:	fa10 f30c 	lsls.w	r3, r0, ip
 8000cb6:	fa20 f002 	lsr.w	r0, r0, r2
 8000cba:	bf18      	it	ne
 8000cbc:	f040 0001 	orrne.w	r0, r0, #1
 8000cc0:	ea4f 23c1 	mov.w	r3, r1, lsl #11
 8000cc4:	ea4f 23d3 	mov.w	r3, r3, lsr #11
 8000cc8:	fa03 fc0c 	lsl.w	ip, r3, ip
 8000ccc:	ea40 000c 	orr.w	r0, r0, ip
 8000cd0:	fa23 f302 	lsr.w	r3, r3, r2
 8000cd4:	ea4f 0343 	mov.w	r3, r3, lsl #1
 8000cd8:	e7cc      	b.n	8000c74 <__aeabi_d2f+0x14>
 8000cda:	ea7f 5362 	mvns.w	r3, r2, asr #21
 8000cde:	d107      	bne.n	8000cf0 <__aeabi_d2f+0x90>
 8000ce0:	ea50 3301 	orrs.w	r3, r0, r1, lsl #12
 8000ce4:	bf1e      	ittt	ne
 8000ce6:	f04f 40fe 	movne.w	r0, #2130706432	; 0x7f000000
 8000cea:	f440 0040 	orrne.w	r0, r0, #12582912	; 0xc00000
 8000cee:	4770      	bxne	lr
 8000cf0:	f001 4000 	and.w	r0, r1, #2147483648	; 0x80000000
 8000cf4:	f040 40fe 	orr.w	r0, r0, #2130706432	; 0x7f000000
 8000cf8:	f440 0000 	orr.w	r0, r0, #8388608	; 0x800000
 8000cfc:	4770      	bx	lr
 8000cfe:	bf00      	nop

08000d00 <__aeabi_uldivmod>:
 8000d00:	b953      	cbnz	r3, 8000d18 <__aeabi_uldivmod+0x18>
 8000d02:	b94a      	cbnz	r2, 8000d18 <__aeabi_uldivmod+0x18>
 8000d04:	2900      	cmp	r1, #0
 8000d06:	bf08      	it	eq
 8000d08:	2800      	cmpeq	r0, #0
 8000d0a:	bf1c      	itt	ne
 8000d0c:	f04f 31ff 	movne.w	r1, #4294967295
 8000d10:	f04f 30ff 	movne.w	r0, #4294967295
 8000d14:	f000 b97a 	b.w	800100c <__aeabi_idiv0>
 8000d18:	f1ad 0c08 	sub.w	ip, sp, #8
 8000d1c:	e96d ce04 	strd	ip, lr, [sp, #-16]!
 8000d20:	f000 f806 	bl	8000d30 <__udivmoddi4>
 8000d24:	f8dd e004 	ldr.w	lr, [sp, #4]
 8000d28:	e9dd 2302 	ldrd	r2, r3, [sp, #8]
 8000d2c:	b004      	add	sp, #16
 8000d2e:	4770      	bx	lr

08000d30 <__udivmoddi4>:
 8000d30:	e92d 47f0 	stmdb	sp!, {r4, r5, r6, r7, r8, r9, sl, lr}
 8000d34:	468c      	mov	ip, r1
 8000d36:	460d      	mov	r5, r1
 8000d38:	4604      	mov	r4, r0
 8000d3a:	9e08      	ldr	r6, [sp, #32]
 8000d3c:	2b00      	cmp	r3, #0
 8000d3e:	d151      	bne.n	8000de4 <__udivmoddi4+0xb4>
 8000d40:	428a      	cmp	r2, r1
 8000d42:	4617      	mov	r7, r2
 8000d44:	d96d      	bls.n	8000e22 <__udivmoddi4+0xf2>
 8000d46:	fab2 fe82 	clz	lr, r2
 8000d4a:	f1be 0f00 	cmp.w	lr, #0
 8000d4e:	d00b      	beq.n	8000d68 <__udivmoddi4+0x38>
 8000d50:	f1ce 0c20 	rsb	ip, lr, #32
 8000d54:	fa01 f50e 	lsl.w	r5, r1, lr
 8000d58:	fa20 fc0c 	lsr.w	ip, r0, ip
 8000d5c:	fa02 f70e 	lsl.w	r7, r2, lr
 8000d60:	ea4c 0c05 	orr.w	ip, ip, r5
 8000d64:	fa00 f40e 	lsl.w	r4, r0, lr
 8000d68:	ea4f 4a17 	mov.w	sl, r7, lsr #16
 8000d6c:	0c25      	lsrs	r5, r4, #16
 8000d6e:	fbbc f8fa 	udiv	r8, ip, sl
 8000d72:	fa1f f987 	uxth.w	r9, r7
 8000d76:	fb0a cc18 	mls	ip, sl, r8, ip
 8000d7a:	ea45 450c 	orr.w	r5, r5, ip, lsl #16
 8000d7e:	fb08 f309 	mul.w	r3, r8, r9
 8000d82:	42ab      	cmp	r3, r5
 8000d84:	d90a      	bls.n	8000d9c <__udivmoddi4+0x6c>
 8000d86:	19ed      	adds	r5, r5, r7
 8000d88:	f108 32ff 	add.w	r2, r8, #4294967295
 8000d8c:	f080 8123 	bcs.w	8000fd6 <__udivmoddi4+0x2a6>
 8000d90:	42ab      	cmp	r3, r5
 8000d92:	f240 8120 	bls.w	8000fd6 <__udivmoddi4+0x2a6>
 8000d96:	f1a8 0802 	sub.w	r8, r8, #2
 8000d9a:	443d      	add	r5, r7
 8000d9c:	1aed      	subs	r5, r5, r3
 8000d9e:	b2a4      	uxth	r4, r4
 8000da0:	fbb5 f0fa 	udiv	r0, r5, sl
 8000da4:	fb0a 5510 	mls	r5, sl, r0, r5
 8000da8:	ea44 4405 	orr.w	r4, r4, r5, lsl #16
 8000dac:	fb00 f909 	mul.w	r9, r0, r9
 8000db0:	45a1      	cmp	r9, r4
 8000db2:	d909      	bls.n	8000dc8 <__udivmoddi4+0x98>
 8000db4:	19e4      	adds	r4, r4, r7
 8000db6:	f100 33ff 	add.w	r3, r0, #4294967295
 8000dba:	f080 810a 	bcs.w	8000fd2 <__udivmoddi4+0x2a2>
 8000dbe:	45a1      	cmp	r9, r4
 8000dc0:	f240 8107 	bls.w	8000fd2 <__udivmoddi4+0x2a2>
 8000dc4:	3802      	subs	r0, #2
 8000dc6:	443c      	add	r4, r7
 8000dc8:	eba4 0409 	sub.w	r4, r4, r9
 8000dcc:	ea40 4008 	orr.w	r0, r0, r8, lsl #16
 8000dd0:	2100      	movs	r1, #0
 8000dd2:	2e00      	cmp	r6, #0
 8000dd4:	d061      	beq.n	8000e9a <__udivmoddi4+0x16a>
 8000dd6:	fa24 f40e 	lsr.w	r4, r4, lr
 8000dda:	2300      	movs	r3, #0
 8000ddc:	6034      	str	r4, [r6, #0]
 8000dde:	6073      	str	r3, [r6, #4]
 8000de0:	e8bd 87f0 	ldmia.w	sp!, {r4, r5, r6, r7, r8, r9, sl, pc}
 8000de4:	428b      	cmp	r3, r1
 8000de6:	d907      	bls.n	8000df8 <__udivmoddi4+0xc8>
 8000de8:	2e00      	cmp	r6, #0
 8000dea:	d054      	beq.n	8000e96 <__udivmoddi4+0x166>
 8000dec:	2100      	movs	r1, #0
 8000dee:	e886 0021 	stmia.w	r6, {r0, r5}
 8000df2:	4608      	mov	r0, r1
 8000df4:	e8bd 87f0 	ldmia.w	sp!, {r4, r5, r6, r7, r8, r9, sl, pc}
 8000df8:	fab3 f183 	clz	r1, r3
 8000dfc:	2900      	cmp	r1, #0
 8000dfe:	f040 808e 	bne.w	8000f1e <__udivmoddi4+0x1ee>
 8000e02:	42ab      	cmp	r3, r5
 8000e04:	d302      	bcc.n	8000e0c <__udivmoddi4+0xdc>
 8000e06:	4282      	cmp	r2, r0
 8000e08:	f200 80fa 	bhi.w	8001000 <__udivmoddi4+0x2d0>
 8000e0c:	1a84      	subs	r4, r0, r2
 8000e0e:	eb65 0503 	sbc.w	r5, r5, r3
 8000e12:	2001      	movs	r0, #1
 8000e14:	46ac      	mov	ip, r5
 8000e16:	2e00      	cmp	r6, #0
 8000e18:	d03f      	beq.n	8000e9a <__udivmoddi4+0x16a>
 8000e1a:	e886 1010 	stmia.w	r6, {r4, ip}
 8000e1e:	e8bd 87f0 	ldmia.w	sp!, {r4, r5, r6, r7, r8, r9, sl, pc}
 8000e22:	b912      	cbnz	r2, 8000e2a <__udivmoddi4+0xfa>
 8000e24:	2701      	movs	r7, #1
 8000e26:	fbb7 f7f2 	udiv	r7, r7, r2
 8000e2a:	fab7 fe87 	clz	lr, r7
 8000e2e:	f1be 0f00 	cmp.w	lr, #0
 8000e32:	d134      	bne.n	8000e9e <__udivmoddi4+0x16e>
 8000e34:	1beb      	subs	r3, r5, r7
 8000e36:	0c3a      	lsrs	r2, r7, #16
 8000e38:	fa1f fc87 	uxth.w	ip, r7
 8000e3c:	2101      	movs	r1, #1
 8000e3e:	fbb3 f8f2 	udiv	r8, r3, r2
 8000e42:	0c25      	lsrs	r5, r4, #16
 8000e44:	fb02 3318 	mls	r3, r2, r8, r3
 8000e48:	ea45 4503 	orr.w	r5, r5, r3, lsl #16
 8000e4c:	fb0c f308 	mul.w	r3, ip, r8
 8000e50:	42ab      	cmp	r3, r5
 8000e52:	d907      	bls.n	8000e64 <__udivmoddi4+0x134>
 8000e54:	19ed      	adds	r5, r5, r7
 8000e56:	f108 30ff 	add.w	r0, r8, #4294967295
 8000e5a:	d202      	bcs.n	8000e62 <__udivmoddi4+0x132>
 8000e5c:	42ab      	cmp	r3, r5
 8000e5e:	f200 80d1 	bhi.w	8001004 <__udivmoddi4+0x2d4>
 8000e62:	4680      	mov	r8, r0
 8000e64:	1aed      	subs	r5, r5, r3
 8000e66:	b2a3      	uxth	r3, r4
 8000e68:	fbb5 f0f2 	udiv	r0, r5, r2
 8000e6c:	fb02 5510 	mls	r5, r2, r0, r5
 8000e70:	ea43 4405 	orr.w	r4, r3, r5, lsl #16
 8000e74:	fb0c fc00 	mul.w	ip, ip, r0
 8000e78:	45a4      	cmp	ip, r4
 8000e7a:	d907      	bls.n	8000e8c <__udivmoddi4+0x15c>
 8000e7c:	19e4      	adds	r4, r4, r7
 8000e7e:	f100 33ff 	add.w	r3, r0, #4294967295
 8000e82:	d202      	bcs.n	8000e8a <__udivmoddi4+0x15a>
 8000e84:	45a4      	cmp	ip, r4
 8000e86:	f200 80b8 	bhi.w	8000ffa <__udivmoddi4+0x2ca>
 8000e8a:	4618      	mov	r0, r3
 8000e8c:	eba4 040c 	sub.w	r4, r4, ip
 8000e90:	ea40 4008 	orr.w	r0, r0, r8, lsl #16
 8000e94:	e79d      	b.n	8000dd2 <__udivmoddi4+0xa2>
 8000e96:	4631      	mov	r1, r6
 8000e98:	4630      	mov	r0, r6
 8000e9a:	e8bd 87f0 	ldmia.w	sp!, {r4, r5, r6, r7, r8, r9, sl, pc}
 8000e9e:	f1ce 0420 	rsb	r4, lr, #32
 8000ea2:	fa05 f30e 	lsl.w	r3, r5, lr
 8000ea6:	fa07 f70e 	lsl.w	r7, r7, lr
 8000eaa:	fa20 f804 	lsr.w	r8, r0, r4
 8000eae:	0c3a      	lsrs	r2, r7, #16
 8000eb0:	fa25 f404 	lsr.w	r4, r5, r4
 8000eb4:	ea48 0803 	orr.w	r8, r8, r3
 8000eb8:	fbb4 f1f2 	udiv	r1, r4, r2
 8000ebc:	ea4f 4518 	mov.w	r5, r8, lsr #16
 8000ec0:	fb02 4411 	mls	r4, r2, r1, r4
 8000ec4:	fa1f fc87 	uxth.w	ip, r7
 8000ec8:	ea45 4504 	orr.w	r5, r5, r4, lsl #16
 8000ecc:	fb01 f30c 	mul.w	r3, r1, ip
 8000ed0:	42ab      	cmp	r3, r5
 8000ed2:	fa00 f40e 	lsl.w	r4, r0, lr
 8000ed6:	d909      	bls.n	8000eec <__udivmoddi4+0x1bc>
 8000ed8:	19ed      	adds	r5, r5, r7
 8000eda:	f101 30ff 	add.w	r0, r1, #4294967295
 8000ede:	f080 808a 	bcs.w	8000ff6 <__udivmoddi4+0x2c6>
 8000ee2:	42ab      	cmp	r3, r5
 8000ee4:	f240 8087 	bls.w	8000ff6 <__udivmoddi4+0x2c6>
 8000ee8:	3902      	subs	r1, #2
 8000eea:	443d      	add	r5, r7
 8000eec:	1aeb      	subs	r3, r5, r3
 8000eee:	fa1f f588 	uxth.w	r5, r8
 8000ef2:	fbb3 f0f2 	udiv	r0, r3, r2
 8000ef6:	fb02 3310 	mls	r3, r2, r0, r3
 8000efa:	ea45 4503 	orr.w	r5, r5, r3, lsl #16
 8000efe:	fb00 f30c 	mul.w	r3, r0, ip
 8000f02:	42ab      	cmp	r3, r5
 8000f04:	d907      	bls.n	8000f16 <__udivmoddi4+0x1e6>
 8000f06:	19ed      	adds	r5, r5, r7
 8000f08:	f100 38ff 	add.w	r8, r0, #4294967295
 8000f0c:	d26f      	bcs.n	8000fee <__udivmoddi4+0x2be>
 8000f0e:	42ab      	cmp	r3, r5
 8000f10:	d96d      	bls.n	8000fee <__udivmoddi4+0x2be>
 8000f12:	3802      	subs	r0, #2
 8000f14:	443d      	add	r5, r7
 8000f16:	1aeb      	subs	r3, r5, r3
 8000f18:	ea40 4101 	orr.w	r1, r0, r1, lsl #16
 8000f1c:	e78f      	b.n	8000e3e <__udivmoddi4+0x10e>
 8000f1e:	f1c1 0720 	rsb	r7, r1, #32
 8000f22:	fa22 f807 	lsr.w	r8, r2, r7
 8000f26:	408b      	lsls	r3, r1
 8000f28:	fa05 f401 	lsl.w	r4, r5, r1
 8000f2c:	ea48 0303 	orr.w	r3, r8, r3
 8000f30:	fa20 fe07 	lsr.w	lr, r0, r7
 8000f34:	ea4f 4c13 	mov.w	ip, r3, lsr #16
 8000f38:	40fd      	lsrs	r5, r7
 8000f3a:	ea4e 0e04 	orr.w	lr, lr, r4
 8000f3e:	fbb5 f9fc 	udiv	r9, r5, ip
 8000f42:	ea4f 441e 	mov.w	r4, lr, lsr #16
 8000f46:	fb0c 5519 	mls	r5, ip, r9, r5
 8000f4a:	fa1f f883 	uxth.w	r8, r3
 8000f4e:	ea44 4505 	orr.w	r5, r4, r5, lsl #16
 8000f52:	fb09 f408 	mul.w	r4, r9, r8
 8000f56:	42ac      	cmp	r4, r5
 8000f58:	fa02 f201 	lsl.w	r2, r2, r1
 8000f5c:	fa00 fa01 	lsl.w	sl, r0, r1
 8000f60:	d908      	bls.n	8000f74 <__udivmoddi4+0x244>
 8000f62:	18ed      	adds	r5, r5, r3
 8000f64:	f109 30ff 	add.w	r0, r9, #4294967295
 8000f68:	d243      	bcs.n	8000ff2 <__udivmoddi4+0x2c2>
 8000f6a:	42ac      	cmp	r4, r5
 8000f6c:	d941      	bls.n	8000ff2 <__udivmoddi4+0x2c2>
 8000f6e:	f1a9 0902 	sub.w	r9, r9, #2
 8000f72:	441d      	add	r5, r3
 8000f74:	1b2d      	subs	r5, r5, r4
 8000f76:	fa1f fe8e 	uxth.w	lr, lr
 8000f7a:	fbb5 f0fc 	udiv	r0, r5, ip
 8000f7e:	fb0c 5510 	mls	r5, ip, r0, r5
 8000f82:	ea4e 4405 	orr.w	r4, lr, r5, lsl #16
 8000f86:	fb00 f808 	mul.w	r8, r0, r8
 8000f8a:	45a0      	cmp	r8, r4
 8000f8c:	d907      	bls.n	8000f9e <__udivmoddi4+0x26e>
 8000f8e:	18e4      	adds	r4, r4, r3
 8000f90:	f100 35ff 	add.w	r5, r0, #4294967295
 8000f94:	d229      	bcs.n	8000fea <__udivmoddi4+0x2ba>
 8000f96:	45a0      	cmp	r8, r4
 8000f98:	d927      	bls.n	8000fea <__udivmoddi4+0x2ba>
 8000f9a:	3802      	subs	r0, #2
 8000f9c:	441c      	add	r4, r3
 8000f9e:	ea40 4009 	orr.w	r0, r0, r9, lsl #16
 8000fa2:	eba4 0408 	sub.w	r4, r4, r8
 8000fa6:	fba0 8902 	umull	r8, r9, r0, r2
 8000faa:	454c      	cmp	r4, r9
 8000fac:	46c6      	mov	lr, r8
 8000fae:	464d      	mov	r5, r9
 8000fb0:	d315      	bcc.n	8000fde <__udivmoddi4+0x2ae>
 8000fb2:	d012      	beq.n	8000fda <__udivmoddi4+0x2aa>
 8000fb4:	b156      	cbz	r6, 8000fcc <__udivmoddi4+0x29c>
 8000fb6:	ebba 030e 	subs.w	r3, sl, lr
 8000fba:	eb64 0405 	sbc.w	r4, r4, r5
 8000fbe:	fa04 f707 	lsl.w	r7, r4, r7
 8000fc2:	40cb      	lsrs	r3, r1
 8000fc4:	431f      	orrs	r7, r3
 8000fc6:	40cc      	lsrs	r4, r1
 8000fc8:	6037      	str	r7, [r6, #0]
 8000fca:	6074      	str	r4, [r6, #4]
 8000fcc:	2100      	movs	r1, #0
 8000fce:	e8bd 87f0 	ldmia.w	sp!, {r4, r5, r6, r7, r8, r9, sl, pc}
 8000fd2:	4618      	mov	r0, r3
 8000fd4:	e6f8      	b.n	8000dc8 <__udivmoddi4+0x98>
 8000fd6:	4690      	mov	r8, r2
 8000fd8:	e6e0      	b.n	8000d9c <__udivmoddi4+0x6c>
 8000fda:	45c2      	cmp	sl, r8
 8000fdc:	d2ea      	bcs.n	8000fb4 <__udivmoddi4+0x284>
 8000fde:	ebb8 0e02 	subs.w	lr, r8, r2
 8000fe2:	eb69 0503 	sbc.w	r5, r9, r3
 8000fe6:	3801      	subs	r0, #1
 8000fe8:	e7e4      	b.n	8000fb4 <__udivmoddi4+0x284>
 8000fea:	4628      	mov	r0, r5
 8000fec:	e7d7      	b.n	8000f9e <__udivmoddi4+0x26e>
 8000fee:	4640      	mov	r0, r8
 8000ff0:	e791      	b.n	8000f16 <__udivmoddi4+0x1e6>
 8000ff2:	4681      	mov	r9, r0
 8000ff4:	e7be      	b.n	8000f74 <__udivmoddi4+0x244>
 8000ff6:	4601      	mov	r1, r0
 8000ff8:	e778      	b.n	8000eec <__udivmoddi4+0x1bc>
 8000ffa:	3802      	subs	r0, #2
 8000ffc:	443c      	add	r4, r7
 8000ffe:	e745      	b.n	8000e8c <__udivmoddi4+0x15c>
 8001000:	4608      	mov	r0, r1
 8001002:	e708      	b.n	8000e16 <__udivmoddi4+0xe6>
 8001004:	f1a8 0802 	sub.w	r8, r8, #2
 8001008:	443d      	add	r5, r7
 800100a:	e72b      	b.n	8000e64 <__udivmoddi4+0x134>

0800100c <__aeabi_idiv0>:
 800100c:	4770      	bx	lr
 800100e:	bf00      	nop

08001010 <HAL_Init>:
 8001010:	b580      	push	{r7, lr}
 8001012:	af00      	add	r7, sp, #0
 8001014:	4a08      	ldr	r2, [pc, #32]	; (8001038 <HAL_Init+0x28>)
 8001016:	4b08      	ldr	r3, [pc, #32]	; (8001038 <HAL_Init+0x28>)
 8001018:	681b      	ldr	r3, [r3, #0]
 800101a:	f443 7380 	orr.w	r3, r3, #256	; 0x100
 800101e:	6013      	str	r3, [r2, #0]
 8001020:	2003      	movs	r0, #3
 8001022:	f000 f929 	bl	8001278 <HAL_NVIC_SetPriorityGrouping>
 8001026:	2000      	movs	r0, #0
 8001028:	f000 f808 	bl	800103c <HAL_InitTick>
 800102c:	f003 fce2 	bl	80049f4 <HAL_MspInit>
 8001030:	2300      	movs	r3, #0
 8001032:	4618      	mov	r0, r3
 8001034:	bd80      	pop	{r7, pc}
 8001036:	bf00      	nop
 8001038:	40022000 	.word	0x40022000

0800103c <HAL_InitTick>:
 800103c:	b580      	push	{r7, lr}
 800103e:	b082      	sub	sp, #8
 8001040:	af00      	add	r7, sp, #0
 8001042:	6078      	str	r0, [r7, #4]
 8001044:	4b09      	ldr	r3, [pc, #36]	; (800106c <HAL_InitTick+0x30>)
 8001046:	681b      	ldr	r3, [r3, #0]
 8001048:	4a09      	ldr	r2, [pc, #36]	; (8001070 <HAL_InitTick+0x34>)
 800104a:	fba2 2303 	umull	r2, r3, r2, r3
 800104e:	099b      	lsrs	r3, r3, #6
 8001050:	4618      	mov	r0, r3
 8001052:	f000 f946 	bl	80012e2 <HAL_SYSTICK_Config>
 8001056:	2200      	movs	r2, #0
 8001058:	6879      	ldr	r1, [r7, #4]
 800105a:	f04f 30ff 	mov.w	r0, #4294967295
 800105e:	f000 f916 	bl	800128e <HAL_NVIC_SetPriority>
 8001062:	2300      	movs	r3, #0
 8001064:	4618      	mov	r0, r3
 8001066:	3708      	adds	r7, #8
 8001068:	46bd      	mov	sp, r7
 800106a:	bd80      	pop	{r7, pc}
 800106c:	20000004 	.word	0x20000004
 8001070:	10624dd3 	.word	0x10624dd3

08001074 <HAL_IncTick>:
 8001074:	b480      	push	{r7}
 8001076:	af00      	add	r7, sp, #0
 8001078:	4b04      	ldr	r3, [pc, #16]	; (800108c <HAL_IncTick+0x18>)
 800107a:	681b      	ldr	r3, [r3, #0]
 800107c:	3301      	adds	r3, #1
 800107e:	4a03      	ldr	r2, [pc, #12]	; (800108c <HAL_IncTick+0x18>)
 8001080:	6013      	str	r3, [r2, #0]
 8001082:	bf00      	nop
 8001084:	46bd      	mov	sp, r7
 8001086:	f85d 7b04 	ldr.w	r7, [sp], #4
 800108a:	4770      	bx	lr
 800108c:	2000f234 	.word	0x2000f234

08001090 <HAL_GetTick>:
 8001090:	b480      	push	{r7}
 8001092:	af00      	add	r7, sp, #0
 8001094:	4b03      	ldr	r3, [pc, #12]	; (80010a4 <HAL_GetTick+0x14>)
 8001096:	681b      	ldr	r3, [r3, #0]
 8001098:	4618      	mov	r0, r3
 800109a:	46bd      	mov	sp, r7
 800109c:	f85d 7b04 	ldr.w	r7, [sp], #4
 80010a0:	4770      	bx	lr
 80010a2:	bf00      	nop
 80010a4:	2000f234 	.word	0x2000f234

080010a8 <HAL_Delay>:
 80010a8:	b580      	push	{r7, lr}
 80010aa:	b084      	sub	sp, #16
 80010ac:	af00      	add	r7, sp, #0
 80010ae:	6078      	str	r0, [r7, #4]
 80010b0:	f7ff ffee 	bl	8001090 <HAL_GetTick>
 80010b4:	60b8      	str	r0, [r7, #8]
 80010b6:	687b      	ldr	r3, [r7, #4]
 80010b8:	60fb      	str	r3, [r7, #12]
 80010ba:	68fb      	ldr	r3, [r7, #12]
 80010bc:	f1b3 3fff 	cmp.w	r3, #4294967295
 80010c0:	d002      	beq.n	80010c8 <HAL_Delay+0x20>
 80010c2:	68fb      	ldr	r3, [r7, #12]
 80010c4:	3301      	adds	r3, #1
 80010c6:	60fb      	str	r3, [r7, #12]
 80010c8:	bf00      	nop
 80010ca:	f7ff ffe1 	bl	8001090 <HAL_GetTick>
 80010ce:	4602      	mov	r2, r0
 80010d0:	68bb      	ldr	r3, [r7, #8]
 80010d2:	1ad2      	subs	r2, r2, r3
 80010d4:	68fb      	ldr	r3, [r7, #12]
 80010d6:	429a      	cmp	r2, r3
 80010d8:	d3f7      	bcc.n	80010ca <HAL_Delay+0x22>
 80010da:	bf00      	nop
 80010dc:	3710      	adds	r7, #16
 80010de:	46bd      	mov	sp, r7
 80010e0:	bd80      	pop	{r7, pc}
	...

080010e4 <NVIC_SetPriorityGrouping>:
 80010e4:	b480      	push	{r7}
 80010e6:	b085      	sub	sp, #20
 80010e8:	af00      	add	r7, sp, #0
 80010ea:	6078      	str	r0, [r7, #4]
 80010ec:	687b      	ldr	r3, [r7, #4]
 80010ee:	f003 0307 	and.w	r3, r3, #7
 80010f2:	60fb      	str	r3, [r7, #12]
 80010f4:	4b0c      	ldr	r3, [pc, #48]	; (8001128 <NVIC_SetPriorityGrouping+0x44>)
 80010f6:	68db      	ldr	r3, [r3, #12]
 80010f8:	60bb      	str	r3, [r7, #8]
 80010fa:	68ba      	ldr	r2, [r7, #8]
 80010fc:	f64f 03ff 	movw	r3, #63743	; 0xf8ff
 8001100:	4013      	ands	r3, r2
 8001102:	60bb      	str	r3, [r7, #8]
 8001104:	68fb      	ldr	r3, [r7, #12]
 8001106:	021a      	lsls	r2, r3, #8
 8001108:	68bb      	ldr	r3, [r7, #8]
 800110a:	4313      	orrs	r3, r2
 800110c:	f043 63bf 	orr.w	r3, r3, #100139008	; 0x5f80000
 8001110:	f443 3300 	orr.w	r3, r3, #131072	; 0x20000
 8001114:	60bb      	str	r3, [r7, #8]
 8001116:	4a04      	ldr	r2, [pc, #16]	; (8001128 <NVIC_SetPriorityGrouping+0x44>)
 8001118:	68bb      	ldr	r3, [r7, #8]
 800111a:	60d3      	str	r3, [r2, #12]
 800111c:	bf00      	nop
 800111e:	3714      	adds	r7, #20
 8001120:	46bd      	mov	sp, r7
 8001122:	f85d 7b04 	ldr.w	r7, [sp], #4
 8001126:	4770      	bx	lr
 8001128:	e000ed00 	.word	0xe000ed00

0800112c <NVIC_GetPriorityGrouping>:
 800112c:	b480      	push	{r7}
 800112e:	af00      	add	r7, sp, #0
 8001130:	4b04      	ldr	r3, [pc, #16]	; (8001144 <NVIC_GetPriorityGrouping+0x18>)
 8001132:	68db      	ldr	r3, [r3, #12]
 8001134:	0a1b      	lsrs	r3, r3, #8
 8001136:	f003 0307 	and.w	r3, r3, #7
 800113a:	4618      	mov	r0, r3
 800113c:	46bd      	mov	sp, r7
 800113e:	f85d 7b04 	ldr.w	r7, [sp], #4
 8001142:	4770      	bx	lr
 8001144:	e000ed00 	.word	0xe000ed00

08001148 <NVIC_EnableIRQ>:
 8001148:	b480      	push	{r7}
 800114a:	b083      	sub	sp, #12
 800114c:	af00      	add	r7, sp, #0
 800114e:	4603      	mov	r3, r0
 8001150:	71fb      	strb	r3, [r7, #7]
 8001152:	4909      	ldr	r1, [pc, #36]	; (8001178 <NVIC_EnableIRQ+0x30>)
 8001154:	f997 3007 	ldrsb.w	r3, [r7, #7]
 8001158:	095b      	lsrs	r3, r3, #5
 800115a:	79fa      	ldrb	r2, [r7, #7]
 800115c:	f002 021f 	and.w	r2, r2, #31
 8001160:	2001      	movs	r0, #1
 8001162:	fa00 f202 	lsl.w	r2, r0, r2
 8001166:	f841 2023 	str.w	r2, [r1, r3, lsl #2]
 800116a:	bf00      	nop
 800116c:	370c      	adds	r7, #12
 800116e:	46bd      	mov	sp, r7
 8001170:	f85d 7b04 	ldr.w	r7, [sp], #4
 8001174:	4770      	bx	lr
 8001176:	bf00      	nop
 8001178:	e000e100 	.word	0xe000e100

0800117c <NVIC_SetPriority>:
 800117c:	b480      	push	{r7}
 800117e:	b083      	sub	sp, #12
 8001180:	af00      	add	r7, sp, #0
 8001182:	4603      	mov	r3, r0
 8001184:	6039      	str	r1, [r7, #0]
 8001186:	71fb      	strb	r3, [r7, #7]
 8001188:	f997 3007 	ldrsb.w	r3, [r7, #7]
 800118c:	2b00      	cmp	r3, #0
 800118e:	da0b      	bge.n	80011a8 <NVIC_SetPriority+0x2c>
 8001190:	490d      	ldr	r1, [pc, #52]	; (80011c8 <NVIC_SetPriority+0x4c>)
 8001192:	79fb      	ldrb	r3, [r7, #7]
 8001194:	f003 030f 	and.w	r3, r3, #15
 8001198:	3b04      	subs	r3, #4
 800119a:	683a      	ldr	r2, [r7, #0]
 800119c:	b2d2      	uxtb	r2, r2
 800119e:	0112      	lsls	r2, r2, #4
 80011a0:	b2d2      	uxtb	r2, r2
 80011a2:	440b      	add	r3, r1
 80011a4:	761a      	strb	r2, [r3, #24]
 80011a6:	e009      	b.n	80011bc <NVIC_SetPriority+0x40>
 80011a8:	4908      	ldr	r1, [pc, #32]	; (80011cc <NVIC_SetPriority+0x50>)
 80011aa:	f997 3007 	ldrsb.w	r3, [r7, #7]
 80011ae:	683a      	ldr	r2, [r7, #0]
 80011b0:	b2d2      	uxtb	r2, r2
 80011b2:	0112      	lsls	r2, r2, #4
 80011b4:	b2d2      	uxtb	r2, r2
 80011b6:	440b      	add	r3, r1
 80011b8:	f883 2300 	strb.w	r2, [r3, #768]	; 0x300
 80011bc:	bf00      	nop
 80011be:	370c      	adds	r7, #12
 80011c0:	46bd      	mov	sp, r7
 80011c2:	f85d 7b04 	ldr.w	r7, [sp], #4
 80011c6:	4770      	bx	lr
 80011c8:	e000ed00 	.word	0xe000ed00
 80011cc:	e000e100 	.word	0xe000e100

080011d0 <NVIC_EncodePriority>:
 80011d0:	b480      	push	{r7}
 80011d2:	b089      	sub	sp, #36	; 0x24
 80011d4:	af00      	add	r7, sp, #0
 80011d6:	60f8      	str	r0, [r7, #12]
 80011d8:	60b9      	str	r1, [r7, #8]
 80011da:	607a      	str	r2, [r7, #4]
 80011dc:	68fb      	ldr	r3, [r7, #12]
 80011de:	f003 0307 	and.w	r3, r3, #7
 80011e2:	61fb      	str	r3, [r7, #28]
 80011e4:	69fb      	ldr	r3, [r7, #28]
 80011e6:	f1c3 0307 	rsb	r3, r3, #7
 80011ea:	2b04      	cmp	r3, #4
 80011ec:	bf28      	it	cs
 80011ee:	2304      	movcs	r3, #4
 80011f0:	61bb      	str	r3, [r7, #24]
 80011f2:	69fb      	ldr	r3, [r7, #28]
 80011f4:	3304      	adds	r3, #4
 80011f6:	2b06      	cmp	r3, #6
 80011f8:	d902      	bls.n	8001200 <NVIC_EncodePriority+0x30>
 80011fa:	69fb      	ldr	r3, [r7, #28]
 80011fc:	3b03      	subs	r3, #3
 80011fe:	e000      	b.n	8001202 <NVIC_EncodePriority+0x32>
 8001200:	2300      	movs	r3, #0
 8001202:	617b      	str	r3, [r7, #20]
 8001204:	2201      	movs	r2, #1
 8001206:	69bb      	ldr	r3, [r7, #24]
 8001208:	fa02 f303 	lsl.w	r3, r2, r3
 800120c:	1e5a      	subs	r2, r3, #1
 800120e:	68bb      	ldr	r3, [r7, #8]
 8001210:	401a      	ands	r2, r3
 8001212:	697b      	ldr	r3, [r7, #20]
 8001214:	409a      	lsls	r2, r3
 8001216:	2101      	movs	r1, #1
 8001218:	697b      	ldr	r3, [r7, #20]
 800121a:	fa01 f303 	lsl.w	r3, r1, r3
 800121e:	1e59      	subs	r1, r3, #1
 8001220:	687b      	ldr	r3, [r7, #4]
 8001222:	400b      	ands	r3, r1
 8001224:	4313      	orrs	r3, r2
 8001226:	4618      	mov	r0, r3
 8001228:	3724      	adds	r7, #36	; 0x24
 800122a:	46bd      	mov	sp, r7
 800122c:	f85d 7b04 	ldr.w	r7, [sp], #4
 8001230:	4770      	bx	lr
	...

08001234 <SysTick_Config>:
 8001234:	b580      	push	{r7, lr}
 8001236:	b082      	sub	sp, #8
 8001238:	af00      	add	r7, sp, #0
 800123a:	6078      	str	r0, [r7, #4]
 800123c:	687b      	ldr	r3, [r7, #4]
 800123e:	3b01      	subs	r3, #1
 8001240:	f1b3 7f80 	cmp.w	r3, #16777216	; 0x1000000
 8001244:	d301      	bcc.n	800124a <SysTick_Config+0x16>
 8001246:	2301      	movs	r3, #1
 8001248:	e00f      	b.n	800126a <SysTick_Config+0x36>
 800124a:	4a0a      	ldr	r2, [pc, #40]	; (8001274 <SysTick_Config+0x40>)
 800124c:	687b      	ldr	r3, [r7, #4]
 800124e:	3b01      	subs	r3, #1
 8001250:	6053      	str	r3, [r2, #4]
 8001252:	210f      	movs	r1, #15
 8001254:	f04f 30ff 	mov.w	r0, #4294967295
 8001258:	f7ff ff90 	bl	800117c <NVIC_SetPriority>
 800125c:	4b05      	ldr	r3, [pc, #20]	; (8001274 <SysTick_Config+0x40>)
 800125e:	2200      	movs	r2, #0
 8001260:	609a      	str	r2, [r3, #8]
 8001262:	4b04      	ldr	r3, [pc, #16]	; (8001274 <SysTick_Config+0x40>)
 8001264:	2207      	movs	r2, #7
 8001266:	601a      	str	r2, [r3, #0]
 8001268:	2300      	movs	r3, #0
 800126a:	4618      	mov	r0, r3
 800126c:	3708      	adds	r7, #8
 800126e:	46bd      	mov	sp, r7
 8001270:	bd80      	pop	{r7, pc}
 8001272:	bf00      	nop
 8001274:	e000e010 	.word	0xe000e010

08001278 <HAL_NVIC_SetPriorityGrouping>:
 8001278:	b580      	push	{r7, lr}
 800127a:	b082      	sub	sp, #8
 800127c:	af00      	add	r7, sp, #0
 800127e:	6078      	str	r0, [r7, #4]
 8001280:	6878      	ldr	r0, [r7, #4]
 8001282:	f7ff ff2f 	bl	80010e4 <NVIC_SetPriorityGrouping>
 8001286:	bf00      	nop
 8001288:	3708      	adds	r7, #8
 800128a:	46bd      	mov	sp, r7
 800128c:	bd80      	pop	{r7, pc}

0800128e <HAL_NVIC_SetPriority>:
 800128e:	b580      	push	{r7, lr}
 8001290:	b086      	sub	sp, #24
 8001292:	af00      	add	r7, sp, #0
 8001294:	4603      	mov	r3, r0
 8001296:	60b9      	str	r1, [r7, #8]
 8001298:	607a      	str	r2, [r7, #4]
 800129a:	73fb      	strb	r3, [r7, #15]
 800129c:	2300      	movs	r3, #0
 800129e:	617b      	str	r3, [r7, #20]
 80012a0:	f7ff ff44 	bl	800112c <NVIC_GetPriorityGrouping>
 80012a4:	6178      	str	r0, [r7, #20]
 80012a6:	687a      	ldr	r2, [r7, #4]
 80012a8:	68b9      	ldr	r1, [r7, #8]
 80012aa:	6978      	ldr	r0, [r7, #20]
 80012ac:	f7ff ff90 	bl	80011d0 <NVIC_EncodePriority>
 80012b0:	4602      	mov	r2, r0
 80012b2:	f997 300f 	ldrsb.w	r3, [r7, #15]
 80012b6:	4611      	mov	r1, r2
 80012b8:	4618      	mov	r0, r3
 80012ba:	f7ff ff5f 	bl	800117c <NVIC_SetPriority>
 80012be:	bf00      	nop
 80012c0:	3718      	adds	r7, #24
 80012c2:	46bd      	mov	sp, r7
 80012c4:	bd80      	pop	{r7, pc}

080012c6 <HAL_NVIC_EnableIRQ>:
 80012c6:	b580      	push	{r7, lr}
 80012c8:	b082      	sub	sp, #8
 80012ca:	af00      	add	r7, sp, #0
 80012cc:	4603      	mov	r3, r0
 80012ce:	71fb      	strb	r3, [r7, #7]
 80012d0:	f997 3007 	ldrsb.w	r3, [r7, #7]
 80012d4:	4618      	mov	r0, r3
 80012d6:	f7ff ff37 	bl	8001148 <NVIC_EnableIRQ>
 80012da:	bf00      	nop
 80012dc:	3708      	adds	r7, #8
 80012de:	46bd      	mov	sp, r7
 80012e0:	bd80      	pop	{r7, pc}

080012e2 <HAL_SYSTICK_Config>:
 80012e2:	b580      	push	{r7, lr}
 80012e4:	b082      	sub	sp, #8
 80012e6:	af00      	add	r7, sp, #0
 80012e8:	6078      	str	r0, [r7, #4]
 80012ea:	6878      	ldr	r0, [r7, #4]
 80012ec:	f7ff ffa2 	bl	8001234 <SysTick_Config>
 80012f0:	4603      	mov	r3, r0
 80012f2:	4618      	mov	r0, r3
 80012f4:	3708      	adds	r7, #8
 80012f6:	46bd      	mov	sp, r7
 80012f8:	bd80      	pop	{r7, pc}
	...

080012fc <HAL_SYSTICK_CLKSourceConfig>:
 80012fc:	b480      	push	{r7}
 80012fe:	b083      	sub	sp, #12
 8001300:	af00      	add	r7, sp, #0
 8001302:	6078      	str	r0, [r7, #4]
 8001304:	687b      	ldr	r3, [r7, #4]
 8001306:	2b04      	cmp	r3, #4
 8001308:	d106      	bne.n	8001318 <HAL_SYSTICK_CLKSourceConfig+0x1c>
 800130a:	4a09      	ldr	r2, [pc, #36]	; (8001330 <HAL_SYSTICK_CLKSourceConfig+0x34>)
 800130c:	4b08      	ldr	r3, [pc, #32]	; (8001330 <HAL_SYSTICK_CLKSourceConfig+0x34>)
 800130e:	681b      	ldr	r3, [r3, #0]
 8001310:	f043 0304 	orr.w	r3, r3, #4
 8001314:	6013      	str	r3, [r2, #0]
 8001316:	e005      	b.n	8001324 <HAL_SYSTICK_CLKSourceConfig+0x28>
 8001318:	4a05      	ldr	r2, [pc, #20]	; (8001330 <HAL_SYSTICK_CLKSourceConfig+0x34>)
 800131a:	4b05      	ldr	r3, [pc, #20]	; (8001330 <HAL_SYSTICK_CLKSourceConfig+0x34>)
 800131c:	681b      	ldr	r3, [r3, #0]
 800131e:	f023 0304 	bic.w	r3, r3, #4
 8001322:	6013      	str	r3, [r2, #0]
 8001324:	bf00      	nop
 8001326:	370c      	adds	r7, #12
 8001328:	46bd      	mov	sp, r7
 800132a:	f85d 7b04 	ldr.w	r7, [sp], #4
 800132e:	4770      	bx	lr
 8001330:	e000e010 	.word	0xe000e010

08001334 <HAL_SYSTICK_IRQHandler>:
 8001334:	b580      	push	{r7, lr}
 8001336:	af00      	add	r7, sp, #0
 8001338:	f000 f802 	bl	8001340 <HAL_SYSTICK_Callback>
 800133c:	bf00      	nop
 800133e:	bd80      	pop	{r7, pc}

08001340 <HAL_SYSTICK_Callback>:
 8001340:	b480      	push	{r7}
 8001342:	af00      	add	r7, sp, #0
 8001344:	bf00      	nop
 8001346:	46bd      	mov	sp, r7
 8001348:	f85d 7b04 	ldr.w	r7, [sp], #4
 800134c:	4770      	bx	lr
	...

08001350 <HAL_DFSDM_ChannelInit>:
 8001350:	b580      	push	{r7, lr}
 8001352:	b082      	sub	sp, #8
 8001354:	af00      	add	r7, sp, #0
 8001356:	6078      	str	r0, [r7, #4]
 8001358:	687b      	ldr	r3, [r7, #4]
 800135a:	2b00      	cmp	r3, #0
 800135c:	d101      	bne.n	8001362 <HAL_DFSDM_ChannelInit+0x12>
 800135e:	2301      	movs	r3, #1
 8001360:	e0ac      	b.n	80014bc <HAL_DFSDM_ChannelInit+0x16c>
 8001362:	687b      	ldr	r3, [r7, #4]
 8001364:	681b      	ldr	r3, [r3, #0]
 8001366:	4618      	mov	r0, r3
 8001368:	f000 fa8c 	bl	8001884 <DFSDM_GetChannelFromInstance>
 800136c:	4602      	mov	r2, r0
 800136e:	4b55      	ldr	r3, [pc, #340]	; (80014c4 <HAL_DFSDM_ChannelInit+0x174>)
 8001370:	f853 3022 	ldr.w	r3, [r3, r2, lsl #2]
 8001374:	2b00      	cmp	r3, #0
 8001376:	d001      	beq.n	800137c <HAL_DFSDM_ChannelInit+0x2c>
 8001378:	2301      	movs	r3, #1
 800137a:	e09f      	b.n	80014bc <HAL_DFSDM_ChannelInit+0x16c>
 800137c:	6878      	ldr	r0, [r7, #4]
 800137e:	f003 f807 	bl	8004390 <HAL_DFSDM_ChannelMspInit>
 8001382:	4b51      	ldr	r3, [pc, #324]	; (80014c8 <HAL_DFSDM_ChannelInit+0x178>)
 8001384:	681b      	ldr	r3, [r3, #0]
 8001386:	3301      	adds	r3, #1
 8001388:	4a4f      	ldr	r2, [pc, #316]	; (80014c8 <HAL_DFSDM_ChannelInit+0x178>)
 800138a:	6013      	str	r3, [r2, #0]
 800138c:	4b4e      	ldr	r3, [pc, #312]	; (80014c8 <HAL_DFSDM_ChannelInit+0x178>)
 800138e:	681b      	ldr	r3, [r3, #0]
 8001390:	2b01      	cmp	r3, #1
 8001392:	d125      	bne.n	80013e0 <HAL_DFSDM_ChannelInit+0x90>
 8001394:	4a4d      	ldr	r2, [pc, #308]	; (80014cc <HAL_DFSDM_ChannelInit+0x17c>)
 8001396:	4b4d      	ldr	r3, [pc, #308]	; (80014cc <HAL_DFSDM_ChannelInit+0x17c>)
 8001398:	681b      	ldr	r3, [r3, #0]
 800139a:	f023 4380 	bic.w	r3, r3, #1073741824	; 0x40000000
 800139e:	6013      	str	r3, [r2, #0]
 80013a0:	494a      	ldr	r1, [pc, #296]	; (80014cc <HAL_DFSDM_ChannelInit+0x17c>)
 80013a2:	4b4a      	ldr	r3, [pc, #296]	; (80014cc <HAL_DFSDM_ChannelInit+0x17c>)
 80013a4:	681a      	ldr	r2, [r3, #0]
 80013a6:	687b      	ldr	r3, [r7, #4]
 80013a8:	689b      	ldr	r3, [r3, #8]
 80013aa:	4313      	orrs	r3, r2
 80013ac:	600b      	str	r3, [r1, #0]
 80013ae:	4a47      	ldr	r2, [pc, #284]	; (80014cc <HAL_DFSDM_ChannelInit+0x17c>)
 80013b0:	4b46      	ldr	r3, [pc, #280]	; (80014cc <HAL_DFSDM_ChannelInit+0x17c>)
 80013b2:	681b      	ldr	r3, [r3, #0]
 80013b4:	f423 037f 	bic.w	r3, r3, #16711680	; 0xff0000
 80013b8:	6013      	str	r3, [r2, #0]
 80013ba:	687b      	ldr	r3, [r7, #4]
 80013bc:	791b      	ldrb	r3, [r3, #4]
 80013be:	2b01      	cmp	r3, #1
 80013c0:	d108      	bne.n	80013d4 <HAL_DFSDM_ChannelInit+0x84>
 80013c2:	4942      	ldr	r1, [pc, #264]	; (80014cc <HAL_DFSDM_ChannelInit+0x17c>)
 80013c4:	4b41      	ldr	r3, [pc, #260]	; (80014cc <HAL_DFSDM_ChannelInit+0x17c>)
 80013c6:	681a      	ldr	r2, [r3, #0]
 80013c8:	687b      	ldr	r3, [r7, #4]
 80013ca:	68db      	ldr	r3, [r3, #12]
 80013cc:	3b01      	subs	r3, #1
 80013ce:	041b      	lsls	r3, r3, #16
 80013d0:	4313      	orrs	r3, r2
 80013d2:	600b      	str	r3, [r1, #0]
 80013d4:	4a3d      	ldr	r2, [pc, #244]	; (80014cc <HAL_DFSDM_ChannelInit+0x17c>)
 80013d6:	4b3d      	ldr	r3, [pc, #244]	; (80014cc <HAL_DFSDM_ChannelInit+0x17c>)
 80013d8:	681b      	ldr	r3, [r3, #0]
 80013da:	f043 4300 	orr.w	r3, r3, #2147483648	; 0x80000000
 80013de:	6013      	str	r3, [r2, #0]
 80013e0:	687b      	ldr	r3, [r7, #4]
 80013e2:	681b      	ldr	r3, [r3, #0]
 80013e4:	687a      	ldr	r2, [r7, #4]
 80013e6:	6812      	ldr	r2, [r2, #0]
 80013e8:	6812      	ldr	r2, [r2, #0]
 80013ea:	f422 4271 	bic.w	r2, r2, #61696	; 0xf100
 80013ee:	601a      	str	r2, [r3, #0]
 80013f0:	687b      	ldr	r3, [r7, #4]
 80013f2:	681b      	ldr	r3, [r3, #0]
 80013f4:	687a      	ldr	r2, [r7, #4]
 80013f6:	6812      	ldr	r2, [r2, #0]
 80013f8:	6811      	ldr	r1, [r2, #0]
 80013fa:	687a      	ldr	r2, [r7, #4]
 80013fc:	6910      	ldr	r0, [r2, #16]
 80013fe:	687a      	ldr	r2, [r7, #4]
 8001400:	6952      	ldr	r2, [r2, #20]
 8001402:	4310      	orrs	r0, r2
 8001404:	687a      	ldr	r2, [r7, #4]
 8001406:	6992      	ldr	r2, [r2, #24]
 8001408:	4302      	orrs	r2, r0
 800140a:	430a      	orrs	r2, r1
 800140c:	601a      	str	r2, [r3, #0]
 800140e:	687b      	ldr	r3, [r7, #4]
 8001410:	681b      	ldr	r3, [r3, #0]
 8001412:	687a      	ldr	r2, [r7, #4]
 8001414:	6812      	ldr	r2, [r2, #0]
 8001416:	6812      	ldr	r2, [r2, #0]
 8001418:	f022 020f 	bic.w	r2, r2, #15
 800141c:	601a      	str	r2, [r3, #0]
 800141e:	687b      	ldr	r3, [r7, #4]
 8001420:	681b      	ldr	r3, [r3, #0]
 8001422:	687a      	ldr	r2, [r7, #4]
 8001424:	6812      	ldr	r2, [r2, #0]
 8001426:	6811      	ldr	r1, [r2, #0]
 8001428:	687a      	ldr	r2, [r7, #4]
 800142a:	69d0      	ldr	r0, [r2, #28]
 800142c:	687a      	ldr	r2, [r7, #4]
 800142e:	6a12      	ldr	r2, [r2, #32]
 8001430:	4302      	orrs	r2, r0
 8001432:	430a      	orrs	r2, r1
 8001434:	601a      	str	r2, [r3, #0]
 8001436:	687b      	ldr	r3, [r7, #4]
 8001438:	681b      	ldr	r3, [r3, #0]
 800143a:	687a      	ldr	r2, [r7, #4]
 800143c:	6812      	ldr	r2, [r2, #0]
 800143e:	6892      	ldr	r2, [r2, #8]
 8001440:	f422 025f 	bic.w	r2, r2, #14614528	; 0xdf0000
 8001444:	609a      	str	r2, [r3, #8]
 8001446:	687b      	ldr	r3, [r7, #4]
 8001448:	681b      	ldr	r3, [r3, #0]
 800144a:	687a      	ldr	r2, [r7, #4]
 800144c:	6812      	ldr	r2, [r2, #0]
 800144e:	6891      	ldr	r1, [r2, #8]
 8001450:	687a      	ldr	r2, [r7, #4]
 8001452:	6a50      	ldr	r0, [r2, #36]	; 0x24
 8001454:	687a      	ldr	r2, [r7, #4]
 8001456:	6a92      	ldr	r2, [r2, #40]	; 0x28
 8001458:	3a01      	subs	r2, #1
 800145a:	0412      	lsls	r2, r2, #16
 800145c:	4302      	orrs	r2, r0
 800145e:	430a      	orrs	r2, r1
 8001460:	609a      	str	r2, [r3, #8]
 8001462:	687b      	ldr	r3, [r7, #4]
 8001464:	681b      	ldr	r3, [r3, #0]
 8001466:	687a      	ldr	r2, [r7, #4]
 8001468:	6812      	ldr	r2, [r2, #0]
 800146a:	6852      	ldr	r2, [r2, #4]
 800146c:	f002 0207 	and.w	r2, r2, #7
 8001470:	605a      	str	r2, [r3, #4]
 8001472:	687b      	ldr	r3, [r7, #4]
 8001474:	681b      	ldr	r3, [r3, #0]
 8001476:	687a      	ldr	r2, [r7, #4]
 8001478:	6812      	ldr	r2, [r2, #0]
 800147a:	6851      	ldr	r1, [r2, #4]
 800147c:	687a      	ldr	r2, [r7, #4]
 800147e:	6ad2      	ldr	r2, [r2, #44]	; 0x2c
 8001480:	0210      	lsls	r0, r2, #8
 8001482:	687a      	ldr	r2, [r7, #4]
 8001484:	6b12      	ldr	r2, [r2, #48]	; 0x30
 8001486:	00d2      	lsls	r2, r2, #3
 8001488:	4302      	orrs	r2, r0
 800148a:	430a      	orrs	r2, r1
 800148c:	605a      	str	r2, [r3, #4]
 800148e:	687b      	ldr	r3, [r7, #4]
 8001490:	681b      	ldr	r3, [r3, #0]
 8001492:	687a      	ldr	r2, [r7, #4]
 8001494:	6812      	ldr	r2, [r2, #0]
 8001496:	6812      	ldr	r2, [r2, #0]
 8001498:	f042 0280 	orr.w	r2, r2, #128	; 0x80
 800149c:	601a      	str	r2, [r3, #0]
 800149e:	687b      	ldr	r3, [r7, #4]
 80014a0:	2201      	movs	r2, #1
 80014a2:	f883 2034 	strb.w	r2, [r3, #52]	; 0x34
 80014a6:	687b      	ldr	r3, [r7, #4]
 80014a8:	681b      	ldr	r3, [r3, #0]
 80014aa:	4618      	mov	r0, r3
 80014ac:	f000 f9ea 	bl	8001884 <DFSDM_GetChannelFromInstance>
 80014b0:	4601      	mov	r1, r0
 80014b2:	4a04      	ldr	r2, [pc, #16]	; (80014c4 <HAL_DFSDM_ChannelInit+0x174>)
 80014b4:	687b      	ldr	r3, [r7, #4]
 80014b6:	f842 3021 	str.w	r3, [r2, r1, lsl #2]
 80014ba:	2300      	movs	r3, #0
 80014bc:	4618      	mov	r0, r3
 80014be:	3708      	adds	r7, #8
 80014c0:	46bd      	mov	sp, r7
 80014c2:	bd80      	pop	{r7, pc}
 80014c4:	20000200 	.word	0x20000200
 80014c8:	200001fc 	.word	0x200001fc
 80014cc:	40016000 	.word	0x40016000

080014d0 <HAL_DFSDM_FilterInit>:
 80014d0:	b580      	push	{r7, lr}
 80014d2:	b082      	sub	sp, #8
 80014d4:	af00      	add	r7, sp, #0
 80014d6:	6078      	str	r0, [r7, #4]
 80014d8:	687b      	ldr	r3, [r7, #4]
 80014da:	2b00      	cmp	r3, #0
 80014dc:	d101      	bne.n	80014e2 <HAL_DFSDM_FilterInit+0x12>
 80014de:	2301      	movs	r3, #1
 80014e0:	e0ca      	b.n	8001678 <HAL_DFSDM_FilterInit+0x1a8>
 80014e2:	687b      	ldr	r3, [r7, #4]
 80014e4:	681b      	ldr	r3, [r3, #0]
 80014e6:	4a66      	ldr	r2, [pc, #408]	; (8001680 <HAL_DFSDM_FilterInit+0x1b0>)
 80014e8:	4293      	cmp	r3, r2
 80014ea:	d109      	bne.n	8001500 <HAL_DFSDM_FilterInit+0x30>
 80014ec:	687b      	ldr	r3, [r7, #4]
 80014ee:	685b      	ldr	r3, [r3, #4]
 80014f0:	2b01      	cmp	r3, #1
 80014f2:	d003      	beq.n	80014fc <HAL_DFSDM_FilterInit+0x2c>
 80014f4:	687b      	ldr	r3, [r7, #4]
 80014f6:	68db      	ldr	r3, [r3, #12]
 80014f8:	2b01      	cmp	r3, #1
 80014fa:	d101      	bne.n	8001500 <HAL_DFSDM_FilterInit+0x30>
 80014fc:	2301      	movs	r3, #1
 80014fe:	e0bb      	b.n	8001678 <HAL_DFSDM_FilterInit+0x1a8>
 8001500:	687b      	ldr	r3, [r7, #4]
 8001502:	2200      	movs	r2, #0
 8001504:	631a      	str	r2, [r3, #48]	; 0x30
 8001506:	687b      	ldr	r3, [r7, #4]
 8001508:	2201      	movs	r2, #1
 800150a:	645a      	str	r2, [r3, #68]	; 0x44
 800150c:	687b      	ldr	r3, [r7, #4]
 800150e:	2201      	movs	r2, #1
 8001510:	649a      	str	r2, [r3, #72]	; 0x48
 8001512:	687b      	ldr	r3, [r7, #4]
 8001514:	2200      	movs	r2, #0
 8001516:	651a      	str	r2, [r3, #80]	; 0x50
 8001518:	6878      	ldr	r0, [r7, #4]
 800151a:	f002 fea7 	bl	800426c <HAL_DFSDM_FilterMspInit>
 800151e:	687b      	ldr	r3, [r7, #4]
 8001520:	681b      	ldr	r3, [r3, #0]
 8001522:	687a      	ldr	r2, [r7, #4]
 8001524:	6812      	ldr	r2, [r2, #0]
 8001526:	6812      	ldr	r2, [r2, #0]
 8001528:	f422 2200 	bic.w	r2, r2, #524288	; 0x80000
 800152c:	601a      	str	r2, [r3, #0]
 800152e:	687b      	ldr	r3, [r7, #4]
 8001530:	7a1b      	ldrb	r3, [r3, #8]
 8001532:	2b01      	cmp	r3, #1
 8001534:	d108      	bne.n	8001548 <HAL_DFSDM_FilterInit+0x78>
 8001536:	687b      	ldr	r3, [r7, #4]
 8001538:	681b      	ldr	r3, [r3, #0]
 800153a:	687a      	ldr	r2, [r7, #4]
 800153c:	6812      	ldr	r2, [r2, #0]
 800153e:	6812      	ldr	r2, [r2, #0]
 8001540:	f042 5200 	orr.w	r2, r2, #536870912	; 0x20000000
 8001544:	601a      	str	r2, [r3, #0]
 8001546:	e007      	b.n	8001558 <HAL_DFSDM_FilterInit+0x88>
 8001548:	687b      	ldr	r3, [r7, #4]
 800154a:	681b      	ldr	r3, [r3, #0]
 800154c:	687a      	ldr	r2, [r7, #4]
 800154e:	6812      	ldr	r2, [r2, #0]
 8001550:	6812      	ldr	r2, [r2, #0]
 8001552:	f022 5200 	bic.w	r2, r2, #536870912	; 0x20000000
 8001556:	601a      	str	r2, [r3, #0]
 8001558:	687b      	ldr	r3, [r7, #4]
 800155a:	7a5b      	ldrb	r3, [r3, #9]
 800155c:	2b01      	cmp	r3, #1
 800155e:	d108      	bne.n	8001572 <HAL_DFSDM_FilterInit+0xa2>
 8001560:	687b      	ldr	r3, [r7, #4]
 8001562:	681b      	ldr	r3, [r3, #0]
 8001564:	687a      	ldr	r2, [r7, #4]
 8001566:	6812      	ldr	r2, [r2, #0]
 8001568:	6812      	ldr	r2, [r2, #0]
 800156a:	f442 1200 	orr.w	r2, r2, #2097152	; 0x200000
 800156e:	601a      	str	r2, [r3, #0]
 8001570:	e007      	b.n	8001582 <HAL_DFSDM_FilterInit+0xb2>
 8001572:	687b      	ldr	r3, [r7, #4]
 8001574:	681b      	ldr	r3, [r3, #0]
 8001576:	687a      	ldr	r2, [r7, #4]
 8001578:	6812      	ldr	r2, [r2, #0]
 800157a:	6812      	ldr	r2, [r2, #0]
 800157c:	f422 1200 	bic.w	r2, r2, #2097152	; 0x200000
 8001580:	601a      	str	r2, [r3, #0]
 8001582:	687b      	ldr	r3, [r7, #4]
 8001584:	681a      	ldr	r2, [r3, #0]
 8001586:	687b      	ldr	r3, [r7, #4]
 8001588:	681b      	ldr	r3, [r3, #0]
 800158a:	681b      	ldr	r3, [r3, #0]
 800158c:	f423 43ce 	bic.w	r3, r3, #26368	; 0x6700
 8001590:	f023 0308 	bic.w	r3, r3, #8
 8001594:	6013      	str	r3, [r2, #0]
 8001596:	687b      	ldr	r3, [r7, #4]
 8001598:	68db      	ldr	r3, [r3, #12]
 800159a:	2b02      	cmp	r3, #2
 800159c:	d108      	bne.n	80015b0 <HAL_DFSDM_FilterInit+0xe0>
 800159e:	687b      	ldr	r3, [r7, #4]
 80015a0:	681b      	ldr	r3, [r3, #0]
 80015a2:	687a      	ldr	r2, [r7, #4]
 80015a4:	6812      	ldr	r2, [r2, #0]
 80015a6:	6811      	ldr	r1, [r2, #0]
 80015a8:	687a      	ldr	r2, [r7, #4]
 80015aa:	6952      	ldr	r2, [r2, #20]
 80015ac:	430a      	orrs	r2, r1
 80015ae:	601a      	str	r2, [r3, #0]
 80015b0:	687b      	ldr	r3, [r7, #4]
 80015b2:	7c1b      	ldrb	r3, [r3, #16]
 80015b4:	2b01      	cmp	r3, #1
 80015b6:	d108      	bne.n	80015ca <HAL_DFSDM_FilterInit+0xfa>
 80015b8:	687b      	ldr	r3, [r7, #4]
 80015ba:	681b      	ldr	r3, [r3, #0]
 80015bc:	687a      	ldr	r2, [r7, #4]
 80015be:	6812      	ldr	r2, [r2, #0]
 80015c0:	6812      	ldr	r2, [r2, #0]
 80015c2:	f042 0210 	orr.w	r2, r2, #16
 80015c6:	601a      	str	r2, [r3, #0]
 80015c8:	e007      	b.n	80015da <HAL_DFSDM_FilterInit+0x10a>
 80015ca:	687b      	ldr	r3, [r7, #4]
 80015cc:	681b      	ldr	r3, [r3, #0]
 80015ce:	687a      	ldr	r2, [r7, #4]
 80015d0:	6812      	ldr	r2, [r2, #0]
 80015d2:	6812      	ldr	r2, [r2, #0]
 80015d4:	f022 0210 	bic.w	r2, r2, #16
 80015d8:	601a      	str	r2, [r3, #0]
 80015da:	687b      	ldr	r3, [r7, #4]
 80015dc:	7c5b      	ldrb	r3, [r3, #17]
 80015de:	2b01      	cmp	r3, #1
 80015e0:	d108      	bne.n	80015f4 <HAL_DFSDM_FilterInit+0x124>
 80015e2:	687b      	ldr	r3, [r7, #4]
 80015e4:	681b      	ldr	r3, [r3, #0]
 80015e6:	687a      	ldr	r2, [r7, #4]
 80015e8:	6812      	ldr	r2, [r2, #0]
 80015ea:	6812      	ldr	r2, [r2, #0]
 80015ec:	f042 0220 	orr.w	r2, r2, #32
 80015f0:	601a      	str	r2, [r3, #0]
 80015f2:	e007      	b.n	8001604 <HAL_DFSDM_FilterInit+0x134>
 80015f4:	687b      	ldr	r3, [r7, #4]
 80015f6:	681b      	ldr	r3, [r3, #0]
 80015f8:	687a      	ldr	r2, [r7, #4]
 80015fa:	6812      	ldr	r2, [r2, #0]
 80015fc:	6812      	ldr	r2, [r2, #0]
 80015fe:	f022 0220 	bic.w	r2, r2, #32
 8001602:	601a      	str	r2, [r3, #0]
 8001604:	687b      	ldr	r3, [r7, #4]
 8001606:	681a      	ldr	r2, [r3, #0]
 8001608:	687b      	ldr	r3, [r7, #4]
 800160a:	681b      	ldr	r3, [r3, #0]
 800160c:	695b      	ldr	r3, [r3, #20]
 800160e:	f023 4363 	bic.w	r3, r3, #3808428032	; 0xe3000000
 8001612:	f003 23ff 	and.w	r3, r3, #4278255360	; 0xff00ff00
 8001616:	6153      	str	r3, [r2, #20]
 8001618:	687b      	ldr	r3, [r7, #4]
 800161a:	681b      	ldr	r3, [r3, #0]
 800161c:	687a      	ldr	r2, [r7, #4]
 800161e:	6812      	ldr	r2, [r2, #0]
 8001620:	6951      	ldr	r1, [r2, #20]
 8001622:	687a      	ldr	r2, [r7, #4]
 8001624:	69d0      	ldr	r0, [r2, #28]
 8001626:	687a      	ldr	r2, [r7, #4]
 8001628:	6a12      	ldr	r2, [r2, #32]
 800162a:	3a01      	subs	r2, #1
 800162c:	0412      	lsls	r2, r2, #16
 800162e:	4310      	orrs	r0, r2
 8001630:	687a      	ldr	r2, [r7, #4]
 8001632:	6a52      	ldr	r2, [r2, #36]	; 0x24
 8001634:	3a01      	subs	r2, #1
 8001636:	4302      	orrs	r2, r0
 8001638:	430a      	orrs	r2, r1
 800163a:	615a      	str	r2, [r3, #20]
 800163c:	687b      	ldr	r3, [r7, #4]
 800163e:	685a      	ldr	r2, [r3, #4]
 8001640:	687b      	ldr	r3, [r7, #4]
 8001642:	635a      	str	r2, [r3, #52]	; 0x34
 8001644:	687b      	ldr	r3, [r7, #4]
 8001646:	68da      	ldr	r2, [r3, #12]
 8001648:	687b      	ldr	r3, [r7, #4]
 800164a:	639a      	str	r2, [r3, #56]	; 0x38
 800164c:	687b      	ldr	r3, [r7, #4]
 800164e:	699a      	ldr	r2, [r3, #24]
 8001650:	687b      	ldr	r3, [r7, #4]
 8001652:	63da      	str	r2, [r3, #60]	; 0x3c
 8001654:	687b      	ldr	r3, [r7, #4]
 8001656:	7c1a      	ldrb	r2, [r3, #16]
 8001658:	687b      	ldr	r3, [r7, #4]
 800165a:	f883 2040 	strb.w	r2, [r3, #64]	; 0x40
 800165e:	687b      	ldr	r3, [r7, #4]
 8001660:	681b      	ldr	r3, [r3, #0]
 8001662:	687a      	ldr	r2, [r7, #4]
 8001664:	6812      	ldr	r2, [r2, #0]
 8001666:	6812      	ldr	r2, [r2, #0]
 8001668:	f042 0201 	orr.w	r2, r2, #1
 800166c:	601a      	str	r2, [r3, #0]
 800166e:	687b      	ldr	r3, [r7, #4]
 8001670:	2201      	movs	r2, #1
 8001672:	f883 204c 	strb.w	r2, [r3, #76]	; 0x4c
 8001676:	2300      	movs	r3, #0
 8001678:	4618      	mov	r0, r3
 800167a:	3708      	adds	r7, #8
 800167c:	46bd      	mov	sp, r7
 800167e:	bd80      	pop	{r7, pc}
 8001680:	40016100 	.word	0x40016100

08001684 <HAL_DFSDM_FilterConfigRegChannel>:
 8001684:	b480      	push	{r7}
 8001686:	b087      	sub	sp, #28
 8001688:	af00      	add	r7, sp, #0
 800168a:	60f8      	str	r0, [r7, #12]
 800168c:	60b9      	str	r1, [r7, #8]
 800168e:	607a      	str	r2, [r7, #4]
 8001690:	2300      	movs	r3, #0
 8001692:	75fb      	strb	r3, [r7, #23]
 8001694:	68fb      	ldr	r3, [r7, #12]
 8001696:	f893 304c 	ldrb.w	r3, [r3, #76]	; 0x4c
 800169a:	2b00      	cmp	r3, #0
 800169c:	d02e      	beq.n	80016fc <HAL_DFSDM_FilterConfigRegChannel+0x78>
 800169e:	68fb      	ldr	r3, [r7, #12]
 80016a0:	f893 304c 	ldrb.w	r3, [r3, #76]	; 0x4c
 80016a4:	2bff      	cmp	r3, #255	; 0xff
 80016a6:	d029      	beq.n	80016fc <HAL_DFSDM_FilterConfigRegChannel+0x78>
 80016a8:	68fb      	ldr	r3, [r7, #12]
 80016aa:	681a      	ldr	r2, [r3, #0]
 80016ac:	68fb      	ldr	r3, [r7, #12]
 80016ae:	681b      	ldr	r3, [r3, #0]
 80016b0:	681b      	ldr	r3, [r3, #0]
 80016b2:	f023 63e0 	bic.w	r3, r3, #117440512	; 0x7000000
 80016b6:	f423 2380 	bic.w	r3, r3, #262144	; 0x40000
 80016ba:	6013      	str	r3, [r2, #0]
 80016bc:	687b      	ldr	r3, [r7, #4]
 80016be:	2b01      	cmp	r3, #1
 80016c0:	d10d      	bne.n	80016de <HAL_DFSDM_FilterConfigRegChannel+0x5a>
 80016c2:	68fb      	ldr	r3, [r7, #12]
 80016c4:	681b      	ldr	r3, [r3, #0]
 80016c6:	68fa      	ldr	r2, [r7, #12]
 80016c8:	6812      	ldr	r2, [r2, #0]
 80016ca:	6811      	ldr	r1, [r2, #0]
 80016cc:	68ba      	ldr	r2, [r7, #8]
 80016ce:	0212      	lsls	r2, r2, #8
 80016d0:	f002 427f 	and.w	r2, r2, #4278190080	; 0xff000000
 80016d4:	430a      	orrs	r2, r1
 80016d6:	f442 2280 	orr.w	r2, r2, #262144	; 0x40000
 80016da:	601a      	str	r2, [r3, #0]
 80016dc:	e00a      	b.n	80016f4 <HAL_DFSDM_FilterConfigRegChannel+0x70>
 80016de:	68fb      	ldr	r3, [r7, #12]
 80016e0:	681b      	ldr	r3, [r3, #0]
 80016e2:	68fa      	ldr	r2, [r7, #12]
 80016e4:	6812      	ldr	r2, [r2, #0]
 80016e6:	6811      	ldr	r1, [r2, #0]
 80016e8:	68ba      	ldr	r2, [r7, #8]
 80016ea:	0212      	lsls	r2, r2, #8
 80016ec:	f002 427f 	and.w	r2, r2, #4278190080	; 0xff000000
 80016f0:	430a      	orrs	r2, r1
 80016f2:	601a      	str	r2, [r3, #0]
 80016f4:	68fb      	ldr	r3, [r7, #12]
 80016f6:	687a      	ldr	r2, [r7, #4]
 80016f8:	631a      	str	r2, [r3, #48]	; 0x30
 80016fa:	e001      	b.n	8001700 <HAL_DFSDM_FilterConfigRegChannel+0x7c>
 80016fc:	2301      	movs	r3, #1
 80016fe:	75fb      	strb	r3, [r7, #23]
 8001700:	7dfb      	ldrb	r3, [r7, #23]
 8001702:	4618      	mov	r0, r3
 8001704:	371c      	adds	r7, #28
 8001706:	46bd      	mov	sp, r7
 8001708:	f85d 7b04 	ldr.w	r7, [sp], #4
 800170c:	4770      	bx	lr
	...

08001710 <HAL_DFSDM_FilterRegularStart_DMA>:
 8001710:	b580      	push	{r7, lr}
 8001712:	b086      	sub	sp, #24
 8001714:	af00      	add	r7, sp, #0
 8001716:	60f8      	str	r0, [r7, #12]
 8001718:	60b9      	str	r1, [r7, #8]
 800171a:	607a      	str	r2, [r7, #4]
 800171c:	2300      	movs	r3, #0
 800171e:	75fb      	strb	r3, [r7, #23]
 8001720:	68bb      	ldr	r3, [r7, #8]
 8001722:	2b00      	cmp	r3, #0
 8001724:	d002      	beq.n	800172c <HAL_DFSDM_FilterRegularStart_DMA+0x1c>
 8001726:	687b      	ldr	r3, [r7, #4]
 8001728:	2b00      	cmp	r3, #0
 800172a:	d102      	bne.n	8001732 <HAL_DFSDM_FilterRegularStart_DMA+0x22>
 800172c:	2301      	movs	r3, #1
 800172e:	75fb      	strb	r3, [r7, #23]
 8001730:	e064      	b.n	80017fc <HAL_DFSDM_FilterRegularStart_DMA+0xec>
 8001732:	68fb      	ldr	r3, [r7, #12]
 8001734:	681b      	ldr	r3, [r3, #0]
 8001736:	681b      	ldr	r3, [r3, #0]
 8001738:	f403 1300 	and.w	r3, r3, #2097152	; 0x200000
 800173c:	f5b3 1f00 	cmp.w	r3, #2097152	; 0x200000
 8001740:	d002      	beq.n	8001748 <HAL_DFSDM_FilterRegularStart_DMA+0x38>
 8001742:	2301      	movs	r3, #1
 8001744:	75fb      	strb	r3, [r7, #23]
 8001746:	e059      	b.n	80017fc <HAL_DFSDM_FilterRegularStart_DMA+0xec>
 8001748:	68fb      	ldr	r3, [r7, #12]
 800174a:	6b5b      	ldr	r3, [r3, #52]	; 0x34
 800174c:	2b00      	cmp	r3, #0
 800174e:	d10e      	bne.n	800176e <HAL_DFSDM_FilterRegularStart_DMA+0x5e>
 8001750:	68fb      	ldr	r3, [r7, #12]
 8001752:	6b1b      	ldr	r3, [r3, #48]	; 0x30
 8001754:	2b00      	cmp	r3, #0
 8001756:	d10a      	bne.n	800176e <HAL_DFSDM_FilterRegularStart_DMA+0x5e>
 8001758:	68fb      	ldr	r3, [r7, #12]
 800175a:	6a9b      	ldr	r3, [r3, #40]	; 0x28
 800175c:	69db      	ldr	r3, [r3, #28]
 800175e:	2b00      	cmp	r3, #0
 8001760:	d105      	bne.n	800176e <HAL_DFSDM_FilterRegularStart_DMA+0x5e>
 8001762:	687b      	ldr	r3, [r7, #4]
 8001764:	2b01      	cmp	r3, #1
 8001766:	d002      	beq.n	800176e <HAL_DFSDM_FilterRegularStart_DMA+0x5e>
 8001768:	2301      	movs	r3, #1
 800176a:	75fb      	strb	r3, [r7, #23]
 800176c:	e046      	b.n	80017fc <HAL_DFSDM_FilterRegularStart_DMA+0xec>
 800176e:	68fb      	ldr	r3, [r7, #12]
 8001770:	6b5b      	ldr	r3, [r3, #52]	; 0x34
 8001772:	2b00      	cmp	r3, #0
 8001774:	d10b      	bne.n	800178e <HAL_DFSDM_FilterRegularStart_DMA+0x7e>
 8001776:	68fb      	ldr	r3, [r7, #12]
 8001778:	6b1b      	ldr	r3, [r3, #48]	; 0x30
 800177a:	2b00      	cmp	r3, #0
 800177c:	d107      	bne.n	800178e <HAL_DFSDM_FilterRegularStart_DMA+0x7e>
 800177e:	68fb      	ldr	r3, [r7, #12]
 8001780:	6a9b      	ldr	r3, [r3, #40]	; 0x28
 8001782:	69db      	ldr	r3, [r3, #28]
 8001784:	2b20      	cmp	r3, #32
 8001786:	d102      	bne.n	800178e <HAL_DFSDM_FilterRegularStart_DMA+0x7e>
 8001788:	2301      	movs	r3, #1
 800178a:	75fb      	strb	r3, [r7, #23]
 800178c:	e036      	b.n	80017fc <HAL_DFSDM_FilterRegularStart_DMA+0xec>
 800178e:	68fb      	ldr	r3, [r7, #12]
 8001790:	f893 304c 	ldrb.w	r3, [r3, #76]	; 0x4c
 8001794:	2b01      	cmp	r3, #1
 8001796:	d004      	beq.n	80017a2 <HAL_DFSDM_FilterRegularStart_DMA+0x92>
 8001798:	68fb      	ldr	r3, [r7, #12]
 800179a:	f893 304c 	ldrb.w	r3, [r3, #76]	; 0x4c
 800179e:	2b03      	cmp	r3, #3
 80017a0:	d12a      	bne.n	80017f8 <HAL_DFSDM_FilterRegularStart_DMA+0xe8>
 80017a2:	68fb      	ldr	r3, [r7, #12]
 80017a4:	6a9b      	ldr	r3, [r3, #40]	; 0x28
 80017a6:	4a18      	ldr	r2, [pc, #96]	; (8001808 <HAL_DFSDM_FilterRegularStart_DMA+0xf8>)
 80017a8:	62da      	str	r2, [r3, #44]	; 0x2c
 80017aa:	68fb      	ldr	r3, [r7, #12]
 80017ac:	6a9b      	ldr	r3, [r3, #40]	; 0x28
 80017ae:	4a17      	ldr	r2, [pc, #92]	; (800180c <HAL_DFSDM_FilterRegularStart_DMA+0xfc>)
 80017b0:	635a      	str	r2, [r3, #52]	; 0x34
 80017b2:	68fb      	ldr	r3, [r7, #12]
 80017b4:	6a9b      	ldr	r3, [r3, #40]	; 0x28
 80017b6:	68fa      	ldr	r2, [r7, #12]
 80017b8:	6a92      	ldr	r2, [r2, #40]	; 0x28
 80017ba:	69d2      	ldr	r2, [r2, #28]
 80017bc:	2a20      	cmp	r2, #32
 80017be:	d101      	bne.n	80017c4 <HAL_DFSDM_FilterRegularStart_DMA+0xb4>
 80017c0:	4a13      	ldr	r2, [pc, #76]	; (8001810 <HAL_DFSDM_FilterRegularStart_DMA+0x100>)
 80017c2:	e000      	b.n	80017c6 <HAL_DFSDM_FilterRegularStart_DMA+0xb6>
 80017c4:	2200      	movs	r2, #0
 80017c6:	631a      	str	r2, [r3, #48]	; 0x30
 80017c8:	68fb      	ldr	r3, [r7, #12]
 80017ca:	6a98      	ldr	r0, [r3, #40]	; 0x28
 80017cc:	68fb      	ldr	r3, [r7, #12]
 80017ce:	681b      	ldr	r3, [r3, #0]
 80017d0:	331c      	adds	r3, #28
 80017d2:	4619      	mov	r1, r3
 80017d4:	68ba      	ldr	r2, [r7, #8]
 80017d6:	687b      	ldr	r3, [r7, #4]
 80017d8:	f000 f9bc 	bl	8001b54 <HAL_DMA_Start_IT>
 80017dc:	4603      	mov	r3, r0
 80017de:	2b00      	cmp	r3, #0
 80017e0:	d006      	beq.n	80017f0 <HAL_DFSDM_FilterRegularStart_DMA+0xe0>
 80017e2:	68fb      	ldr	r3, [r7, #12]
 80017e4:	22ff      	movs	r2, #255	; 0xff
 80017e6:	f883 204c 	strb.w	r2, [r3, #76]	; 0x4c
 80017ea:	2301      	movs	r3, #1
 80017ec:	75fb      	strb	r3, [r7, #23]
 80017ee:	e005      	b.n	80017fc <HAL_DFSDM_FilterRegularStart_DMA+0xec>
 80017f0:	68f8      	ldr	r0, [r7, #12]
 80017f2:	f000 f89b 	bl	800192c <DFSDM_RegConvStart>
 80017f6:	e001      	b.n	80017fc <HAL_DFSDM_FilterRegularStart_DMA+0xec>
 80017f8:	2301      	movs	r3, #1
 80017fa:	75fb      	strb	r3, [r7, #23]
 80017fc:	7dfb      	ldrb	r3, [r7, #23]
 80017fe:	4618      	mov	r0, r3
 8001800:	3718      	adds	r7, #24
 8001802:	46bd      	mov	sp, r7
 8001804:	bd80      	pop	{r7, pc}
 8001806:	bf00      	nop
 8001808:	08001845 	.word	0x08001845
 800180c:	08001861 	.word	0x08001861
 8001810:	08001829 	.word	0x08001829

08001814 <HAL_DFSDM_FilterErrorCallback>:
 8001814:	b480      	push	{r7}
 8001816:	b083      	sub	sp, #12
 8001818:	af00      	add	r7, sp, #0
 800181a:	6078      	str	r0, [r7, #4]
 800181c:	bf00      	nop
 800181e:	370c      	adds	r7, #12
 8001820:	46bd      	mov	sp, r7
 8001822:	f85d 7b04 	ldr.w	r7, [sp], #4
 8001826:	4770      	bx	lr

08001828 <DFSDM_DMARegularHalfConvCplt>:
 8001828:	b580      	push	{r7, lr}
 800182a:	b084      	sub	sp, #16
 800182c:	af00      	add	r7, sp, #0
 800182e:	6078      	str	r0, [r7, #4]
 8001830:	687b      	ldr	r3, [r7, #4]
 8001832:	6a9b      	ldr	r3, [r3, #40]	; 0x28
 8001834:	60fb      	str	r3, [r7, #12]
 8001836:	68f8      	ldr	r0, [r7, #12]
 8001838:	f003 f88c 	bl	8004954 <HAL_DFSDM_FilterRegConvHalfCpltCallback>
 800183c:	bf00      	nop
 800183e:	3710      	adds	r7, #16
 8001840:	46bd      	mov	sp, r7
 8001842:	bd80      	pop	{r7, pc}

08001844 <DFSDM_DMARegularConvCplt>:
 8001844:	b580      	push	{r7, lr}
 8001846:	b084      	sub	sp, #16
 8001848:	af00      	add	r7, sp, #0
 800184a:	6078      	str	r0, [r7, #4]
 800184c:	687b      	ldr	r3, [r7, #4]
 800184e:	6a9b      	ldr	r3, [r3, #40]	; 0x28
 8001850:	60fb      	str	r3, [r7, #12]
 8001852:	68f8      	ldr	r0, [r7, #12]
 8001854:	f003 f888 	bl	8004968 <HAL_DFSDM_FilterRegConvCpltCallback>
 8001858:	bf00      	nop
 800185a:	3710      	adds	r7, #16
 800185c:	46bd      	mov	sp, r7
 800185e:	bd80      	pop	{r7, pc}

08001860 <DFSDM_DMAError>:
 8001860:	b580      	push	{r7, lr}
 8001862:	b084      	sub	sp, #16
 8001864:	af00      	add	r7, sp, #0
 8001866:	6078      	str	r0, [r7, #4]
 8001868:	687b      	ldr	r3, [r7, #4]
 800186a:	6a9b      	ldr	r3, [r3, #40]	; 0x28
 800186c:	60fb      	str	r3, [r7, #12]
 800186e:	68fb      	ldr	r3, [r7, #12]
 8001870:	2203      	movs	r2, #3
 8001872:	651a      	str	r2, [r3, #80]	; 0x50
 8001874:	68f8      	ldr	r0, [r7, #12]
 8001876:	f7ff ffcd 	bl	8001814 <HAL_DFSDM_FilterErrorCallback>
 800187a:	bf00      	nop
 800187c:	3710      	adds	r7, #16
 800187e:	46bd      	mov	sp, r7
 8001880:	bd80      	pop	{r7, pc}
	...

08001884 <DFSDM_GetChannelFromInstance>:
 8001884:	b480      	push	{r7}
 8001886:	b085      	sub	sp, #20
 8001888:	af00      	add	r7, sp, #0
 800188a:	6078      	str	r0, [r7, #4]
 800188c:	23ff      	movs	r3, #255	; 0xff
 800188e:	60fb      	str	r3, [r7, #12]
 8001890:	687b      	ldr	r3, [r7, #4]
 8001892:	4a1e      	ldr	r2, [pc, #120]	; (800190c <DFSDM_GetChannelFromInstance+0x88>)
 8001894:	4293      	cmp	r3, r2
 8001896:	d102      	bne.n	800189e <DFSDM_GetChannelFromInstance+0x1a>
 8001898:	2300      	movs	r3, #0
 800189a:	60fb      	str	r3, [r7, #12]
 800189c:	e02f      	b.n	80018fe <DFSDM_GetChannelFromInstance+0x7a>
 800189e:	687b      	ldr	r3, [r7, #4]
 80018a0:	4a1b      	ldr	r2, [pc, #108]	; (8001910 <DFSDM_GetChannelFromInstance+0x8c>)
 80018a2:	4293      	cmp	r3, r2
 80018a4:	d102      	bne.n	80018ac <DFSDM_GetChannelFromInstance+0x28>
 80018a6:	2301      	movs	r3, #1
 80018a8:	60fb      	str	r3, [r7, #12]
 80018aa:	e028      	b.n	80018fe <DFSDM_GetChannelFromInstance+0x7a>
 80018ac:	687b      	ldr	r3, [r7, #4]
 80018ae:	4a19      	ldr	r2, [pc, #100]	; (8001914 <DFSDM_GetChannelFromInstance+0x90>)
 80018b0:	4293      	cmp	r3, r2
 80018b2:	d102      	bne.n	80018ba <DFSDM_GetChannelFromInstance+0x36>
 80018b4:	2302      	movs	r3, #2
 80018b6:	60fb      	str	r3, [r7, #12]
 80018b8:	e021      	b.n	80018fe <DFSDM_GetChannelFromInstance+0x7a>
 80018ba:	687b      	ldr	r3, [r7, #4]
 80018bc:	4a16      	ldr	r2, [pc, #88]	; (8001918 <DFSDM_GetChannelFromInstance+0x94>)
 80018be:	4293      	cmp	r3, r2
 80018c0:	d102      	bne.n	80018c8 <DFSDM_GetChannelFromInstance+0x44>
 80018c2:	2303      	movs	r3, #3
 80018c4:	60fb      	str	r3, [r7, #12]
 80018c6:	e01a      	b.n	80018fe <DFSDM_GetChannelFromInstance+0x7a>
 80018c8:	687b      	ldr	r3, [r7, #4]
 80018ca:	4a14      	ldr	r2, [pc, #80]	; (800191c <DFSDM_GetChannelFromInstance+0x98>)
 80018cc:	4293      	cmp	r3, r2
 80018ce:	d102      	bne.n	80018d6 <DFSDM_GetChannelFromInstance+0x52>
 80018d0:	2304      	movs	r3, #4
 80018d2:	60fb      	str	r3, [r7, #12]
 80018d4:	e013      	b.n	80018fe <DFSDM_GetChannelFromInstance+0x7a>
 80018d6:	687b      	ldr	r3, [r7, #4]
 80018d8:	4a11      	ldr	r2, [pc, #68]	; (8001920 <DFSDM_GetChannelFromInstance+0x9c>)
 80018da:	4293      	cmp	r3, r2
 80018dc:	d102      	bne.n	80018e4 <DFSDM_GetChannelFromInstance+0x60>
 80018de:	2305      	movs	r3, #5
 80018e0:	60fb      	str	r3, [r7, #12]
 80018e2:	e00c      	b.n	80018fe <DFSDM_GetChannelFromInstance+0x7a>
 80018e4:	687b      	ldr	r3, [r7, #4]
 80018e6:	4a0f      	ldr	r2, [pc, #60]	; (8001924 <DFSDM_GetChannelFromInstance+0xa0>)
 80018e8:	4293      	cmp	r3, r2
 80018ea:	d102      	bne.n	80018f2 <DFSDM_GetChannelFromInstance+0x6e>
 80018ec:	2306      	movs	r3, #6
 80018ee:	60fb      	str	r3, [r7, #12]
 80018f0:	e005      	b.n	80018fe <DFSDM_GetChannelFromInstance+0x7a>
 80018f2:	687b      	ldr	r3, [r7, #4]
 80018f4:	4a0c      	ldr	r2, [pc, #48]	; (8001928 <DFSDM_GetChannelFromInstance+0xa4>)
 80018f6:	4293      	cmp	r3, r2
 80018f8:	d101      	bne.n	80018fe <DFSDM_GetChannelFromInstance+0x7a>
 80018fa:	2307      	movs	r3, #7
 80018fc:	60fb      	str	r3, [r7, #12]
 80018fe:	68fb      	ldr	r3, [r7, #12]
 8001900:	4618      	mov	r0, r3
 8001902:	3714      	adds	r7, #20
 8001904:	46bd      	mov	sp, r7
 8001906:	f85d 7b04 	ldr.w	r7, [sp], #4
 800190a:	4770      	bx	lr
 800190c:	40016000 	.word	0x40016000
 8001910:	40016020 	.word	0x40016020
 8001914:	40016040 	.word	0x40016040
 8001918:	40016060 	.word	0x40016060
 800191c:	40016080 	.word	0x40016080
 8001920:	400160a0 	.word	0x400160a0
 8001924:	400160c0 	.word	0x400160c0
 8001928:	400160e0 	.word	0x400160e0

0800192c <DFSDM_RegConvStart>:
 800192c:	b480      	push	{r7}
 800192e:	b083      	sub	sp, #12
 8001930:	af00      	add	r7, sp, #0
 8001932:	6078      	str	r0, [r7, #4]
 8001934:	687b      	ldr	r3, [r7, #4]
 8001936:	6b5b      	ldr	r3, [r3, #52]	; 0x34
 8001938:	2b00      	cmp	r3, #0
 800193a:	d108      	bne.n	800194e <DFSDM_RegConvStart+0x22>
 800193c:	687b      	ldr	r3, [r7, #4]
 800193e:	681b      	ldr	r3, [r3, #0]
 8001940:	687a      	ldr	r2, [r7, #4]
 8001942:	6812      	ldr	r2, [r2, #0]
 8001944:	6812      	ldr	r2, [r2, #0]
 8001946:	f442 3200 	orr.w	r2, r2, #131072	; 0x20000
 800194a:	601a      	str	r2, [r3, #0]
 800194c:	e033      	b.n	80019b6 <DFSDM_RegConvStart+0x8a>
 800194e:	687b      	ldr	r3, [r7, #4]
 8001950:	681b      	ldr	r3, [r3, #0]
 8001952:	687a      	ldr	r2, [r7, #4]
 8001954:	6812      	ldr	r2, [r2, #0]
 8001956:	6812      	ldr	r2, [r2, #0]
 8001958:	f022 0201 	bic.w	r2, r2, #1
 800195c:	601a      	str	r2, [r3, #0]
 800195e:	687b      	ldr	r3, [r7, #4]
 8001960:	681b      	ldr	r3, [r3, #0]
 8001962:	687a      	ldr	r2, [r7, #4]
 8001964:	6812      	ldr	r2, [r2, #0]
 8001966:	6812      	ldr	r2, [r2, #0]
 8001968:	f442 2200 	orr.w	r2, r2, #524288	; 0x80000
 800196c:	601a      	str	r2, [r3, #0]
 800196e:	687b      	ldr	r3, [r7, #4]
 8001970:	681b      	ldr	r3, [r3, #0]
 8001972:	687a      	ldr	r2, [r7, #4]
 8001974:	6812      	ldr	r2, [r2, #0]
 8001976:	6812      	ldr	r2, [r2, #0]
 8001978:	f042 0201 	orr.w	r2, r2, #1
 800197c:	601a      	str	r2, [r3, #0]
 800197e:	687b      	ldr	r3, [r7, #4]
 8001980:	f893 304c 	ldrb.w	r3, [r3, #76]	; 0x4c
 8001984:	2b03      	cmp	r3, #3
 8001986:	d116      	bne.n	80019b6 <DFSDM_RegConvStart+0x8a>
 8001988:	687b      	ldr	r3, [r7, #4]
 800198a:	6b9b      	ldr	r3, [r3, #56]	; 0x38
 800198c:	2b00      	cmp	r3, #0
 800198e:	d107      	bne.n	80019a0 <DFSDM_RegConvStart+0x74>
 8001990:	687b      	ldr	r3, [r7, #4]
 8001992:	681b      	ldr	r3, [r3, #0]
 8001994:	687a      	ldr	r2, [r7, #4]
 8001996:	6812      	ldr	r2, [r2, #0]
 8001998:	6812      	ldr	r2, [r2, #0]
 800199a:	f042 0202 	orr.w	r2, r2, #2
 800199e:	601a      	str	r2, [r3, #0]
 80019a0:	687b      	ldr	r3, [r7, #4]
 80019a2:	f893 3040 	ldrb.w	r3, [r3, #64]	; 0x40
 80019a6:	2b01      	cmp	r3, #1
 80019a8:	d102      	bne.n	80019b0 <DFSDM_RegConvStart+0x84>
 80019aa:	687b      	ldr	r3, [r7, #4]
 80019ac:	6c5b      	ldr	r3, [r3, #68]	; 0x44
 80019ae:	e000      	b.n	80019b2 <DFSDM_RegConvStart+0x86>
 80019b0:	2301      	movs	r3, #1
 80019b2:	687a      	ldr	r2, [r7, #4]
 80019b4:	6493      	str	r3, [r2, #72]	; 0x48
 80019b6:	687b      	ldr	r3, [r7, #4]
 80019b8:	f893 304c 	ldrb.w	r3, [r3, #76]	; 0x4c
 80019bc:	2b01      	cmp	r3, #1
 80019be:	d101      	bne.n	80019c4 <DFSDM_RegConvStart+0x98>
 80019c0:	2202      	movs	r2, #2
 80019c2:	e000      	b.n	80019c6 <DFSDM_RegConvStart+0x9a>
 80019c4:	2204      	movs	r2, #4
 80019c6:	687b      	ldr	r3, [r7, #4]
 80019c8:	f883 204c 	strb.w	r2, [r3, #76]	; 0x4c
 80019cc:	bf00      	nop
 80019ce:	370c      	adds	r7, #12
 80019d0:	46bd      	mov	sp, r7
 80019d2:	f85d 7b04 	ldr.w	r7, [sp], #4
 80019d6:	4770      	bx	lr

080019d8 <HAL_DMA_Init>:
 80019d8:	b480      	push	{r7}
 80019da:	b085      	sub	sp, #20
 80019dc:	af00      	add	r7, sp, #0
 80019de:	6078      	str	r0, [r7, #4]
 80019e0:	2300      	movs	r3, #0
 80019e2:	60fb      	str	r3, [r7, #12]
 80019e4:	687b      	ldr	r3, [r7, #4]
 80019e6:	2b00      	cmp	r3, #0
 80019e8:	d101      	bne.n	80019ee <HAL_DMA_Init+0x16>
 80019ea:	2301      	movs	r3, #1
 80019ec:	e09c      	b.n	8001b28 <HAL_DMA_Init+0x150>
 80019ee:	687b      	ldr	r3, [r7, #4]
 80019f0:	681b      	ldr	r3, [r3, #0]
 80019f2:	461a      	mov	r2, r3
 80019f4:	4b4f      	ldr	r3, [pc, #316]	; (8001b34 <HAL_DMA_Init+0x15c>)
 80019f6:	429a      	cmp	r2, r3
 80019f8:	d80f      	bhi.n	8001a1a <HAL_DMA_Init+0x42>
 80019fa:	687b      	ldr	r3, [r7, #4]
 80019fc:	681b      	ldr	r3, [r3, #0]
 80019fe:	461a      	mov	r2, r3
 8001a00:	4b4d      	ldr	r3, [pc, #308]	; (8001b38 <HAL_DMA_Init+0x160>)
 8001a02:	4413      	add	r3, r2
 8001a04:	4a4d      	ldr	r2, [pc, #308]	; (8001b3c <HAL_DMA_Init+0x164>)
 8001a06:	fba2 2303 	umull	r2, r3, r2, r3
 8001a0a:	091b      	lsrs	r3, r3, #4
 8001a0c:	009a      	lsls	r2, r3, #2
 8001a0e:	687b      	ldr	r3, [r7, #4]
 8001a10:	645a      	str	r2, [r3, #68]	; 0x44
 8001a12:	687b      	ldr	r3, [r7, #4]
 8001a14:	4a4a      	ldr	r2, [pc, #296]	; (8001b40 <HAL_DMA_Init+0x168>)
 8001a16:	641a      	str	r2, [r3, #64]	; 0x40
 8001a18:	e00e      	b.n	8001a38 <HAL_DMA_Init+0x60>
 8001a1a:	687b      	ldr	r3, [r7, #4]
 8001a1c:	681b      	ldr	r3, [r3, #0]
 8001a1e:	461a      	mov	r2, r3
 8001a20:	4b48      	ldr	r3, [pc, #288]	; (8001b44 <HAL_DMA_Init+0x16c>)
 8001a22:	4413      	add	r3, r2
 8001a24:	4a45      	ldr	r2, [pc, #276]	; (8001b3c <HAL_DMA_Init+0x164>)
 8001a26:	fba2 2303 	umull	r2, r3, r2, r3
 8001a2a:	091b      	lsrs	r3, r3, #4
 8001a2c:	009a      	lsls	r2, r3, #2
 8001a2e:	687b      	ldr	r3, [r7, #4]
 8001a30:	645a      	str	r2, [r3, #68]	; 0x44
 8001a32:	687b      	ldr	r3, [r7, #4]
 8001a34:	4a44      	ldr	r2, [pc, #272]	; (8001b48 <HAL_DMA_Init+0x170>)
 8001a36:	641a      	str	r2, [r3, #64]	; 0x40
 8001a38:	687b      	ldr	r3, [r7, #4]
 8001a3a:	2202      	movs	r2, #2
 8001a3c:	f883 2025 	strb.w	r2, [r3, #37]	; 0x25
 8001a40:	687b      	ldr	r3, [r7, #4]
 8001a42:	681b      	ldr	r3, [r3, #0]
 8001a44:	681b      	ldr	r3, [r3, #0]
 8001a46:	60fb      	str	r3, [r7, #12]
 8001a48:	68fb      	ldr	r3, [r7, #12]
 8001a4a:	f423 43ff 	bic.w	r3, r3, #32640	; 0x7f80
 8001a4e:	f023 0370 	bic.w	r3, r3, #112	; 0x70
 8001a52:	60fb      	str	r3, [r7, #12]
 8001a54:	687b      	ldr	r3, [r7, #4]
 8001a56:	689a      	ldr	r2, [r3, #8]
 8001a58:	687b      	ldr	r3, [r7, #4]
 8001a5a:	68db      	ldr	r3, [r3, #12]
 8001a5c:	431a      	orrs	r2, r3
 8001a5e:	687b      	ldr	r3, [r7, #4]
 8001a60:	691b      	ldr	r3, [r3, #16]
 8001a62:	431a      	orrs	r2, r3
 8001a64:	687b      	ldr	r3, [r7, #4]
 8001a66:	695b      	ldr	r3, [r3, #20]
 8001a68:	431a      	orrs	r2, r3
 8001a6a:	687b      	ldr	r3, [r7, #4]
 8001a6c:	699b      	ldr	r3, [r3, #24]
 8001a6e:	431a      	orrs	r2, r3
 8001a70:	687b      	ldr	r3, [r7, #4]
 8001a72:	69db      	ldr	r3, [r3, #28]
 8001a74:	431a      	orrs	r2, r3
 8001a76:	687b      	ldr	r3, [r7, #4]
 8001a78:	6a1b      	ldr	r3, [r3, #32]
 8001a7a:	4313      	orrs	r3, r2
 8001a7c:	68fa      	ldr	r2, [r7, #12]
 8001a7e:	4313      	orrs	r3, r2
 8001a80:	60fb      	str	r3, [r7, #12]
 8001a82:	687b      	ldr	r3, [r7, #4]
 8001a84:	681b      	ldr	r3, [r3, #0]
 8001a86:	68fa      	ldr	r2, [r7, #12]
 8001a88:	601a      	str	r2, [r3, #0]
 8001a8a:	687b      	ldr	r3, [r7, #4]
 8001a8c:	689b      	ldr	r3, [r3, #8]
 8001a8e:	f5b3 4f80 	cmp.w	r3, #16384	; 0x4000
 8001a92:	d031      	beq.n	8001af8 <HAL_DMA_Init+0x120>
 8001a94:	687b      	ldr	r3, [r7, #4]
 8001a96:	6c1b      	ldr	r3, [r3, #64]	; 0x40
 8001a98:	4a29      	ldr	r2, [pc, #164]	; (8001b40 <HAL_DMA_Init+0x168>)
 8001a9a:	4293      	cmp	r3, r2
 8001a9c:	d116      	bne.n	8001acc <HAL_DMA_Init+0xf4>
 8001a9e:	492b      	ldr	r1, [pc, #172]	; (8001b4c <HAL_DMA_Init+0x174>)
 8001aa0:	4b2a      	ldr	r3, [pc, #168]	; (8001b4c <HAL_DMA_Init+0x174>)
 8001aa2:	681a      	ldr	r2, [r3, #0]
 8001aa4:	687b      	ldr	r3, [r7, #4]
 8001aa6:	6c5b      	ldr	r3, [r3, #68]	; 0x44
 8001aa8:	200f      	movs	r0, #15
 8001aaa:	fa00 f303 	lsl.w	r3, r0, r3
 8001aae:	43db      	mvns	r3, r3
 8001ab0:	4013      	ands	r3, r2
 8001ab2:	600b      	str	r3, [r1, #0]
 8001ab4:	4825      	ldr	r0, [pc, #148]	; (8001b4c <HAL_DMA_Init+0x174>)
 8001ab6:	4b25      	ldr	r3, [pc, #148]	; (8001b4c <HAL_DMA_Init+0x174>)
 8001ab8:	681a      	ldr	r2, [r3, #0]
 8001aba:	687b      	ldr	r3, [r7, #4]
 8001abc:	6859      	ldr	r1, [r3, #4]
 8001abe:	687b      	ldr	r3, [r7, #4]
 8001ac0:	6c5b      	ldr	r3, [r3, #68]	; 0x44
 8001ac2:	fa01 f303 	lsl.w	r3, r1, r3
 8001ac6:	4313      	orrs	r3, r2
 8001ac8:	6003      	str	r3, [r0, #0]
 8001aca:	e015      	b.n	8001af8 <HAL_DMA_Init+0x120>
 8001acc:	4920      	ldr	r1, [pc, #128]	; (8001b50 <HAL_DMA_Init+0x178>)
 8001ace:	4b20      	ldr	r3, [pc, #128]	; (8001b50 <HAL_DMA_Init+0x178>)
 8001ad0:	681a      	ldr	r2, [r3, #0]
 8001ad2:	687b      	ldr	r3, [r7, #4]
 8001ad4:	6c5b      	ldr	r3, [r3, #68]	; 0x44
 8001ad6:	200f      	movs	r0, #15
 8001ad8:	fa00 f303 	lsl.w	r3, r0, r3
 8001adc:	43db      	mvns	r3, r3
 8001ade:	4013      	ands	r3, r2
 8001ae0:	600b      	str	r3, [r1, #0]
 8001ae2:	481b      	ldr	r0, [pc, #108]	; (8001b50 <HAL_DMA_Init+0x178>)
 8001ae4:	4b1a      	ldr	r3, [pc, #104]	; (8001b50 <HAL_DMA_Init+0x178>)
 8001ae6:	681a      	ldr	r2, [r3, #0]
 8001ae8:	687b      	ldr	r3, [r7, #4]
 8001aea:	6859      	ldr	r1, [r3, #4]
 8001aec:	687b      	ldr	r3, [r7, #4]
 8001aee:	6c5b      	ldr	r3, [r3, #68]	; 0x44
 8001af0:	fa01 f303 	lsl.w	r3, r1, r3
 8001af4:	4313      	orrs	r3, r2
 8001af6:	6003      	str	r3, [r0, #0]
 8001af8:	687b      	ldr	r3, [r7, #4]
 8001afa:	2200      	movs	r2, #0
 8001afc:	62da      	str	r2, [r3, #44]	; 0x2c
 8001afe:	687b      	ldr	r3, [r7, #4]
 8001b00:	2200      	movs	r2, #0
 8001b02:	631a      	str	r2, [r3, #48]	; 0x30
 8001b04:	687b      	ldr	r3, [r7, #4]
 8001b06:	2200      	movs	r2, #0
 8001b08:	635a      	str	r2, [r3, #52]	; 0x34
 8001b0a:	687b      	ldr	r3, [r7, #4]
 8001b0c:	2200      	movs	r2, #0
 8001b0e:	639a      	str	r2, [r3, #56]	; 0x38
 8001b10:	687b      	ldr	r3, [r7, #4]
 8001b12:	2200      	movs	r2, #0
 8001b14:	63da      	str	r2, [r3, #60]	; 0x3c
 8001b16:	687b      	ldr	r3, [r7, #4]
 8001b18:	2201      	movs	r2, #1
 8001b1a:	f883 2025 	strb.w	r2, [r3, #37]	; 0x25
 8001b1e:	687b      	ldr	r3, [r7, #4]
 8001b20:	2200      	movs	r2, #0
 8001b22:	f883 2024 	strb.w	r2, [r3, #36]	; 0x24
 8001b26:	2300      	movs	r3, #0
 8001b28:	4618      	mov	r0, r3
 8001b2a:	3714      	adds	r7, #20
 8001b2c:	46bd      	mov	sp, r7
 8001b2e:	f85d 7b04 	ldr.w	r7, [sp], #4
 8001b32:	4770      	bx	lr
 8001b34:	40020407 	.word	0x40020407
 8001b38:	bffdfff8 	.word	0xbffdfff8
 8001b3c:	cccccccd 	.word	0xcccccccd
 8001b40:	40020000 	.word	0x40020000
 8001b44:	bffdfbf8 	.word	0xbffdfbf8
 8001b48:	40020400 	.word	0x40020400
 8001b4c:	400200a8 	.word	0x400200a8
 8001b50:	400204a8 	.word	0x400204a8

08001b54 <HAL_DMA_Start_IT>:
 8001b54:	b580      	push	{r7, lr}
 8001b56:	b086      	sub	sp, #24
 8001b58:	af00      	add	r7, sp, #0
 8001b5a:	60f8      	str	r0, [r7, #12]
 8001b5c:	60b9      	str	r1, [r7, #8]
 8001b5e:	607a      	str	r2, [r7, #4]
 8001b60:	603b      	str	r3, [r7, #0]
 8001b62:	2300      	movs	r3, #0
 8001b64:	75fb      	strb	r3, [r7, #23]
 8001b66:	68fb      	ldr	r3, [r7, #12]
 8001b68:	f893 3024 	ldrb.w	r3, [r3, #36]	; 0x24
 8001b6c:	2b01      	cmp	r3, #1
 8001b6e:	d101      	bne.n	8001b74 <HAL_DMA_Start_IT+0x20>
 8001b70:	2302      	movs	r3, #2
 8001b72:	e04b      	b.n	8001c0c <HAL_DMA_Start_IT+0xb8>
 8001b74:	68fb      	ldr	r3, [r7, #12]
 8001b76:	2201      	movs	r2, #1
 8001b78:	f883 2024 	strb.w	r2, [r3, #36]	; 0x24
 8001b7c:	68fb      	ldr	r3, [r7, #12]
 8001b7e:	f893 3025 	ldrb.w	r3, [r3, #37]	; 0x25
 8001b82:	b2db      	uxtb	r3, r3
 8001b84:	2b01      	cmp	r3, #1
 8001b86:	d13a      	bne.n	8001bfe <HAL_DMA_Start_IT+0xaa>
 8001b88:	68fb      	ldr	r3, [r7, #12]
 8001b8a:	2202      	movs	r2, #2
 8001b8c:	f883 2025 	strb.w	r2, [r3, #37]	; 0x25
 8001b90:	68fb      	ldr	r3, [r7, #12]
 8001b92:	2200      	movs	r2, #0
 8001b94:	63da      	str	r2, [r3, #60]	; 0x3c
 8001b96:	68fb      	ldr	r3, [r7, #12]
 8001b98:	681b      	ldr	r3, [r3, #0]
 8001b9a:	68fa      	ldr	r2, [r7, #12]
 8001b9c:	6812      	ldr	r2, [r2, #0]
 8001b9e:	6812      	ldr	r2, [r2, #0]
 8001ba0:	f022 0201 	bic.w	r2, r2, #1
 8001ba4:	601a      	str	r2, [r3, #0]
 8001ba6:	683b      	ldr	r3, [r7, #0]
 8001ba8:	687a      	ldr	r2, [r7, #4]
 8001baa:	68b9      	ldr	r1, [r7, #8]
 8001bac:	68f8      	ldr	r0, [r7, #12]
 8001bae:	f000 f8d4 	bl	8001d5a <DMA_SetConfig>
 8001bb2:	68fb      	ldr	r3, [r7, #12]
 8001bb4:	6b1b      	ldr	r3, [r3, #48]	; 0x30
 8001bb6:	2b00      	cmp	r3, #0
 8001bb8:	d008      	beq.n	8001bcc <HAL_DMA_Start_IT+0x78>
 8001bba:	68fb      	ldr	r3, [r7, #12]
 8001bbc:	681b      	ldr	r3, [r3, #0]
 8001bbe:	68fa      	ldr	r2, [r7, #12]
 8001bc0:	6812      	ldr	r2, [r2, #0]
 8001bc2:	6812      	ldr	r2, [r2, #0]
 8001bc4:	f042 020e 	orr.w	r2, r2, #14
 8001bc8:	601a      	str	r2, [r3, #0]
 8001bca:	e00f      	b.n	8001bec <HAL_DMA_Start_IT+0x98>
 8001bcc:	68fb      	ldr	r3, [r7, #12]
 8001bce:	681b      	ldr	r3, [r3, #0]
 8001bd0:	68fa      	ldr	r2, [r7, #12]
 8001bd2:	6812      	ldr	r2, [r2, #0]
 8001bd4:	6812      	ldr	r2, [r2, #0]
 8001bd6:	f022 0204 	bic.w	r2, r2, #4
 8001bda:	601a      	str	r2, [r3, #0]
 8001bdc:	68fb      	ldr	r3, [r7, #12]
 8001bde:	681b      	ldr	r3, [r3, #0]
 8001be0:	68fa      	ldr	r2, [r7, #12]
 8001be2:	6812      	ldr	r2, [r2, #0]
 8001be4:	6812      	ldr	r2, [r2, #0]
 8001be6:	f042 020a 	orr.w	r2, r2, #10
 8001bea:	601a      	str	r2, [r3, #0]
 8001bec:	68fb      	ldr	r3, [r7, #12]
 8001bee:	681b      	ldr	r3, [r3, #0]
 8001bf0:	68fa      	ldr	r2, [r7, #12]
 8001bf2:	6812      	ldr	r2, [r2, #0]
 8001bf4:	6812      	ldr	r2, [r2, #0]
 8001bf6:	f042 0201 	orr.w	r2, r2, #1
 8001bfa:	601a      	str	r2, [r3, #0]
 8001bfc:	e005      	b.n	8001c0a <HAL_DMA_Start_IT+0xb6>
 8001bfe:	68fb      	ldr	r3, [r7, #12]
 8001c00:	2200      	movs	r2, #0
 8001c02:	f883 2024 	strb.w	r2, [r3, #36]	; 0x24
 8001c06:	2302      	movs	r3, #2
 8001c08:	75fb      	strb	r3, [r7, #23]
 8001c0a:	7dfb      	ldrb	r3, [r7, #23]
 8001c0c:	4618      	mov	r0, r3
 8001c0e:	3718      	adds	r7, #24
 8001c10:	46bd      	mov	sp, r7
 8001c12:	bd80      	pop	{r7, pc}

08001c14 <HAL_DMA_IRQHandler>:
 8001c14:	b580      	push	{r7, lr}
 8001c16:	b084      	sub	sp, #16
 8001c18:	af00      	add	r7, sp, #0
 8001c1a:	6078      	str	r0, [r7, #4]
 8001c1c:	687b      	ldr	r3, [r7, #4]
 8001c1e:	6c1b      	ldr	r3, [r3, #64]	; 0x40
 8001c20:	681b      	ldr	r3, [r3, #0]
 8001c22:	60fb      	str	r3, [r7, #12]
 8001c24:	687b      	ldr	r3, [r7, #4]
 8001c26:	681b      	ldr	r3, [r3, #0]
 8001c28:	681b      	ldr	r3, [r3, #0]
 8001c2a:	60bb      	str	r3, [r7, #8]
 8001c2c:	687b      	ldr	r3, [r7, #4]
 8001c2e:	6c5b      	ldr	r3, [r3, #68]	; 0x44
 8001c30:	2204      	movs	r2, #4
 8001c32:	409a      	lsls	r2, r3
 8001c34:	68fb      	ldr	r3, [r7, #12]
 8001c36:	4013      	ands	r3, r2
 8001c38:	2b00      	cmp	r3, #0
 8001c3a:	d024      	beq.n	8001c86 <HAL_DMA_IRQHandler+0x72>
 8001c3c:	68bb      	ldr	r3, [r7, #8]
 8001c3e:	f003 0304 	and.w	r3, r3, #4
 8001c42:	2b00      	cmp	r3, #0
 8001c44:	d01f      	beq.n	8001c86 <HAL_DMA_IRQHandler+0x72>
 8001c46:	687b      	ldr	r3, [r7, #4]
 8001c48:	681b      	ldr	r3, [r3, #0]
 8001c4a:	681b      	ldr	r3, [r3, #0]
 8001c4c:	f003 0320 	and.w	r3, r3, #32
 8001c50:	2b00      	cmp	r3, #0
 8001c52:	d107      	bne.n	8001c64 <HAL_DMA_IRQHandler+0x50>
 8001c54:	687b      	ldr	r3, [r7, #4]
 8001c56:	681b      	ldr	r3, [r3, #0]
 8001c58:	687a      	ldr	r2, [r7, #4]
 8001c5a:	6812      	ldr	r2, [r2, #0]
 8001c5c:	6812      	ldr	r2, [r2, #0]
 8001c5e:	f022 0204 	bic.w	r2, r2, #4
 8001c62:	601a      	str	r2, [r3, #0]
 8001c64:	687b      	ldr	r3, [r7, #4]
 8001c66:	6c1b      	ldr	r3, [r3, #64]	; 0x40
 8001c68:	687a      	ldr	r2, [r7, #4]
 8001c6a:	6c52      	ldr	r2, [r2, #68]	; 0x44
 8001c6c:	2104      	movs	r1, #4
 8001c6e:	fa01 f202 	lsl.w	r2, r1, r2
 8001c72:	605a      	str	r2, [r3, #4]
 8001c74:	687b      	ldr	r3, [r7, #4]
 8001c76:	6b1b      	ldr	r3, [r3, #48]	; 0x30
 8001c78:	2b00      	cmp	r3, #0
 8001c7a:	d069      	beq.n	8001d50 <HAL_DMA_IRQHandler+0x13c>
 8001c7c:	687b      	ldr	r3, [r7, #4]
 8001c7e:	6b1b      	ldr	r3, [r3, #48]	; 0x30
 8001c80:	6878      	ldr	r0, [r7, #4]
 8001c82:	4798      	blx	r3
 8001c84:	e064      	b.n	8001d50 <HAL_DMA_IRQHandler+0x13c>
 8001c86:	687b      	ldr	r3, [r7, #4]
 8001c88:	6c5b      	ldr	r3, [r3, #68]	; 0x44
 8001c8a:	2202      	movs	r2, #2
 8001c8c:	409a      	lsls	r2, r3
 8001c8e:	68fb      	ldr	r3, [r7, #12]
 8001c90:	4013      	ands	r3, r2
 8001c92:	2b00      	cmp	r3, #0
 8001c94:	d02c      	beq.n	8001cf0 <HAL_DMA_IRQHandler+0xdc>
 8001c96:	68bb      	ldr	r3, [r7, #8]
 8001c98:	f003 0302 	and.w	r3, r3, #2
 8001c9c:	2b00      	cmp	r3, #0
 8001c9e:	d027      	beq.n	8001cf0 <HAL_DMA_IRQHandler+0xdc>
 8001ca0:	687b      	ldr	r3, [r7, #4]
 8001ca2:	681b      	ldr	r3, [r3, #0]
 8001ca4:	681b      	ldr	r3, [r3, #0]
 8001ca6:	f003 0320 	and.w	r3, r3, #32
 8001caa:	2b00      	cmp	r3, #0
 8001cac:	d10b      	bne.n	8001cc6 <HAL_DMA_IRQHandler+0xb2>
 8001cae:	687b      	ldr	r3, [r7, #4]
 8001cb0:	681b      	ldr	r3, [r3, #0]
 8001cb2:	687a      	ldr	r2, [r7, #4]
 8001cb4:	6812      	ldr	r2, [r2, #0]
 8001cb6:	6812      	ldr	r2, [r2, #0]
 8001cb8:	f022 020a 	bic.w	r2, r2, #10
 8001cbc:	601a      	str	r2, [r3, #0]
 8001cbe:	687b      	ldr	r3, [r7, #4]
 8001cc0:	2201      	movs	r2, #1
 8001cc2:	f883 2025 	strb.w	r2, [r3, #37]	; 0x25
 8001cc6:	687b      	ldr	r3, [r7, #4]
 8001cc8:	6c1b      	ldr	r3, [r3, #64]	; 0x40
 8001cca:	687a      	ldr	r2, [r7, #4]
 8001ccc:	6c52      	ldr	r2, [r2, #68]	; 0x44
 8001cce:	2102      	movs	r1, #2
 8001cd0:	fa01 f202 	lsl.w	r2, r1, r2
 8001cd4:	605a      	str	r2, [r3, #4]
 8001cd6:	687b      	ldr	r3, [r7, #4]
 8001cd8:	2200      	movs	r2, #0
 8001cda:	f883 2024 	strb.w	r2, [r3, #36]	; 0x24
 8001cde:	687b      	ldr	r3, [r7, #4]
 8001ce0:	6adb      	ldr	r3, [r3, #44]	; 0x2c
 8001ce2:	2b00      	cmp	r3, #0
 8001ce4:	d034      	beq.n	8001d50 <HAL_DMA_IRQHandler+0x13c>
 8001ce6:	687b      	ldr	r3, [r7, #4]
 8001ce8:	6adb      	ldr	r3, [r3, #44]	; 0x2c
 8001cea:	6878      	ldr	r0, [r7, #4]
 8001cec:	4798      	blx	r3
 8001cee:	e02f      	b.n	8001d50 <HAL_DMA_IRQHandler+0x13c>
 8001cf0:	687b      	ldr	r3, [r7, #4]
 8001cf2:	6c5b      	ldr	r3, [r3, #68]	; 0x44
 8001cf4:	2208      	movs	r2, #8
 8001cf6:	409a      	lsls	r2, r3
 8001cf8:	68fb      	ldr	r3, [r7, #12]
 8001cfa:	4013      	ands	r3, r2
 8001cfc:	2b00      	cmp	r3, #0
 8001cfe:	d028      	beq.n	8001d52 <HAL_DMA_IRQHandler+0x13e>
 8001d00:	68bb      	ldr	r3, [r7, #8]
 8001d02:	f003 0308 	and.w	r3, r3, #8
 8001d06:	2b00      	cmp	r3, #0
 8001d08:	d023      	beq.n	8001d52 <HAL_DMA_IRQHandler+0x13e>
 8001d0a:	687b      	ldr	r3, [r7, #4]
 8001d0c:	681b      	ldr	r3, [r3, #0]
 8001d0e:	687a      	ldr	r2, [r7, #4]
 8001d10:	6812      	ldr	r2, [r2, #0]
 8001d12:	6812      	ldr	r2, [r2, #0]
 8001d14:	f022 020e 	bic.w	r2, r2, #14
 8001d18:	601a      	str	r2, [r3, #0]
 8001d1a:	687b      	ldr	r3, [r7, #4]
 8001d1c:	6c1b      	ldr	r3, [r3, #64]	; 0x40
 8001d1e:	687a      	ldr	r2, [r7, #4]
 8001d20:	6c52      	ldr	r2, [r2, #68]	; 0x44
 8001d22:	2101      	movs	r1, #1
 8001d24:	fa01 f202 	lsl.w	r2, r1, r2
 8001d28:	605a      	str	r2, [r3, #4]
 8001d2a:	687b      	ldr	r3, [r7, #4]
 8001d2c:	2201      	movs	r2, #1
 8001d2e:	63da      	str	r2, [r3, #60]	; 0x3c
 8001d30:	687b      	ldr	r3, [r7, #4]
 8001d32:	2201      	movs	r2, #1
 8001d34:	f883 2025 	strb.w	r2, [r3, #37]	; 0x25
 8001d38:	687b      	ldr	r3, [r7, #4]
 8001d3a:	2200      	movs	r2, #0
 8001d3c:	f883 2024 	strb.w	r2, [r3, #36]	; 0x24
 8001d40:	687b      	ldr	r3, [r7, #4]
 8001d42:	6b5b      	ldr	r3, [r3, #52]	; 0x34
 8001d44:	2b00      	cmp	r3, #0
 8001d46:	d004      	beq.n	8001d52 <HAL_DMA_IRQHandler+0x13e>
 8001d48:	687b      	ldr	r3, [r7, #4]
 8001d4a:	6b5b      	ldr	r3, [r3, #52]	; 0x34
 8001d4c:	6878      	ldr	r0, [r7, #4]
 8001d4e:	4798      	blx	r3
 8001d50:	bf00      	nop
 8001d52:	bf00      	nop
 8001d54:	3710      	adds	r7, #16
 8001d56:	46bd      	mov	sp, r7
 8001d58:	bd80      	pop	{r7, pc}

08001d5a <DMA_SetConfig>:
 8001d5a:	b480      	push	{r7}
 8001d5c:	b085      	sub	sp, #20
 8001d5e:	af00      	add	r7, sp, #0
 8001d60:	60f8      	str	r0, [r7, #12]
 8001d62:	60b9      	str	r1, [r7, #8]
 8001d64:	607a      	str	r2, [r7, #4]
 8001d66:	603b      	str	r3, [r7, #0]
 8001d68:	68fb      	ldr	r3, [r7, #12]
 8001d6a:	6c1b      	ldr	r3, [r3, #64]	; 0x40
 8001d6c:	68fa      	ldr	r2, [r7, #12]
 8001d6e:	6c52      	ldr	r2, [r2, #68]	; 0x44
 8001d70:	2101      	movs	r1, #1
 8001d72:	fa01 f202 	lsl.w	r2, r1, r2
 8001d76:	605a      	str	r2, [r3, #4]
 8001d78:	68fb      	ldr	r3, [r7, #12]
 8001d7a:	681b      	ldr	r3, [r3, #0]
 8001d7c:	683a      	ldr	r2, [r7, #0]
 8001d7e:	605a      	str	r2, [r3, #4]
 8001d80:	68fb      	ldr	r3, [r7, #12]
 8001d82:	689b      	ldr	r3, [r3, #8]
 8001d84:	2b10      	cmp	r3, #16
 8001d86:	d108      	bne.n	8001d9a <DMA_SetConfig+0x40>
 8001d88:	68fb      	ldr	r3, [r7, #12]
 8001d8a:	681b      	ldr	r3, [r3, #0]
 8001d8c:	687a      	ldr	r2, [r7, #4]
 8001d8e:	609a      	str	r2, [r3, #8]
 8001d90:	68fb      	ldr	r3, [r7, #12]
 8001d92:	681b      	ldr	r3, [r3, #0]
 8001d94:	68ba      	ldr	r2, [r7, #8]
 8001d96:	60da      	str	r2, [r3, #12]
 8001d98:	e007      	b.n	8001daa <DMA_SetConfig+0x50>
 8001d9a:	68fb      	ldr	r3, [r7, #12]
 8001d9c:	681b      	ldr	r3, [r3, #0]
 8001d9e:	68ba      	ldr	r2, [r7, #8]
 8001da0:	609a      	str	r2, [r3, #8]
 8001da2:	68fb      	ldr	r3, [r7, #12]
 8001da4:	681b      	ldr	r3, [r3, #0]
 8001da6:	687a      	ldr	r2, [r7, #4]
 8001da8:	60da      	str	r2, [r3, #12]
 8001daa:	bf00      	nop
 8001dac:	3714      	adds	r7, #20
 8001dae:	46bd      	mov	sp, r7
 8001db0:	f85d 7b04 	ldr.w	r7, [sp], #4
 8001db4:	4770      	bx	lr
	...

08001db8 <HAL_GPIO_Init>:
 8001db8:	b480      	push	{r7}
 8001dba:	b087      	sub	sp, #28
 8001dbc:	af00      	add	r7, sp, #0
 8001dbe:	6078      	str	r0, [r7, #4]
 8001dc0:	6039      	str	r1, [r7, #0]
 8001dc2:	2300      	movs	r3, #0
 8001dc4:	617b      	str	r3, [r7, #20]
 8001dc6:	2300      	movs	r3, #0
 8001dc8:	60fb      	str	r3, [r7, #12]
 8001dca:	2300      	movs	r3, #0
 8001dcc:	613b      	str	r3, [r7, #16]
 8001dce:	e17f      	b.n	80020d0 <HAL_GPIO_Init+0x318>
 8001dd0:	683b      	ldr	r3, [r7, #0]
 8001dd2:	681a      	ldr	r2, [r3, #0]
 8001dd4:	2101      	movs	r1, #1
 8001dd6:	697b      	ldr	r3, [r7, #20]
 8001dd8:	fa01 f303 	lsl.w	r3, r1, r3
 8001ddc:	4013      	ands	r3, r2
 8001dde:	60fb      	str	r3, [r7, #12]
 8001de0:	68fb      	ldr	r3, [r7, #12]
 8001de2:	2b00      	cmp	r3, #0
 8001de4:	f000 8171 	beq.w	80020ca <HAL_GPIO_Init+0x312>
 8001de8:	683b      	ldr	r3, [r7, #0]
 8001dea:	685b      	ldr	r3, [r3, #4]
 8001dec:	2b02      	cmp	r3, #2
 8001dee:	d003      	beq.n	8001df8 <HAL_GPIO_Init+0x40>
 8001df0:	683b      	ldr	r3, [r7, #0]
 8001df2:	685b      	ldr	r3, [r3, #4]
 8001df4:	2b12      	cmp	r3, #18
 8001df6:	d123      	bne.n	8001e40 <HAL_GPIO_Init+0x88>
 8001df8:	697b      	ldr	r3, [r7, #20]
 8001dfa:	08da      	lsrs	r2, r3, #3
 8001dfc:	687b      	ldr	r3, [r7, #4]
 8001dfe:	3208      	adds	r2, #8
 8001e00:	f853 3022 	ldr.w	r3, [r3, r2, lsl #2]
 8001e04:	613b      	str	r3, [r7, #16]
 8001e06:	697b      	ldr	r3, [r7, #20]
 8001e08:	f003 0307 	and.w	r3, r3, #7
 8001e0c:	009b      	lsls	r3, r3, #2
 8001e0e:	220f      	movs	r2, #15
 8001e10:	fa02 f303 	lsl.w	r3, r2, r3
 8001e14:	43db      	mvns	r3, r3
 8001e16:	693a      	ldr	r2, [r7, #16]
 8001e18:	4013      	ands	r3, r2
 8001e1a:	613b      	str	r3, [r7, #16]
 8001e1c:	683b      	ldr	r3, [r7, #0]
 8001e1e:	691a      	ldr	r2, [r3, #16]
 8001e20:	697b      	ldr	r3, [r7, #20]
 8001e22:	f003 0307 	and.w	r3, r3, #7
 8001e26:	009b      	lsls	r3, r3, #2
 8001e28:	fa02 f303 	lsl.w	r3, r2, r3
 8001e2c:	693a      	ldr	r2, [r7, #16]
 8001e2e:	4313      	orrs	r3, r2
 8001e30:	613b      	str	r3, [r7, #16]
 8001e32:	697b      	ldr	r3, [r7, #20]
 8001e34:	08da      	lsrs	r2, r3, #3
 8001e36:	687b      	ldr	r3, [r7, #4]
 8001e38:	3208      	adds	r2, #8
 8001e3a:	6939      	ldr	r1, [r7, #16]
 8001e3c:	f843 1022 	str.w	r1, [r3, r2, lsl #2]
 8001e40:	687b      	ldr	r3, [r7, #4]
 8001e42:	681b      	ldr	r3, [r3, #0]
 8001e44:	613b      	str	r3, [r7, #16]
 8001e46:	697b      	ldr	r3, [r7, #20]
 8001e48:	005b      	lsls	r3, r3, #1
 8001e4a:	2203      	movs	r2, #3
 8001e4c:	fa02 f303 	lsl.w	r3, r2, r3
 8001e50:	43db      	mvns	r3, r3
 8001e52:	693a      	ldr	r2, [r7, #16]
 8001e54:	4013      	ands	r3, r2
 8001e56:	613b      	str	r3, [r7, #16]
 8001e58:	683b      	ldr	r3, [r7, #0]
 8001e5a:	685b      	ldr	r3, [r3, #4]
 8001e5c:	f003 0203 	and.w	r2, r3, #3
 8001e60:	697b      	ldr	r3, [r7, #20]
 8001e62:	005b      	lsls	r3, r3, #1
 8001e64:	fa02 f303 	lsl.w	r3, r2, r3
 8001e68:	693a      	ldr	r2, [r7, #16]
 8001e6a:	4313      	orrs	r3, r2
 8001e6c:	613b      	str	r3, [r7, #16]
 8001e6e:	687b      	ldr	r3, [r7, #4]
 8001e70:	693a      	ldr	r2, [r7, #16]
 8001e72:	601a      	str	r2, [r3, #0]
 8001e74:	683b      	ldr	r3, [r7, #0]
 8001e76:	685b      	ldr	r3, [r3, #4]
 8001e78:	2b01      	cmp	r3, #1
 8001e7a:	d00b      	beq.n	8001e94 <HAL_GPIO_Init+0xdc>
 8001e7c:	683b      	ldr	r3, [r7, #0]
 8001e7e:	685b      	ldr	r3, [r3, #4]
 8001e80:	2b02      	cmp	r3, #2
 8001e82:	d007      	beq.n	8001e94 <HAL_GPIO_Init+0xdc>
 8001e84:	683b      	ldr	r3, [r7, #0]
 8001e86:	685b      	ldr	r3, [r3, #4]
 8001e88:	2b11      	cmp	r3, #17
 8001e8a:	d003      	beq.n	8001e94 <HAL_GPIO_Init+0xdc>
 8001e8c:	683b      	ldr	r3, [r7, #0]
 8001e8e:	685b      	ldr	r3, [r3, #4]
 8001e90:	2b12      	cmp	r3, #18
 8001e92:	d130      	bne.n	8001ef6 <HAL_GPIO_Init+0x13e>
 8001e94:	687b      	ldr	r3, [r7, #4]
 8001e96:	689b      	ldr	r3, [r3, #8]
 8001e98:	613b      	str	r3, [r7, #16]
 8001e9a:	697b      	ldr	r3, [r7, #20]
 8001e9c:	005b      	lsls	r3, r3, #1
 8001e9e:	2203      	movs	r2, #3
 8001ea0:	fa02 f303 	lsl.w	r3, r2, r3
 8001ea4:	43db      	mvns	r3, r3
 8001ea6:	693a      	ldr	r2, [r7, #16]
 8001ea8:	4013      	ands	r3, r2
 8001eaa:	613b      	str	r3, [r7, #16]
 8001eac:	683b      	ldr	r3, [r7, #0]
 8001eae:	68da      	ldr	r2, [r3, #12]
 8001eb0:	697b      	ldr	r3, [r7, #20]
 8001eb2:	005b      	lsls	r3, r3, #1
 8001eb4:	fa02 f303 	lsl.w	r3, r2, r3
 8001eb8:	693a      	ldr	r2, [r7, #16]
 8001eba:	4313      	orrs	r3, r2
 8001ebc:	613b      	str	r3, [r7, #16]
 8001ebe:	687b      	ldr	r3, [r7, #4]
 8001ec0:	693a      	ldr	r2, [r7, #16]
 8001ec2:	609a      	str	r2, [r3, #8]
 8001ec4:	687b      	ldr	r3, [r7, #4]
 8001ec6:	685b      	ldr	r3, [r3, #4]
 8001ec8:	613b      	str	r3, [r7, #16]
 8001eca:	2201      	movs	r2, #1
 8001ecc:	697b      	ldr	r3, [r7, #20]
 8001ece:	fa02 f303 	lsl.w	r3, r2, r3
 8001ed2:	43db      	mvns	r3, r3
 8001ed4:	693a      	ldr	r2, [r7, #16]
 8001ed6:	4013      	ands	r3, r2
 8001ed8:	613b      	str	r3, [r7, #16]
 8001eda:	683b      	ldr	r3, [r7, #0]
 8001edc:	685b      	ldr	r3, [r3, #4]
 8001ede:	091b      	lsrs	r3, r3, #4
 8001ee0:	f003 0201 	and.w	r2, r3, #1
 8001ee4:	697b      	ldr	r3, [r7, #20]
 8001ee6:	fa02 f303 	lsl.w	r3, r2, r3
 8001eea:	693a      	ldr	r2, [r7, #16]
 8001eec:	4313      	orrs	r3, r2
 8001eee:	613b      	str	r3, [r7, #16]
 8001ef0:	687b      	ldr	r3, [r7, #4]
 8001ef2:	693a      	ldr	r2, [r7, #16]
 8001ef4:	605a      	str	r2, [r3, #4]
 8001ef6:	683b      	ldr	r3, [r7, #0]
 8001ef8:	685b      	ldr	r3, [r3, #4]
 8001efa:	f003 0303 	and.w	r3, r3, #3
 8001efe:	2b03      	cmp	r3, #3
 8001f00:	d118      	bne.n	8001f34 <HAL_GPIO_Init+0x17c>
 8001f02:	687b      	ldr	r3, [r7, #4]
 8001f04:	6adb      	ldr	r3, [r3, #44]	; 0x2c
 8001f06:	613b      	str	r3, [r7, #16]
 8001f08:	2201      	movs	r2, #1
 8001f0a:	697b      	ldr	r3, [r7, #20]
 8001f0c:	fa02 f303 	lsl.w	r3, r2, r3
 8001f10:	43db      	mvns	r3, r3
 8001f12:	693a      	ldr	r2, [r7, #16]
 8001f14:	4013      	ands	r3, r2
 8001f16:	613b      	str	r3, [r7, #16]
 8001f18:	683b      	ldr	r3, [r7, #0]
 8001f1a:	685b      	ldr	r3, [r3, #4]
 8001f1c:	08db      	lsrs	r3, r3, #3
 8001f1e:	f003 0201 	and.w	r2, r3, #1
 8001f22:	697b      	ldr	r3, [r7, #20]
 8001f24:	fa02 f303 	lsl.w	r3, r2, r3
 8001f28:	693a      	ldr	r2, [r7, #16]
 8001f2a:	4313      	orrs	r3, r2
 8001f2c:	613b      	str	r3, [r7, #16]
 8001f2e:	687b      	ldr	r3, [r7, #4]
 8001f30:	693a      	ldr	r2, [r7, #16]
 8001f32:	62da      	str	r2, [r3, #44]	; 0x2c
 8001f34:	687b      	ldr	r3, [r7, #4]
 8001f36:	68db      	ldr	r3, [r3, #12]
 8001f38:	613b      	str	r3, [r7, #16]
 8001f3a:	697b      	ldr	r3, [r7, #20]
 8001f3c:	005b      	lsls	r3, r3, #1
 8001f3e:	2203      	movs	r2, #3
 8001f40:	fa02 f303 	lsl.w	r3, r2, r3
 8001f44:	43db      	mvns	r3, r3
 8001f46:	693a      	ldr	r2, [r7, #16]
 8001f48:	4013      	ands	r3, r2
 8001f4a:	613b      	str	r3, [r7, #16]
 8001f4c:	683b      	ldr	r3, [r7, #0]
 8001f4e:	689a      	ldr	r2, [r3, #8]
 8001f50:	697b      	ldr	r3, [r7, #20]
 8001f52:	005b      	lsls	r3, r3, #1
 8001f54:	fa02 f303 	lsl.w	r3, r2, r3
 8001f58:	693a      	ldr	r2, [r7, #16]
 8001f5a:	4313      	orrs	r3, r2
 8001f5c:	613b      	str	r3, [r7, #16]
 8001f5e:	687b      	ldr	r3, [r7, #4]
 8001f60:	693a      	ldr	r2, [r7, #16]
 8001f62:	60da      	str	r2, [r3, #12]
 8001f64:	683b      	ldr	r3, [r7, #0]
 8001f66:	685b      	ldr	r3, [r3, #4]
 8001f68:	f003 5380 	and.w	r3, r3, #268435456	; 0x10000000
 8001f6c:	2b00      	cmp	r3, #0
 8001f6e:	f000 80ac 	beq.w	80020ca <HAL_GPIO_Init+0x312>
 8001f72:	4a5e      	ldr	r2, [pc, #376]	; (80020ec <HAL_GPIO_Init+0x334>)
 8001f74:	4b5d      	ldr	r3, [pc, #372]	; (80020ec <HAL_GPIO_Init+0x334>)
 8001f76:	6e1b      	ldr	r3, [r3, #96]	; 0x60
 8001f78:	f043 0301 	orr.w	r3, r3, #1
 8001f7c:	6613      	str	r3, [r2, #96]	; 0x60
 8001f7e:	4b5b      	ldr	r3, [pc, #364]	; (80020ec <HAL_GPIO_Init+0x334>)
 8001f80:	6e1b      	ldr	r3, [r3, #96]	; 0x60
 8001f82:	f003 0301 	and.w	r3, r3, #1
 8001f86:	60bb      	str	r3, [r7, #8]
 8001f88:	68bb      	ldr	r3, [r7, #8]
 8001f8a:	4a59      	ldr	r2, [pc, #356]	; (80020f0 <HAL_GPIO_Init+0x338>)
 8001f8c:	697b      	ldr	r3, [r7, #20]
 8001f8e:	089b      	lsrs	r3, r3, #2
 8001f90:	3302      	adds	r3, #2
 8001f92:	f852 3023 	ldr.w	r3, [r2, r3, lsl #2]
 8001f96:	613b      	str	r3, [r7, #16]
 8001f98:	697b      	ldr	r3, [r7, #20]
 8001f9a:	f003 0303 	and.w	r3, r3, #3
 8001f9e:	009b      	lsls	r3, r3, #2
 8001fa0:	220f      	movs	r2, #15
 8001fa2:	fa02 f303 	lsl.w	r3, r2, r3
 8001fa6:	43db      	mvns	r3, r3
 8001fa8:	693a      	ldr	r2, [r7, #16]
 8001faa:	4013      	ands	r3, r2
 8001fac:	613b      	str	r3, [r7, #16]
 8001fae:	687b      	ldr	r3, [r7, #4]
 8001fb0:	f1b3 4f90 	cmp.w	r3, #1207959552	; 0x48000000
 8001fb4:	d025      	beq.n	8002002 <HAL_GPIO_Init+0x24a>
 8001fb6:	687b      	ldr	r3, [r7, #4]
 8001fb8:	4a4e      	ldr	r2, [pc, #312]	; (80020f4 <HAL_GPIO_Init+0x33c>)
 8001fba:	4293      	cmp	r3, r2
 8001fbc:	d01f      	beq.n	8001ffe <HAL_GPIO_Init+0x246>
 8001fbe:	687b      	ldr	r3, [r7, #4]
 8001fc0:	4a4d      	ldr	r2, [pc, #308]	; (80020f8 <HAL_GPIO_Init+0x340>)
 8001fc2:	4293      	cmp	r3, r2
 8001fc4:	d019      	beq.n	8001ffa <HAL_GPIO_Init+0x242>
 8001fc6:	687b      	ldr	r3, [r7, #4]
 8001fc8:	4a4c      	ldr	r2, [pc, #304]	; (80020fc <HAL_GPIO_Init+0x344>)
 8001fca:	4293      	cmp	r3, r2
 8001fcc:	d013      	beq.n	8001ff6 <HAL_GPIO_Init+0x23e>
 8001fce:	687b      	ldr	r3, [r7, #4]
 8001fd0:	4a4b      	ldr	r2, [pc, #300]	; (8002100 <HAL_GPIO_Init+0x348>)
 8001fd2:	4293      	cmp	r3, r2
 8001fd4:	d00d      	beq.n	8001ff2 <HAL_GPIO_Init+0x23a>
 8001fd6:	687b      	ldr	r3, [r7, #4]
 8001fd8:	4a4a      	ldr	r2, [pc, #296]	; (8002104 <HAL_GPIO_Init+0x34c>)
 8001fda:	4293      	cmp	r3, r2
 8001fdc:	d007      	beq.n	8001fee <HAL_GPIO_Init+0x236>
 8001fde:	687b      	ldr	r3, [r7, #4]
 8001fe0:	4a49      	ldr	r2, [pc, #292]	; (8002108 <HAL_GPIO_Init+0x350>)
 8001fe2:	4293      	cmp	r3, r2
 8001fe4:	d101      	bne.n	8001fea <HAL_GPIO_Init+0x232>
 8001fe6:	2306      	movs	r3, #6
 8001fe8:	e00c      	b.n	8002004 <HAL_GPIO_Init+0x24c>
 8001fea:	2307      	movs	r3, #7
 8001fec:	e00a      	b.n	8002004 <HAL_GPIO_Init+0x24c>
 8001fee:	2305      	movs	r3, #5
 8001ff0:	e008      	b.n	8002004 <HAL_GPIO_Init+0x24c>
 8001ff2:	2304      	movs	r3, #4
 8001ff4:	e006      	b.n	8002004 <HAL_GPIO_Init+0x24c>
 8001ff6:	2303      	movs	r3, #3
 8001ff8:	e004      	b.n	8002004 <HAL_GPIO_Init+0x24c>
 8001ffa:	2302      	movs	r3, #2
 8001ffc:	e002      	b.n	8002004 <HAL_GPIO_Init+0x24c>
 8001ffe:	2301      	movs	r3, #1
 8002000:	e000      	b.n	8002004 <HAL_GPIO_Init+0x24c>
 8002002:	2300      	movs	r3, #0
 8002004:	697a      	ldr	r2, [r7, #20]
 8002006:	f002 0203 	and.w	r2, r2, #3
 800200a:	0092      	lsls	r2, r2, #2
 800200c:	4093      	lsls	r3, r2
 800200e:	693a      	ldr	r2, [r7, #16]
 8002010:	4313      	orrs	r3, r2
 8002012:	613b      	str	r3, [r7, #16]
 8002014:	4936      	ldr	r1, [pc, #216]	; (80020f0 <HAL_GPIO_Init+0x338>)
 8002016:	697b      	ldr	r3, [r7, #20]
 8002018:	089b      	lsrs	r3, r3, #2
 800201a:	3302      	adds	r3, #2
 800201c:	693a      	ldr	r2, [r7, #16]
 800201e:	f841 2023 	str.w	r2, [r1, r3, lsl #2]
 8002022:	4b3a      	ldr	r3, [pc, #232]	; (800210c <HAL_GPIO_Init+0x354>)
 8002024:	681b      	ldr	r3, [r3, #0]
 8002026:	613b      	str	r3, [r7, #16]
 8002028:	68fb      	ldr	r3, [r7, #12]
 800202a:	43db      	mvns	r3, r3
 800202c:	693a      	ldr	r2, [r7, #16]
 800202e:	4013      	ands	r3, r2
 8002030:	613b      	str	r3, [r7, #16]
 8002032:	683b      	ldr	r3, [r7, #0]
 8002034:	685b      	ldr	r3, [r3, #4]
 8002036:	f403 3380 	and.w	r3, r3, #65536	; 0x10000
 800203a:	2b00      	cmp	r3, #0
 800203c:	d003      	beq.n	8002046 <HAL_GPIO_Init+0x28e>
 800203e:	693a      	ldr	r2, [r7, #16]
 8002040:	68fb      	ldr	r3, [r7, #12]
 8002042:	4313      	orrs	r3, r2
 8002044:	613b      	str	r3, [r7, #16]
 8002046:	4a31      	ldr	r2, [pc, #196]	; (800210c <HAL_GPIO_Init+0x354>)
 8002048:	693b      	ldr	r3, [r7, #16]
 800204a:	6013      	str	r3, [r2, #0]
 800204c:	4b2f      	ldr	r3, [pc, #188]	; (800210c <HAL_GPIO_Init+0x354>)
 800204e:	685b      	ldr	r3, [r3, #4]
 8002050:	613b      	str	r3, [r7, #16]
 8002052:	68fb      	ldr	r3, [r7, #12]
 8002054:	43db      	mvns	r3, r3
 8002056:	693a      	ldr	r2, [r7, #16]
 8002058:	4013      	ands	r3, r2
 800205a:	613b      	str	r3, [r7, #16]
 800205c:	683b      	ldr	r3, [r7, #0]
 800205e:	685b      	ldr	r3, [r3, #4]
 8002060:	f403 3300 	and.w	r3, r3, #131072	; 0x20000
 8002064:	2b00      	cmp	r3, #0
 8002066:	d003      	beq.n	8002070 <HAL_GPIO_Init+0x2b8>
 8002068:	693a      	ldr	r2, [r7, #16]
 800206a:	68fb      	ldr	r3, [r7, #12]
 800206c:	4313      	orrs	r3, r2
 800206e:	613b      	str	r3, [r7, #16]
 8002070:	4a26      	ldr	r2, [pc, #152]	; (800210c <HAL_GPIO_Init+0x354>)
 8002072:	693b      	ldr	r3, [r7, #16]
 8002074:	6053      	str	r3, [r2, #4]
 8002076:	4b25      	ldr	r3, [pc, #148]	; (800210c <HAL_GPIO_Init+0x354>)
 8002078:	689b      	ldr	r3, [r3, #8]
 800207a:	613b      	str	r3, [r7, #16]
 800207c:	68fb      	ldr	r3, [r7, #12]
 800207e:	43db      	mvns	r3, r3
 8002080:	693a      	ldr	r2, [r7, #16]
 8002082:	4013      	ands	r3, r2
 8002084:	613b      	str	r3, [r7, #16]
 8002086:	683b      	ldr	r3, [r7, #0]
 8002088:	685b      	ldr	r3, [r3, #4]
 800208a:	f403 1380 	and.w	r3, r3, #1048576	; 0x100000
 800208e:	2b00      	cmp	r3, #0
 8002090:	d003      	beq.n	800209a <HAL_GPIO_Init+0x2e2>
 8002092:	693a      	ldr	r2, [r7, #16]
 8002094:	68fb      	ldr	r3, [r7, #12]
 8002096:	4313      	orrs	r3, r2
 8002098:	613b      	str	r3, [r7, #16]
 800209a:	4a1c      	ldr	r2, [pc, #112]	; (800210c <HAL_GPIO_Init+0x354>)
 800209c:	693b      	ldr	r3, [r7, #16]
 800209e:	6093      	str	r3, [r2, #8]
 80020a0:	4b1a      	ldr	r3, [pc, #104]	; (800210c <HAL_GPIO_Init+0x354>)
 80020a2:	68db      	ldr	r3, [r3, #12]
 80020a4:	613b      	str	r3, [r7, #16]
 80020a6:	68fb      	ldr	r3, [r7, #12]
 80020a8:	43db      	mvns	r3, r3
 80020aa:	693a      	ldr	r2, [r7, #16]
 80020ac:	4013      	ands	r3, r2
 80020ae:	613b      	str	r3, [r7, #16]
 80020b0:	683b      	ldr	r3, [r7, #0]
 80020b2:	685b      	ldr	r3, [r3, #4]
 80020b4:	f403 1300 	and.w	r3, r3, #2097152	; 0x200000
 80020b8:	2b00      	cmp	r3, #0
 80020ba:	d003      	beq.n	80020c4 <HAL_GPIO_Init+0x30c>
 80020bc:	693a      	ldr	r2, [r7, #16]
 80020be:	68fb      	ldr	r3, [r7, #12]
 80020c0:	4313      	orrs	r3, r2
 80020c2:	613b      	str	r3, [r7, #16]
 80020c4:	4a11      	ldr	r2, [pc, #68]	; (800210c <HAL_GPIO_Init+0x354>)
 80020c6:	693b      	ldr	r3, [r7, #16]
 80020c8:	60d3      	str	r3, [r2, #12]
 80020ca:	697b      	ldr	r3, [r7, #20]
 80020cc:	3301      	adds	r3, #1
 80020ce:	617b      	str	r3, [r7, #20]
 80020d0:	683b      	ldr	r3, [r7, #0]
 80020d2:	681a      	ldr	r2, [r3, #0]
 80020d4:	697b      	ldr	r3, [r7, #20]
 80020d6:	fa22 f303 	lsr.w	r3, r2, r3
 80020da:	2b00      	cmp	r3, #0
 80020dc:	f47f ae78 	bne.w	8001dd0 <HAL_GPIO_Init+0x18>
 80020e0:	bf00      	nop
 80020e2:	371c      	adds	r7, #28
 80020e4:	46bd      	mov	sp, r7
 80020e6:	f85d 7b04 	ldr.w	r7, [sp], #4
 80020ea:	4770      	bx	lr
 80020ec:	40021000 	.word	0x40021000
 80020f0:	40010000 	.word	0x40010000
 80020f4:	48000400 	.word	0x48000400
 80020f8:	48000800 	.word	0x48000800
 80020fc:	48000c00 	.word	0x48000c00
 8002100:	48001000 	.word	0x48001000
 8002104:	48001400 	.word	0x48001400
 8002108:	48001800 	.word	0x48001800
 800210c:	40010400 	.word	0x40010400

08002110 <HAL_GPIO_WritePin>:
 8002110:	b480      	push	{r7}
 8002112:	b083      	sub	sp, #12
 8002114:	af00      	add	r7, sp, #0
 8002116:	6078      	str	r0, [r7, #4]
 8002118:	460b      	mov	r3, r1
 800211a:	807b      	strh	r3, [r7, #2]
 800211c:	4613      	mov	r3, r2
 800211e:	707b      	strb	r3, [r7, #1]
 8002120:	787b      	ldrb	r3, [r7, #1]
 8002122:	2b00      	cmp	r3, #0
 8002124:	d003      	beq.n	800212e <HAL_GPIO_WritePin+0x1e>
 8002126:	887a      	ldrh	r2, [r7, #2]
 8002128:	687b      	ldr	r3, [r7, #4]
 800212a:	619a      	str	r2, [r3, #24]
 800212c:	e002      	b.n	8002134 <HAL_GPIO_WritePin+0x24>
 800212e:	887a      	ldrh	r2, [r7, #2]
 8002130:	687b      	ldr	r3, [r7, #4]
 8002132:	629a      	str	r2, [r3, #40]	; 0x28
 8002134:	bf00      	nop
 8002136:	370c      	adds	r7, #12
 8002138:	46bd      	mov	sp, r7
 800213a:	f85d 7b04 	ldr.w	r7, [sp], #4
 800213e:	4770      	bx	lr

08002140 <HAL_PWREx_GetVoltageRange>:
 8002140:	b480      	push	{r7}
 8002142:	af00      	add	r7, sp, #0
 8002144:	4b04      	ldr	r3, [pc, #16]	; (8002158 <HAL_PWREx_GetVoltageRange+0x18>)
 8002146:	681b      	ldr	r3, [r3, #0]
 8002148:	f403 63c0 	and.w	r3, r3, #1536	; 0x600
 800214c:	4618      	mov	r0, r3
 800214e:	46bd      	mov	sp, r7
 8002150:	f85d 7b04 	ldr.w	r7, [sp], #4
 8002154:	4770      	bx	lr
 8002156:	bf00      	nop
 8002158:	40007000 	.word	0x40007000

0800215c <HAL_PWREx_ControlVoltageScaling>:
 800215c:	b480      	push	{r7}
 800215e:	b085      	sub	sp, #20
 8002160:	af00      	add	r7, sp, #0
 8002162:	6078      	str	r0, [r7, #4]
 8002164:	2300      	movs	r3, #0
 8002166:	60fb      	str	r3, [r7, #12]
 8002168:	687b      	ldr	r3, [r7, #4]
 800216a:	f5b3 7f00 	cmp.w	r3, #512	; 0x200
 800216e:	d12f      	bne.n	80021d0 <HAL_PWREx_ControlVoltageScaling+0x74>
 8002170:	4b22      	ldr	r3, [pc, #136]	; (80021fc <HAL_PWREx_ControlVoltageScaling+0xa0>)
 8002172:	681b      	ldr	r3, [r3, #0]
 8002174:	f403 63c0 	and.w	r3, r3, #1536	; 0x600
 8002178:	f5b3 7f00 	cmp.w	r3, #512	; 0x200
 800217c:	d037      	beq.n	80021ee <HAL_PWREx_ControlVoltageScaling+0x92>
 800217e:	4a1f      	ldr	r2, [pc, #124]	; (80021fc <HAL_PWREx_ControlVoltageScaling+0xa0>)
 8002180:	4b1e      	ldr	r3, [pc, #120]	; (80021fc <HAL_PWREx_ControlVoltageScaling+0xa0>)
 8002182:	681b      	ldr	r3, [r3, #0]
 8002184:	f423 63c0 	bic.w	r3, r3, #1536	; 0x600
 8002188:	f443 7300 	orr.w	r3, r3, #512	; 0x200
 800218c:	6013      	str	r3, [r2, #0]
 800218e:	4b1c      	ldr	r3, [pc, #112]	; (8002200 <HAL_PWREx_ControlVoltageScaling+0xa4>)
 8002190:	681b      	ldr	r3, [r3, #0]
 8002192:	4a1c      	ldr	r2, [pc, #112]	; (8002204 <HAL_PWREx_ControlVoltageScaling+0xa8>)
 8002194:	fba2 2303 	umull	r2, r3, r2, r3
 8002198:	0c9b      	lsrs	r3, r3, #18
 800219a:	2232      	movs	r2, #50	; 0x32
 800219c:	fb02 f303 	mul.w	r3, r2, r3
 80021a0:	60fb      	str	r3, [r7, #12]
 80021a2:	e002      	b.n	80021aa <HAL_PWREx_ControlVoltageScaling+0x4e>
 80021a4:	68fb      	ldr	r3, [r7, #12]
 80021a6:	3b01      	subs	r3, #1
 80021a8:	60fb      	str	r3, [r7, #12]
 80021aa:	68fb      	ldr	r3, [r7, #12]
 80021ac:	2b00      	cmp	r3, #0
 80021ae:	d006      	beq.n	80021be <HAL_PWREx_ControlVoltageScaling+0x62>
 80021b0:	4b12      	ldr	r3, [pc, #72]	; (80021fc <HAL_PWREx_ControlVoltageScaling+0xa0>)
 80021b2:	695b      	ldr	r3, [r3, #20]
 80021b4:	f403 6380 	and.w	r3, r3, #1024	; 0x400
 80021b8:	f5b3 6f80 	cmp.w	r3, #1024	; 0x400
 80021bc:	d0f2      	beq.n	80021a4 <HAL_PWREx_ControlVoltageScaling+0x48>
 80021be:	4b0f      	ldr	r3, [pc, #60]	; (80021fc <HAL_PWREx_ControlVoltageScaling+0xa0>)
 80021c0:	695b      	ldr	r3, [r3, #20]
 80021c2:	f403 6380 	and.w	r3, r3, #1024	; 0x400
 80021c6:	f5b3 6f80 	cmp.w	r3, #1024	; 0x400
 80021ca:	d110      	bne.n	80021ee <HAL_PWREx_ControlVoltageScaling+0x92>
 80021cc:	2303      	movs	r3, #3
 80021ce:	e00f      	b.n	80021f0 <HAL_PWREx_ControlVoltageScaling+0x94>
 80021d0:	4b0a      	ldr	r3, [pc, #40]	; (80021fc <HAL_PWREx_ControlVoltageScaling+0xa0>)
 80021d2:	681b      	ldr	r3, [r3, #0]
 80021d4:	f403 63c0 	and.w	r3, r3, #1536	; 0x600
 80021d8:	f5b3 6f80 	cmp.w	r3, #1024	; 0x400
 80021dc:	d007      	beq.n	80021ee <HAL_PWREx_ControlVoltageScaling+0x92>
 80021de:	4a07      	ldr	r2, [pc, #28]	; (80021fc <HAL_PWREx_ControlVoltageScaling+0xa0>)
 80021e0:	4b06      	ldr	r3, [pc, #24]	; (80021fc <HAL_PWREx_ControlVoltageScaling+0xa0>)
 80021e2:	681b      	ldr	r3, [r3, #0]
 80021e4:	f423 63c0 	bic.w	r3, r3, #1536	; 0x600
 80021e8:	f443 6380 	orr.w	r3, r3, #1024	; 0x400
 80021ec:	6013      	str	r3, [r2, #0]
 80021ee:	2300      	movs	r3, #0
 80021f0:	4618      	mov	r0, r3
 80021f2:	3714      	adds	r7, #20
 80021f4:	46bd      	mov	sp, r7
 80021f6:	f85d 7b04 	ldr.w	r7, [sp], #4
 80021fa:	4770      	bx	lr
 80021fc:	40007000 	.word	0x40007000
 8002200:	20000004 	.word	0x20000004
 8002204:	431bde83 	.word	0x431bde83

08002208 <HAL_RCC_OscConfig>:
 8002208:	b580      	push	{r7, lr}
 800220a:	b086      	sub	sp, #24
 800220c:	af00      	add	r7, sp, #0
 800220e:	6078      	str	r0, [r7, #4]
 8002210:	2300      	movs	r3, #0
 8002212:	613b      	str	r3, [r7, #16]
 8002214:	687b      	ldr	r3, [r7, #4]
 8002216:	681b      	ldr	r3, [r3, #0]
 8002218:	f003 0310 	and.w	r3, r3, #16
 800221c:	2b00      	cmp	r3, #0
 800221e:	f000 80d0 	beq.w	80023c2 <HAL_RCC_OscConfig+0x1ba>
 8002222:	4ba1      	ldr	r3, [pc, #644]	; (80024a8 <HAL_RCC_OscConfig+0x2a0>)
 8002224:	689b      	ldr	r3, [r3, #8]
 8002226:	f003 030c 	and.w	r3, r3, #12
 800222a:	2b00      	cmp	r3, #0
 800222c:	d179      	bne.n	8002322 <HAL_RCC_OscConfig+0x11a>
 800222e:	4b9e      	ldr	r3, [pc, #632]	; (80024a8 <HAL_RCC_OscConfig+0x2a0>)
 8002230:	681b      	ldr	r3, [r3, #0]
 8002232:	f003 0302 	and.w	r3, r3, #2
 8002236:	2b00      	cmp	r3, #0
 8002238:	d005      	beq.n	8002246 <HAL_RCC_OscConfig+0x3e>
 800223a:	687b      	ldr	r3, [r7, #4]
 800223c:	699b      	ldr	r3, [r3, #24]
 800223e:	2b00      	cmp	r3, #0
 8002240:	d101      	bne.n	8002246 <HAL_RCC_OscConfig+0x3e>
 8002242:	2301      	movs	r3, #1
 8002244:	e33c      	b.n	80028c0 <HAL_RCC_OscConfig+0x6b8>
 8002246:	687b      	ldr	r3, [r7, #4]
 8002248:	6a1a      	ldr	r2, [r3, #32]
 800224a:	4b97      	ldr	r3, [pc, #604]	; (80024a8 <HAL_RCC_OscConfig+0x2a0>)
 800224c:	681b      	ldr	r3, [r3, #0]
 800224e:	f003 0308 	and.w	r3, r3, #8
 8002252:	2b00      	cmp	r3, #0
 8002254:	d004      	beq.n	8002260 <HAL_RCC_OscConfig+0x58>
 8002256:	4b94      	ldr	r3, [pc, #592]	; (80024a8 <HAL_RCC_OscConfig+0x2a0>)
 8002258:	681b      	ldr	r3, [r3, #0]
 800225a:	f003 03f0 	and.w	r3, r3, #240	; 0xf0
 800225e:	e005      	b.n	800226c <HAL_RCC_OscConfig+0x64>
 8002260:	4b91      	ldr	r3, [pc, #580]	; (80024a8 <HAL_RCC_OscConfig+0x2a0>)
 8002262:	f8d3 3094 	ldr.w	r3, [r3, #148]	; 0x94
 8002266:	091b      	lsrs	r3, r3, #4
 8002268:	f003 03f0 	and.w	r3, r3, #240	; 0xf0
 800226c:	429a      	cmp	r2, r3
 800226e:	d923      	bls.n	80022b8 <HAL_RCC_OscConfig+0xb0>
 8002270:	687b      	ldr	r3, [r7, #4]
 8002272:	6a1b      	ldr	r3, [r3, #32]
 8002274:	4618      	mov	r0, r3
 8002276:	f000 fd25 	bl	8002cc4 <RCC_SetFlashLatencyFromMSIRange>
 800227a:	4603      	mov	r3, r0
 800227c:	2b00      	cmp	r3, #0
 800227e:	d001      	beq.n	8002284 <HAL_RCC_OscConfig+0x7c>
 8002280:	2301      	movs	r3, #1
 8002282:	e31d      	b.n	80028c0 <HAL_RCC_OscConfig+0x6b8>
 8002284:	4a88      	ldr	r2, [pc, #544]	; (80024a8 <HAL_RCC_OscConfig+0x2a0>)
 8002286:	4b88      	ldr	r3, [pc, #544]	; (80024a8 <HAL_RCC_OscConfig+0x2a0>)
 8002288:	681b      	ldr	r3, [r3, #0]
 800228a:	f043 0308 	orr.w	r3, r3, #8
 800228e:	6013      	str	r3, [r2, #0]
 8002290:	4985      	ldr	r1, [pc, #532]	; (80024a8 <HAL_RCC_OscConfig+0x2a0>)
 8002292:	4b85      	ldr	r3, [pc, #532]	; (80024a8 <HAL_RCC_OscConfig+0x2a0>)
 8002294:	681b      	ldr	r3, [r3, #0]
 8002296:	f023 02f0 	bic.w	r2, r3, #240	; 0xf0
 800229a:	687b      	ldr	r3, [r7, #4]
 800229c:	6a1b      	ldr	r3, [r3, #32]
 800229e:	4313      	orrs	r3, r2
 80022a0:	600b      	str	r3, [r1, #0]
 80022a2:	4981      	ldr	r1, [pc, #516]	; (80024a8 <HAL_RCC_OscConfig+0x2a0>)
 80022a4:	4b80      	ldr	r3, [pc, #512]	; (80024a8 <HAL_RCC_OscConfig+0x2a0>)
 80022a6:	685b      	ldr	r3, [r3, #4]
 80022a8:	f423 427f 	bic.w	r2, r3, #65280	; 0xff00
 80022ac:	687b      	ldr	r3, [r7, #4]
 80022ae:	69db      	ldr	r3, [r3, #28]
 80022b0:	021b      	lsls	r3, r3, #8
 80022b2:	4313      	orrs	r3, r2
 80022b4:	604b      	str	r3, [r1, #4]
 80022b6:	e022      	b.n	80022fe <HAL_RCC_OscConfig+0xf6>
 80022b8:	4a7b      	ldr	r2, [pc, #492]	; (80024a8 <HAL_RCC_OscConfig+0x2a0>)
 80022ba:	4b7b      	ldr	r3, [pc, #492]	; (80024a8 <HAL_RCC_OscConfig+0x2a0>)
 80022bc:	681b      	ldr	r3, [r3, #0]
 80022be:	f043 0308 	orr.w	r3, r3, #8
 80022c2:	6013      	str	r3, [r2, #0]
 80022c4:	4978      	ldr	r1, [pc, #480]	; (80024a8 <HAL_RCC_OscConfig+0x2a0>)
 80022c6:	4b78      	ldr	r3, [pc, #480]	; (80024a8 <HAL_RCC_OscConfig+0x2a0>)
 80022c8:	681b      	ldr	r3, [r3, #0]
 80022ca:	f023 02f0 	bic.w	r2, r3, #240	; 0xf0
 80022ce:	687b      	ldr	r3, [r7, #4]
 80022d0:	6a1b      	ldr	r3, [r3, #32]
 80022d2:	4313      	orrs	r3, r2
 80022d4:	600b      	str	r3, [r1, #0]
 80022d6:	4974      	ldr	r1, [pc, #464]	; (80024a8 <HAL_RCC_OscConfig+0x2a0>)
 80022d8:	4b73      	ldr	r3, [pc, #460]	; (80024a8 <HAL_RCC_OscConfig+0x2a0>)
 80022da:	685b      	ldr	r3, [r3, #4]
 80022dc:	f423 427f 	bic.w	r2, r3, #65280	; 0xff00
 80022e0:	687b      	ldr	r3, [r7, #4]
 80022e2:	69db      	ldr	r3, [r3, #28]
 80022e4:	021b      	lsls	r3, r3, #8
 80022e6:	4313      	orrs	r3, r2
 80022e8:	604b      	str	r3, [r1, #4]
 80022ea:	687b      	ldr	r3, [r7, #4]
 80022ec:	6a1b      	ldr	r3, [r3, #32]
 80022ee:	4618      	mov	r0, r3
 80022f0:	f000 fce8 	bl	8002cc4 <RCC_SetFlashLatencyFromMSIRange>
 80022f4:	4603      	mov	r3, r0
 80022f6:	2b00      	cmp	r3, #0
 80022f8:	d001      	beq.n	80022fe <HAL_RCC_OscConfig+0xf6>
 80022fa:	2301      	movs	r3, #1
 80022fc:	e2e0      	b.n	80028c0 <HAL_RCC_OscConfig+0x6b8>
 80022fe:	f000 fbfd 	bl	8002afc <HAL_RCC_GetSysClockFreq>
 8002302:	4601      	mov	r1, r0
 8002304:	4b68      	ldr	r3, [pc, #416]	; (80024a8 <HAL_RCC_OscConfig+0x2a0>)
 8002306:	689b      	ldr	r3, [r3, #8]
 8002308:	091b      	lsrs	r3, r3, #4
 800230a:	f003 030f 	and.w	r3, r3, #15
 800230e:	4a67      	ldr	r2, [pc, #412]	; (80024ac <HAL_RCC_OscConfig+0x2a4>)
 8002310:	5cd3      	ldrb	r3, [r2, r3]
 8002312:	fa21 f303 	lsr.w	r3, r1, r3
 8002316:	4a66      	ldr	r2, [pc, #408]	; (80024b0 <HAL_RCC_OscConfig+0x2a8>)
 8002318:	6013      	str	r3, [r2, #0]
 800231a:	2000      	movs	r0, #0
 800231c:	f7fe fe8e 	bl	800103c <HAL_InitTick>
 8002320:	e04f      	b.n	80023c2 <HAL_RCC_OscConfig+0x1ba>
 8002322:	687b      	ldr	r3, [r7, #4]
 8002324:	699b      	ldr	r3, [r3, #24]
 8002326:	2b00      	cmp	r3, #0
 8002328:	d032      	beq.n	8002390 <HAL_RCC_OscConfig+0x188>
 800232a:	4a5f      	ldr	r2, [pc, #380]	; (80024a8 <HAL_RCC_OscConfig+0x2a0>)
 800232c:	4b5e      	ldr	r3, [pc, #376]	; (80024a8 <HAL_RCC_OscConfig+0x2a0>)
 800232e:	681b      	ldr	r3, [r3, #0]
 8002330:	f043 0301 	orr.w	r3, r3, #1
 8002334:	6013      	str	r3, [r2, #0]
 8002336:	f7fe feab 	bl	8001090 <HAL_GetTick>
 800233a:	6138      	str	r0, [r7, #16]
 800233c:	e008      	b.n	8002350 <HAL_RCC_OscConfig+0x148>
 800233e:	f7fe fea7 	bl	8001090 <HAL_GetTick>
 8002342:	4602      	mov	r2, r0
 8002344:	693b      	ldr	r3, [r7, #16]
 8002346:	1ad3      	subs	r3, r2, r3
 8002348:	2b02      	cmp	r3, #2
 800234a:	d901      	bls.n	8002350 <HAL_RCC_OscConfig+0x148>
 800234c:	2303      	movs	r3, #3
 800234e:	e2b7      	b.n	80028c0 <HAL_RCC_OscConfig+0x6b8>
 8002350:	4b55      	ldr	r3, [pc, #340]	; (80024a8 <HAL_RCC_OscConfig+0x2a0>)
 8002352:	681b      	ldr	r3, [r3, #0]
 8002354:	f003 0302 	and.w	r3, r3, #2
 8002358:	2b00      	cmp	r3, #0
 800235a:	d0f0      	beq.n	800233e <HAL_RCC_OscConfig+0x136>
 800235c:	4a52      	ldr	r2, [pc, #328]	; (80024a8 <HAL_RCC_OscConfig+0x2a0>)
 800235e:	4b52      	ldr	r3, [pc, #328]	; (80024a8 <HAL_RCC_OscConfig+0x2a0>)
 8002360:	681b      	ldr	r3, [r3, #0]
 8002362:	f043 0308 	orr.w	r3, r3, #8
 8002366:	6013      	str	r3, [r2, #0]
 8002368:	494f      	ldr	r1, [pc, #316]	; (80024a8 <HAL_RCC_OscConfig+0x2a0>)
 800236a:	4b4f      	ldr	r3, [pc, #316]	; (80024a8 <HAL_RCC_OscConfig+0x2a0>)
 800236c:	681b      	ldr	r3, [r3, #0]
 800236e:	f023 02f0 	bic.w	r2, r3, #240	; 0xf0
 8002372:	687b      	ldr	r3, [r7, #4]
 8002374:	6a1b      	ldr	r3, [r3, #32]
 8002376:	4313      	orrs	r3, r2
 8002378:	600b      	str	r3, [r1, #0]
 800237a:	494b      	ldr	r1, [pc, #300]	; (80024a8 <HAL_RCC_OscConfig+0x2a0>)
 800237c:	4b4a      	ldr	r3, [pc, #296]	; (80024a8 <HAL_RCC_OscConfig+0x2a0>)
 800237e:	685b      	ldr	r3, [r3, #4]
 8002380:	f423 427f 	bic.w	r2, r3, #65280	; 0xff00
 8002384:	687b      	ldr	r3, [r7, #4]
 8002386:	69db      	ldr	r3, [r3, #28]
 8002388:	021b      	lsls	r3, r3, #8
 800238a:	4313      	orrs	r3, r2
 800238c:	604b      	str	r3, [r1, #4]
 800238e:	e018      	b.n	80023c2 <HAL_RCC_OscConfig+0x1ba>
 8002390:	4a45      	ldr	r2, [pc, #276]	; (80024a8 <HAL_RCC_OscConfig+0x2a0>)
 8002392:	4b45      	ldr	r3, [pc, #276]	; (80024a8 <HAL_RCC_OscConfig+0x2a0>)
 8002394:	681b      	ldr	r3, [r3, #0]
 8002396:	f023 0301 	bic.w	r3, r3, #1
 800239a:	6013      	str	r3, [r2, #0]
 800239c:	f7fe fe78 	bl	8001090 <HAL_GetTick>
 80023a0:	6138      	str	r0, [r7, #16]
 80023a2:	e008      	b.n	80023b6 <HAL_RCC_OscConfig+0x1ae>
 80023a4:	f7fe fe74 	bl	8001090 <HAL_GetTick>
 80023a8:	4602      	mov	r2, r0
 80023aa:	693b      	ldr	r3, [r7, #16]
 80023ac:	1ad3      	subs	r3, r2, r3
 80023ae:	2b02      	cmp	r3, #2
 80023b0:	d901      	bls.n	80023b6 <HAL_RCC_OscConfig+0x1ae>
 80023b2:	2303      	movs	r3, #3
 80023b4:	e284      	b.n	80028c0 <HAL_RCC_OscConfig+0x6b8>
 80023b6:	4b3c      	ldr	r3, [pc, #240]	; (80024a8 <HAL_RCC_OscConfig+0x2a0>)
 80023b8:	681b      	ldr	r3, [r3, #0]
 80023ba:	f003 0302 	and.w	r3, r3, #2
 80023be:	2b00      	cmp	r3, #0
 80023c0:	d1f0      	bne.n	80023a4 <HAL_RCC_OscConfig+0x19c>
 80023c2:	687b      	ldr	r3, [r7, #4]
 80023c4:	681b      	ldr	r3, [r3, #0]
 80023c6:	f003 0301 	and.w	r3, r3, #1
 80023ca:	2b00      	cmp	r3, #0
 80023cc:	d07a      	beq.n	80024c4 <HAL_RCC_OscConfig+0x2bc>
 80023ce:	4b36      	ldr	r3, [pc, #216]	; (80024a8 <HAL_RCC_OscConfig+0x2a0>)
 80023d0:	689b      	ldr	r3, [r3, #8]
 80023d2:	f003 030c 	and.w	r3, r3, #12
 80023d6:	2b08      	cmp	r3, #8
 80023d8:	d00b      	beq.n	80023f2 <HAL_RCC_OscConfig+0x1ea>
 80023da:	4b33      	ldr	r3, [pc, #204]	; (80024a8 <HAL_RCC_OscConfig+0x2a0>)
 80023dc:	689b      	ldr	r3, [r3, #8]
 80023de:	f003 030c 	and.w	r3, r3, #12
 80023e2:	2b0c      	cmp	r3, #12
 80023e4:	d111      	bne.n	800240a <HAL_RCC_OscConfig+0x202>
 80023e6:	4b30      	ldr	r3, [pc, #192]	; (80024a8 <HAL_RCC_OscConfig+0x2a0>)
 80023e8:	68db      	ldr	r3, [r3, #12]
 80023ea:	f003 0303 	and.w	r3, r3, #3
 80023ee:	2b03      	cmp	r3, #3
 80023f0:	d10b      	bne.n	800240a <HAL_RCC_OscConfig+0x202>
 80023f2:	4b2d      	ldr	r3, [pc, #180]	; (80024a8 <HAL_RCC_OscConfig+0x2a0>)
 80023f4:	681b      	ldr	r3, [r3, #0]
 80023f6:	f403 3300 	and.w	r3, r3, #131072	; 0x20000
 80023fa:	2b00      	cmp	r3, #0
 80023fc:	d061      	beq.n	80024c2 <HAL_RCC_OscConfig+0x2ba>
 80023fe:	687b      	ldr	r3, [r7, #4]
 8002400:	685b      	ldr	r3, [r3, #4]
 8002402:	2b00      	cmp	r3, #0
 8002404:	d15d      	bne.n	80024c2 <HAL_RCC_OscConfig+0x2ba>
 8002406:	2301      	movs	r3, #1
 8002408:	e25a      	b.n	80028c0 <HAL_RCC_OscConfig+0x6b8>
 800240a:	687b      	ldr	r3, [r7, #4]
 800240c:	685b      	ldr	r3, [r3, #4]
 800240e:	f5b3 3f80 	cmp.w	r3, #65536	; 0x10000
 8002412:	d106      	bne.n	8002422 <HAL_RCC_OscConfig+0x21a>
 8002414:	4a24      	ldr	r2, [pc, #144]	; (80024a8 <HAL_RCC_OscConfig+0x2a0>)
 8002416:	4b24      	ldr	r3, [pc, #144]	; (80024a8 <HAL_RCC_OscConfig+0x2a0>)
 8002418:	681b      	ldr	r3, [r3, #0]
 800241a:	f443 3380 	orr.w	r3, r3, #65536	; 0x10000
 800241e:	6013      	str	r3, [r2, #0]
 8002420:	e01d      	b.n	800245e <HAL_RCC_OscConfig+0x256>
 8002422:	687b      	ldr	r3, [r7, #4]
 8002424:	685b      	ldr	r3, [r3, #4]
 8002426:	f5b3 2fa0 	cmp.w	r3, #327680	; 0x50000
 800242a:	d10c      	bne.n	8002446 <HAL_RCC_OscConfig+0x23e>
 800242c:	4a1e      	ldr	r2, [pc, #120]	; (80024a8 <HAL_RCC_OscConfig+0x2a0>)
 800242e:	4b1e      	ldr	r3, [pc, #120]	; (80024a8 <HAL_RCC_OscConfig+0x2a0>)
 8002430:	681b      	ldr	r3, [r3, #0]
 8002432:	f443 2380 	orr.w	r3, r3, #262144	; 0x40000
 8002436:	6013      	str	r3, [r2, #0]
 8002438:	4a1b      	ldr	r2, [pc, #108]	; (80024a8 <HAL_RCC_OscConfig+0x2a0>)
 800243a:	4b1b      	ldr	r3, [pc, #108]	; (80024a8 <HAL_RCC_OscConfig+0x2a0>)
 800243c:	681b      	ldr	r3, [r3, #0]
 800243e:	f443 3380 	orr.w	r3, r3, #65536	; 0x10000
 8002442:	6013      	str	r3, [r2, #0]
 8002444:	e00b      	b.n	800245e <HAL_RCC_OscConfig+0x256>
 8002446:	4a18      	ldr	r2, [pc, #96]	; (80024a8 <HAL_RCC_OscConfig+0x2a0>)
 8002448:	4b17      	ldr	r3, [pc, #92]	; (80024a8 <HAL_RCC_OscConfig+0x2a0>)
 800244a:	681b      	ldr	r3, [r3, #0]
 800244c:	f423 3380 	bic.w	r3, r3, #65536	; 0x10000
 8002450:	6013      	str	r3, [r2, #0]
 8002452:	4a15      	ldr	r2, [pc, #84]	; (80024a8 <HAL_RCC_OscConfig+0x2a0>)
 8002454:	4b14      	ldr	r3, [pc, #80]	; (80024a8 <HAL_RCC_OscConfig+0x2a0>)
 8002456:	681b      	ldr	r3, [r3, #0]
 8002458:	f423 2380 	bic.w	r3, r3, #262144	; 0x40000
 800245c:	6013      	str	r3, [r2, #0]
 800245e:	687b      	ldr	r3, [r7, #4]
 8002460:	685b      	ldr	r3, [r3, #4]
 8002462:	2b00      	cmp	r3, #0
 8002464:	d013      	beq.n	800248e <HAL_RCC_OscConfig+0x286>
 8002466:	f7fe fe13 	bl	8001090 <HAL_GetTick>
 800246a:	6138      	str	r0, [r7, #16]
 800246c:	e008      	b.n	8002480 <HAL_RCC_OscConfig+0x278>
 800246e:	f7fe fe0f 	bl	8001090 <HAL_GetTick>
 8002472:	4602      	mov	r2, r0
 8002474:	693b      	ldr	r3, [r7, #16]
 8002476:	1ad3      	subs	r3, r2, r3
 8002478:	2b64      	cmp	r3, #100	; 0x64
 800247a:	d901      	bls.n	8002480 <HAL_RCC_OscConfig+0x278>
 800247c:	2303      	movs	r3, #3
 800247e:	e21f      	b.n	80028c0 <HAL_RCC_OscConfig+0x6b8>
 8002480:	4b09      	ldr	r3, [pc, #36]	; (80024a8 <HAL_RCC_OscConfig+0x2a0>)
 8002482:	681b      	ldr	r3, [r3, #0]
 8002484:	f403 3300 	and.w	r3, r3, #131072	; 0x20000
 8002488:	2b00      	cmp	r3, #0
 800248a:	d0f0      	beq.n	800246e <HAL_RCC_OscConfig+0x266>
 800248c:	e01a      	b.n	80024c4 <HAL_RCC_OscConfig+0x2bc>
 800248e:	f7fe fdff 	bl	8001090 <HAL_GetTick>
 8002492:	6138      	str	r0, [r7, #16]
 8002494:	e00e      	b.n	80024b4 <HAL_RCC_OscConfig+0x2ac>
 8002496:	f7fe fdfb 	bl	8001090 <HAL_GetTick>
 800249a:	4602      	mov	r2, r0
 800249c:	693b      	ldr	r3, [r7, #16]
 800249e:	1ad3      	subs	r3, r2, r3
 80024a0:	2b64      	cmp	r3, #100	; 0x64
 80024a2:	d907      	bls.n	80024b4 <HAL_RCC_OscConfig+0x2ac>
 80024a4:	2303      	movs	r3, #3
 80024a6:	e20b      	b.n	80028c0 <HAL_RCC_OscConfig+0x6b8>
 80024a8:	40021000 	.word	0x40021000
 80024ac:	08008db0 	.word	0x08008db0
 80024b0:	20000004 	.word	0x20000004
 80024b4:	4ba9      	ldr	r3, [pc, #676]	; (800275c <HAL_RCC_OscConfig+0x554>)
 80024b6:	681b      	ldr	r3, [r3, #0]
 80024b8:	f403 3300 	and.w	r3, r3, #131072	; 0x20000
 80024bc:	2b00      	cmp	r3, #0
 80024be:	d1ea      	bne.n	8002496 <HAL_RCC_OscConfig+0x28e>
 80024c0:	e000      	b.n	80024c4 <HAL_RCC_OscConfig+0x2bc>
 80024c2:	bf00      	nop
 80024c4:	687b      	ldr	r3, [r7, #4]
 80024c6:	681b      	ldr	r3, [r3, #0]
 80024c8:	f003 0302 	and.w	r3, r3, #2
 80024cc:	2b00      	cmp	r3, #0
 80024ce:	d069      	beq.n	80025a4 <HAL_RCC_OscConfig+0x39c>
 80024d0:	4ba2      	ldr	r3, [pc, #648]	; (800275c <HAL_RCC_OscConfig+0x554>)
 80024d2:	689b      	ldr	r3, [r3, #8]
 80024d4:	f003 030c 	and.w	r3, r3, #12
 80024d8:	2b04      	cmp	r3, #4
 80024da:	d00b      	beq.n	80024f4 <HAL_RCC_OscConfig+0x2ec>
 80024dc:	4b9f      	ldr	r3, [pc, #636]	; (800275c <HAL_RCC_OscConfig+0x554>)
 80024de:	689b      	ldr	r3, [r3, #8]
 80024e0:	f003 030c 	and.w	r3, r3, #12
 80024e4:	2b0c      	cmp	r3, #12
 80024e6:	d11c      	bne.n	8002522 <HAL_RCC_OscConfig+0x31a>
 80024e8:	4b9c      	ldr	r3, [pc, #624]	; (800275c <HAL_RCC_OscConfig+0x554>)
 80024ea:	68db      	ldr	r3, [r3, #12]
 80024ec:	f003 0303 	and.w	r3, r3, #3
 80024f0:	2b02      	cmp	r3, #2
 80024f2:	d116      	bne.n	8002522 <HAL_RCC_OscConfig+0x31a>
 80024f4:	4b99      	ldr	r3, [pc, #612]	; (800275c <HAL_RCC_OscConfig+0x554>)
 80024f6:	681b      	ldr	r3, [r3, #0]
 80024f8:	f403 6380 	and.w	r3, r3, #1024	; 0x400
 80024fc:	2b00      	cmp	r3, #0
 80024fe:	d005      	beq.n	800250c <HAL_RCC_OscConfig+0x304>
 8002500:	687b      	ldr	r3, [r7, #4]
 8002502:	68db      	ldr	r3, [r3, #12]
 8002504:	2b00      	cmp	r3, #0
 8002506:	d101      	bne.n	800250c <HAL_RCC_OscConfig+0x304>
 8002508:	2301      	movs	r3, #1
 800250a:	e1d9      	b.n	80028c0 <HAL_RCC_OscConfig+0x6b8>
 800250c:	4993      	ldr	r1, [pc, #588]	; (800275c <HAL_RCC_OscConfig+0x554>)
 800250e:	4b93      	ldr	r3, [pc, #588]	; (800275c <HAL_RCC_OscConfig+0x554>)
 8002510:	685b      	ldr	r3, [r3, #4]
 8002512:	f023 52f8 	bic.w	r2, r3, #520093696	; 0x1f000000
 8002516:	687b      	ldr	r3, [r7, #4]
 8002518:	691b      	ldr	r3, [r3, #16]
 800251a:	061b      	lsls	r3, r3, #24
 800251c:	4313      	orrs	r3, r2
 800251e:	604b      	str	r3, [r1, #4]
 8002520:	e040      	b.n	80025a4 <HAL_RCC_OscConfig+0x39c>
 8002522:	687b      	ldr	r3, [r7, #4]
 8002524:	68db      	ldr	r3, [r3, #12]
 8002526:	2b00      	cmp	r3, #0
 8002528:	d023      	beq.n	8002572 <HAL_RCC_OscConfig+0x36a>
 800252a:	4a8c      	ldr	r2, [pc, #560]	; (800275c <HAL_RCC_OscConfig+0x554>)
 800252c:	4b8b      	ldr	r3, [pc, #556]	; (800275c <HAL_RCC_OscConfig+0x554>)
 800252e:	681b      	ldr	r3, [r3, #0]
 8002530:	f443 7380 	orr.w	r3, r3, #256	; 0x100
 8002534:	6013      	str	r3, [r2, #0]
 8002536:	f7fe fdab 	bl	8001090 <HAL_GetTick>
 800253a:	6138      	str	r0, [r7, #16]
 800253c:	e008      	b.n	8002550 <HAL_RCC_OscConfig+0x348>
 800253e:	f7fe fda7 	bl	8001090 <HAL_GetTick>
 8002542:	4602      	mov	r2, r0
 8002544:	693b      	ldr	r3, [r7, #16]
 8002546:	1ad3      	subs	r3, r2, r3
 8002548:	2b02      	cmp	r3, #2
 800254a:	d901      	bls.n	8002550 <HAL_RCC_OscConfig+0x348>
 800254c:	2303      	movs	r3, #3
 800254e:	e1b7      	b.n	80028c0 <HAL_RCC_OscConfig+0x6b8>
 8002550:	4b82      	ldr	r3, [pc, #520]	; (800275c <HAL_RCC_OscConfig+0x554>)
 8002552:	681b      	ldr	r3, [r3, #0]
 8002554:	f403 6380 	and.w	r3, r3, #1024	; 0x400
 8002558:	2b00      	cmp	r3, #0
 800255a:	d0f0      	beq.n	800253e <HAL_RCC_OscConfig+0x336>
 800255c:	497f      	ldr	r1, [pc, #508]	; (800275c <HAL_RCC_OscConfig+0x554>)
 800255e:	4b7f      	ldr	r3, [pc, #508]	; (800275c <HAL_RCC_OscConfig+0x554>)
 8002560:	685b      	ldr	r3, [r3, #4]
 8002562:	f023 52f8 	bic.w	r2, r3, #520093696	; 0x1f000000
 8002566:	687b      	ldr	r3, [r7, #4]
 8002568:	691b      	ldr	r3, [r3, #16]
 800256a:	061b      	lsls	r3, r3, #24
 800256c:	4313      	orrs	r3, r2
 800256e:	604b      	str	r3, [r1, #4]
 8002570:	e018      	b.n	80025a4 <HAL_RCC_OscConfig+0x39c>
 8002572:	4a7a      	ldr	r2, [pc, #488]	; (800275c <HAL_RCC_OscConfig+0x554>)
 8002574:	4b79      	ldr	r3, [pc, #484]	; (800275c <HAL_RCC_OscConfig+0x554>)
 8002576:	681b      	ldr	r3, [r3, #0]
 8002578:	f423 7380 	bic.w	r3, r3, #256	; 0x100
 800257c:	6013      	str	r3, [r2, #0]
 800257e:	f7fe fd87 	bl	8001090 <HAL_GetTick>
 8002582:	6138      	str	r0, [r7, #16]
 8002584:	e008      	b.n	8002598 <HAL_RCC_OscConfig+0x390>
 8002586:	f7fe fd83 	bl	8001090 <HAL_GetTick>
 800258a:	4602      	mov	r2, r0
 800258c:	693b      	ldr	r3, [r7, #16]
 800258e:	1ad3      	subs	r3, r2, r3
 8002590:	2b02      	cmp	r3, #2
 8002592:	d901      	bls.n	8002598 <HAL_RCC_OscConfig+0x390>
 8002594:	2303      	movs	r3, #3
 8002596:	e193      	b.n	80028c0 <HAL_RCC_OscConfig+0x6b8>
 8002598:	4b70      	ldr	r3, [pc, #448]	; (800275c <HAL_RCC_OscConfig+0x554>)
 800259a:	681b      	ldr	r3, [r3, #0]
 800259c:	f403 6380 	and.w	r3, r3, #1024	; 0x400
 80025a0:	2b00      	cmp	r3, #0
 80025a2:	d1f0      	bne.n	8002586 <HAL_RCC_OscConfig+0x37e>
 80025a4:	687b      	ldr	r3, [r7, #4]
 80025a6:	681b      	ldr	r3, [r3, #0]
 80025a8:	f003 0308 	and.w	r3, r3, #8
 80025ac:	2b00      	cmp	r3, #0
 80025ae:	d03c      	beq.n	800262a <HAL_RCC_OscConfig+0x422>
 80025b0:	687b      	ldr	r3, [r7, #4]
 80025b2:	695b      	ldr	r3, [r3, #20]
 80025b4:	2b00      	cmp	r3, #0
 80025b6:	d01c      	beq.n	80025f2 <HAL_RCC_OscConfig+0x3ea>
 80025b8:	4a68      	ldr	r2, [pc, #416]	; (800275c <HAL_RCC_OscConfig+0x554>)
 80025ba:	4b68      	ldr	r3, [pc, #416]	; (800275c <HAL_RCC_OscConfig+0x554>)
 80025bc:	f8d3 3094 	ldr.w	r3, [r3, #148]	; 0x94
 80025c0:	f043 0301 	orr.w	r3, r3, #1
 80025c4:	f8c2 3094 	str.w	r3, [r2, #148]	; 0x94
 80025c8:	f7fe fd62 	bl	8001090 <HAL_GetTick>
 80025cc:	6138      	str	r0, [r7, #16]
 80025ce:	e008      	b.n	80025e2 <HAL_RCC_OscConfig+0x3da>
 80025d0:	f7fe fd5e 	bl	8001090 <HAL_GetTick>
 80025d4:	4602      	mov	r2, r0
 80025d6:	693b      	ldr	r3, [r7, #16]
 80025d8:	1ad3      	subs	r3, r2, r3
 80025da:	2b02      	cmp	r3, #2
 80025dc:	d901      	bls.n	80025e2 <HAL_RCC_OscConfig+0x3da>
 80025de:	2303      	movs	r3, #3
 80025e0:	e16e      	b.n	80028c0 <HAL_RCC_OscConfig+0x6b8>
 80025e2:	4b5e      	ldr	r3, [pc, #376]	; (800275c <HAL_RCC_OscConfig+0x554>)
 80025e4:	f8d3 3094 	ldr.w	r3, [r3, #148]	; 0x94
 80025e8:	f003 0302 	and.w	r3, r3, #2
 80025ec:	2b00      	cmp	r3, #0
 80025ee:	d0ef      	beq.n	80025d0 <HAL_RCC_OscConfig+0x3c8>
 80025f0:	e01b      	b.n	800262a <HAL_RCC_OscConfig+0x422>
 80025f2:	4a5a      	ldr	r2, [pc, #360]	; (800275c <HAL_RCC_OscConfig+0x554>)
 80025f4:	4b59      	ldr	r3, [pc, #356]	; (800275c <HAL_RCC_OscConfig+0x554>)
 80025f6:	f8d3 3094 	ldr.w	r3, [r3, #148]	; 0x94
 80025fa:	f023 0301 	bic.w	r3, r3, #1
 80025fe:	f8c2 3094 	str.w	r3, [r2, #148]	; 0x94
 8002602:	f7fe fd45 	bl	8001090 <HAL_GetTick>
 8002606:	6138      	str	r0, [r7, #16]
 8002608:	e008      	b.n	800261c <HAL_RCC_OscConfig+0x414>
 800260a:	f7fe fd41 	bl	8001090 <HAL_GetTick>
 800260e:	4602      	mov	r2, r0
 8002610:	693b      	ldr	r3, [r7, #16]
 8002612:	1ad3      	subs	r3, r2, r3
 8002614:	2b02      	cmp	r3, #2
 8002616:	d901      	bls.n	800261c <HAL_RCC_OscConfig+0x414>
 8002618:	2303      	movs	r3, #3
 800261a:	e151      	b.n	80028c0 <HAL_RCC_OscConfig+0x6b8>
 800261c:	4b4f      	ldr	r3, [pc, #316]	; (800275c <HAL_RCC_OscConfig+0x554>)
 800261e:	f8d3 3094 	ldr.w	r3, [r3, #148]	; 0x94
 8002622:	f003 0302 	and.w	r3, r3, #2
 8002626:	2b00      	cmp	r3, #0
 8002628:	d1ef      	bne.n	800260a <HAL_RCC_OscConfig+0x402>
 800262a:	687b      	ldr	r3, [r7, #4]
 800262c:	681b      	ldr	r3, [r3, #0]
 800262e:	f003 0304 	and.w	r3, r3, #4
 8002632:	2b00      	cmp	r3, #0
 8002634:	f000 80a6 	beq.w	8002784 <HAL_RCC_OscConfig+0x57c>
 8002638:	2300      	movs	r3, #0
 800263a:	75fb      	strb	r3, [r7, #23]
 800263c:	4b47      	ldr	r3, [pc, #284]	; (800275c <HAL_RCC_OscConfig+0x554>)
 800263e:	6d9b      	ldr	r3, [r3, #88]	; 0x58
 8002640:	f003 5380 	and.w	r3, r3, #268435456	; 0x10000000
 8002644:	2b00      	cmp	r3, #0
 8002646:	d10d      	bne.n	8002664 <HAL_RCC_OscConfig+0x45c>
 8002648:	4a44      	ldr	r2, [pc, #272]	; (800275c <HAL_RCC_OscConfig+0x554>)
 800264a:	4b44      	ldr	r3, [pc, #272]	; (800275c <HAL_RCC_OscConfig+0x554>)
 800264c:	6d9b      	ldr	r3, [r3, #88]	; 0x58
 800264e:	f043 5380 	orr.w	r3, r3, #268435456	; 0x10000000
 8002652:	6593      	str	r3, [r2, #88]	; 0x58
 8002654:	4b41      	ldr	r3, [pc, #260]	; (800275c <HAL_RCC_OscConfig+0x554>)
 8002656:	6d9b      	ldr	r3, [r3, #88]	; 0x58
 8002658:	f003 5380 	and.w	r3, r3, #268435456	; 0x10000000
 800265c:	60fb      	str	r3, [r7, #12]
 800265e:	68fb      	ldr	r3, [r7, #12]
 8002660:	2301      	movs	r3, #1
 8002662:	75fb      	strb	r3, [r7, #23]
 8002664:	4b3e      	ldr	r3, [pc, #248]	; (8002760 <HAL_RCC_OscConfig+0x558>)
 8002666:	681b      	ldr	r3, [r3, #0]
 8002668:	f403 7380 	and.w	r3, r3, #256	; 0x100
 800266c:	2b00      	cmp	r3, #0
 800266e:	d118      	bne.n	80026a2 <HAL_RCC_OscConfig+0x49a>
 8002670:	4a3b      	ldr	r2, [pc, #236]	; (8002760 <HAL_RCC_OscConfig+0x558>)
 8002672:	4b3b      	ldr	r3, [pc, #236]	; (8002760 <HAL_RCC_OscConfig+0x558>)
 8002674:	681b      	ldr	r3, [r3, #0]
 8002676:	f443 7380 	orr.w	r3, r3, #256	; 0x100
 800267a:	6013      	str	r3, [r2, #0]
 800267c:	f7fe fd08 	bl	8001090 <HAL_GetTick>
 8002680:	6138      	str	r0, [r7, #16]
 8002682:	e008      	b.n	8002696 <HAL_RCC_OscConfig+0x48e>
 8002684:	f7fe fd04 	bl	8001090 <HAL_GetTick>
 8002688:	4602      	mov	r2, r0
 800268a:	693b      	ldr	r3, [r7, #16]
 800268c:	1ad3      	subs	r3, r2, r3
 800268e:	2b02      	cmp	r3, #2
 8002690:	d901      	bls.n	8002696 <HAL_RCC_OscConfig+0x48e>
 8002692:	2303      	movs	r3, #3
 8002694:	e114      	b.n	80028c0 <HAL_RCC_OscConfig+0x6b8>
 8002696:	4b32      	ldr	r3, [pc, #200]	; (8002760 <HAL_RCC_OscConfig+0x558>)
 8002698:	681b      	ldr	r3, [r3, #0]
 800269a:	f403 7380 	and.w	r3, r3, #256	; 0x100
 800269e:	2b00      	cmp	r3, #0
 80026a0:	d0f0      	beq.n	8002684 <HAL_RCC_OscConfig+0x47c>
 80026a2:	687b      	ldr	r3, [r7, #4]
 80026a4:	689b      	ldr	r3, [r3, #8]
 80026a6:	2b01      	cmp	r3, #1
 80026a8:	d108      	bne.n	80026bc <HAL_RCC_OscConfig+0x4b4>
 80026aa:	4a2c      	ldr	r2, [pc, #176]	; (800275c <HAL_RCC_OscConfig+0x554>)
 80026ac:	4b2b      	ldr	r3, [pc, #172]	; (800275c <HAL_RCC_OscConfig+0x554>)
 80026ae:	f8d3 3090 	ldr.w	r3, [r3, #144]	; 0x90
 80026b2:	f043 0301 	orr.w	r3, r3, #1
 80026b6:	f8c2 3090 	str.w	r3, [r2, #144]	; 0x90
 80026ba:	e024      	b.n	8002706 <HAL_RCC_OscConfig+0x4fe>
 80026bc:	687b      	ldr	r3, [r7, #4]
 80026be:	689b      	ldr	r3, [r3, #8]
 80026c0:	2b05      	cmp	r3, #5
 80026c2:	d110      	bne.n	80026e6 <HAL_RCC_OscConfig+0x4de>
 80026c4:	4a25      	ldr	r2, [pc, #148]	; (800275c <HAL_RCC_OscConfig+0x554>)
 80026c6:	4b25      	ldr	r3, [pc, #148]	; (800275c <HAL_RCC_OscConfig+0x554>)
 80026c8:	f8d3 3090 	ldr.w	r3, [r3, #144]	; 0x90
 80026cc:	f043 0304 	orr.w	r3, r3, #4
 80026d0:	f8c2 3090 	str.w	r3, [r2, #144]	; 0x90
 80026d4:	4a21      	ldr	r2, [pc, #132]	; (800275c <HAL_RCC_OscConfig+0x554>)
 80026d6:	4b21      	ldr	r3, [pc, #132]	; (800275c <HAL_RCC_OscConfig+0x554>)
 80026d8:	f8d3 3090 	ldr.w	r3, [r3, #144]	; 0x90
 80026dc:	f043 0301 	orr.w	r3, r3, #1
 80026e0:	f8c2 3090 	str.w	r3, [r2, #144]	; 0x90
 80026e4:	e00f      	b.n	8002706 <HAL_RCC_OscConfig+0x4fe>
 80026e6:	4a1d      	ldr	r2, [pc, #116]	; (800275c <HAL_RCC_OscConfig+0x554>)
 80026e8:	4b1c      	ldr	r3, [pc, #112]	; (800275c <HAL_RCC_OscConfig+0x554>)
 80026ea:	f8d3 3090 	ldr.w	r3, [r3, #144]	; 0x90
 80026ee:	f023 0301 	bic.w	r3, r3, #1
 80026f2:	f8c2 3090 	str.w	r3, [r2, #144]	; 0x90
 80026f6:	4a19      	ldr	r2, [pc, #100]	; (800275c <HAL_RCC_OscConfig+0x554>)
 80026f8:	4b18      	ldr	r3, [pc, #96]	; (800275c <HAL_RCC_OscConfig+0x554>)
 80026fa:	f8d3 3090 	ldr.w	r3, [r3, #144]	; 0x90
 80026fe:	f023 0304 	bic.w	r3, r3, #4
 8002702:	f8c2 3090 	str.w	r3, [r2, #144]	; 0x90
 8002706:	687b      	ldr	r3, [r7, #4]
 8002708:	689b      	ldr	r3, [r3, #8]
 800270a:	2b00      	cmp	r3, #0
 800270c:	d016      	beq.n	800273c <HAL_RCC_OscConfig+0x534>
 800270e:	f7fe fcbf 	bl	8001090 <HAL_GetTick>
 8002712:	6138      	str	r0, [r7, #16]
 8002714:	e00a      	b.n	800272c <HAL_RCC_OscConfig+0x524>
 8002716:	f7fe fcbb 	bl	8001090 <HAL_GetTick>
 800271a:	4602      	mov	r2, r0
 800271c:	693b      	ldr	r3, [r7, #16]
 800271e:	1ad3      	subs	r3, r2, r3
 8002720:	f241 3288 	movw	r2, #5000	; 0x1388
 8002724:	4293      	cmp	r3, r2
 8002726:	d901      	bls.n	800272c <HAL_RCC_OscConfig+0x524>
 8002728:	2303      	movs	r3, #3
 800272a:	e0c9      	b.n	80028c0 <HAL_RCC_OscConfig+0x6b8>
 800272c:	4b0b      	ldr	r3, [pc, #44]	; (800275c <HAL_RCC_OscConfig+0x554>)
 800272e:	f8d3 3090 	ldr.w	r3, [r3, #144]	; 0x90
 8002732:	f003 0302 	and.w	r3, r3, #2
 8002736:	2b00      	cmp	r3, #0
 8002738:	d0ed      	beq.n	8002716 <HAL_RCC_OscConfig+0x50e>
 800273a:	e01a      	b.n	8002772 <HAL_RCC_OscConfig+0x56a>
 800273c:	f7fe fca8 	bl	8001090 <HAL_GetTick>
 8002740:	6138      	str	r0, [r7, #16]
 8002742:	e00f      	b.n	8002764 <HAL_RCC_OscConfig+0x55c>
 8002744:	f7fe fca4 	bl	8001090 <HAL_GetTick>
 8002748:	4602      	mov	r2, r0
 800274a:	693b      	ldr	r3, [r7, #16]
 800274c:	1ad3      	subs	r3, r2, r3
 800274e:	f241 3288 	movw	r2, #5000	; 0x1388
 8002752:	4293      	cmp	r3, r2
 8002754:	d906      	bls.n	8002764 <HAL_RCC_OscConfig+0x55c>
 8002756:	2303      	movs	r3, #3
 8002758:	e0b2      	b.n	80028c0 <HAL_RCC_OscConfig+0x6b8>
 800275a:	bf00      	nop
 800275c:	40021000 	.word	0x40021000
 8002760:	40007000 	.word	0x40007000
 8002764:	4b58      	ldr	r3, [pc, #352]	; (80028c8 <HAL_RCC_OscConfig+0x6c0>)
 8002766:	f8d3 3090 	ldr.w	r3, [r3, #144]	; 0x90
 800276a:	f003 0302 	and.w	r3, r3, #2
 800276e:	2b00      	cmp	r3, #0
 8002770:	d1e8      	bne.n	8002744 <HAL_RCC_OscConfig+0x53c>
 8002772:	7dfb      	ldrb	r3, [r7, #23]
 8002774:	2b01      	cmp	r3, #1
 8002776:	d105      	bne.n	8002784 <HAL_RCC_OscConfig+0x57c>
 8002778:	4a53      	ldr	r2, [pc, #332]	; (80028c8 <HAL_RCC_OscConfig+0x6c0>)
 800277a:	4b53      	ldr	r3, [pc, #332]	; (80028c8 <HAL_RCC_OscConfig+0x6c0>)
 800277c:	6d9b      	ldr	r3, [r3, #88]	; 0x58
 800277e:	f023 5380 	bic.w	r3, r3, #268435456	; 0x10000000
 8002782:	6593      	str	r3, [r2, #88]	; 0x58
 8002784:	687b      	ldr	r3, [r7, #4]
 8002786:	6a9b      	ldr	r3, [r3, #40]	; 0x28
 8002788:	2b00      	cmp	r3, #0
 800278a:	f000 8098 	beq.w	80028be <HAL_RCC_OscConfig+0x6b6>
 800278e:	4b4e      	ldr	r3, [pc, #312]	; (80028c8 <HAL_RCC_OscConfig+0x6c0>)
 8002790:	689b      	ldr	r3, [r3, #8]
 8002792:	f003 030c 	and.w	r3, r3, #12
 8002796:	2b0c      	cmp	r3, #12
 8002798:	f000 808f 	beq.w	80028ba <HAL_RCC_OscConfig+0x6b2>
 800279c:	687b      	ldr	r3, [r7, #4]
 800279e:	6a9b      	ldr	r3, [r3, #40]	; 0x28
 80027a0:	2b02      	cmp	r3, #2
 80027a2:	d156      	bne.n	8002852 <HAL_RCC_OscConfig+0x64a>
 80027a4:	4a48      	ldr	r2, [pc, #288]	; (80028c8 <HAL_RCC_OscConfig+0x6c0>)
 80027a6:	4b48      	ldr	r3, [pc, #288]	; (80028c8 <HAL_RCC_OscConfig+0x6c0>)
 80027a8:	681b      	ldr	r3, [r3, #0]
 80027aa:	f023 7380 	bic.w	r3, r3, #16777216	; 0x1000000
 80027ae:	6013      	str	r3, [r2, #0]
 80027b0:	f7fe fc6e 	bl	8001090 <HAL_GetTick>
 80027b4:	6138      	str	r0, [r7, #16]
 80027b6:	e008      	b.n	80027ca <HAL_RCC_OscConfig+0x5c2>
 80027b8:	f7fe fc6a 	bl	8001090 <HAL_GetTick>
 80027bc:	4602      	mov	r2, r0
 80027be:	693b      	ldr	r3, [r7, #16]
 80027c0:	1ad3      	subs	r3, r2, r3
 80027c2:	2b02      	cmp	r3, #2
 80027c4:	d901      	bls.n	80027ca <HAL_RCC_OscConfig+0x5c2>
 80027c6:	2303      	movs	r3, #3
 80027c8:	e07a      	b.n	80028c0 <HAL_RCC_OscConfig+0x6b8>
 80027ca:	4b3f      	ldr	r3, [pc, #252]	; (80028c8 <HAL_RCC_OscConfig+0x6c0>)
 80027cc:	681b      	ldr	r3, [r3, #0]
 80027ce:	f003 7300 	and.w	r3, r3, #33554432	; 0x2000000
 80027d2:	2b00      	cmp	r3, #0
 80027d4:	d1f0      	bne.n	80027b8 <HAL_RCC_OscConfig+0x5b0>
 80027d6:	493c      	ldr	r1, [pc, #240]	; (80028c8 <HAL_RCC_OscConfig+0x6c0>)
 80027d8:	687b      	ldr	r3, [r7, #4]
 80027da:	6b1b      	ldr	r3, [r3, #48]	; 0x30
 80027dc:	3b01      	subs	r3, #1
 80027de:	011a      	lsls	r2, r3, #4
 80027e0:	687b      	ldr	r3, [r7, #4]
 80027e2:	6b5b      	ldr	r3, [r3, #52]	; 0x34
 80027e4:	021b      	lsls	r3, r3, #8
 80027e6:	431a      	orrs	r2, r3
 80027e8:	687b      	ldr	r3, [r7, #4]
 80027ea:	6b9b      	ldr	r3, [r3, #56]	; 0x38
 80027ec:	091b      	lsrs	r3, r3, #4
 80027ee:	045b      	lsls	r3, r3, #17
 80027f0:	431a      	orrs	r2, r3
 80027f2:	687b      	ldr	r3, [r7, #4]
 80027f4:	6adb      	ldr	r3, [r3, #44]	; 0x2c
 80027f6:	431a      	orrs	r2, r3
 80027f8:	687b      	ldr	r3, [r7, #4]
 80027fa:	6bdb      	ldr	r3, [r3, #60]	; 0x3c
 80027fc:	085b      	lsrs	r3, r3, #1
 80027fe:	3b01      	subs	r3, #1
 8002800:	055b      	lsls	r3, r3, #21
 8002802:	431a      	orrs	r2, r3
 8002804:	687b      	ldr	r3, [r7, #4]
 8002806:	6c1b      	ldr	r3, [r3, #64]	; 0x40
 8002808:	085b      	lsrs	r3, r3, #1
 800280a:	3b01      	subs	r3, #1
 800280c:	065b      	lsls	r3, r3, #25
 800280e:	4313      	orrs	r3, r2
 8002810:	60cb      	str	r3, [r1, #12]
 8002812:	4a2d      	ldr	r2, [pc, #180]	; (80028c8 <HAL_RCC_OscConfig+0x6c0>)
 8002814:	4b2c      	ldr	r3, [pc, #176]	; (80028c8 <HAL_RCC_OscConfig+0x6c0>)
 8002816:	681b      	ldr	r3, [r3, #0]
 8002818:	f043 7380 	orr.w	r3, r3, #16777216	; 0x1000000
 800281c:	6013      	str	r3, [r2, #0]
 800281e:	4a2a      	ldr	r2, [pc, #168]	; (80028c8 <HAL_RCC_OscConfig+0x6c0>)
 8002820:	4b29      	ldr	r3, [pc, #164]	; (80028c8 <HAL_RCC_OscConfig+0x6c0>)
 8002822:	68db      	ldr	r3, [r3, #12]
 8002824:	f043 7380 	orr.w	r3, r3, #16777216	; 0x1000000
 8002828:	60d3      	str	r3, [r2, #12]
 800282a:	f7fe fc31 	bl	8001090 <HAL_GetTick>
 800282e:	6138      	str	r0, [r7, #16]
 8002830:	e008      	b.n	8002844 <HAL_RCC_OscConfig+0x63c>
 8002832:	f7fe fc2d 	bl	8001090 <HAL_GetTick>
 8002836:	4602      	mov	r2, r0
 8002838:	693b      	ldr	r3, [r7, #16]
 800283a:	1ad3      	subs	r3, r2, r3
 800283c:	2b02      	cmp	r3, #2
 800283e:	d901      	bls.n	8002844 <HAL_RCC_OscConfig+0x63c>
 8002840:	2303      	movs	r3, #3
 8002842:	e03d      	b.n	80028c0 <HAL_RCC_OscConfig+0x6b8>
 8002844:	4b20      	ldr	r3, [pc, #128]	; (80028c8 <HAL_RCC_OscConfig+0x6c0>)
 8002846:	681b      	ldr	r3, [r3, #0]
 8002848:	f003 7300 	and.w	r3, r3, #33554432	; 0x2000000
 800284c:	2b00      	cmp	r3, #0
 800284e:	d0f0      	beq.n	8002832 <HAL_RCC_OscConfig+0x62a>
 8002850:	e035      	b.n	80028be <HAL_RCC_OscConfig+0x6b6>
 8002852:	4a1d      	ldr	r2, [pc, #116]	; (80028c8 <HAL_RCC_OscConfig+0x6c0>)
 8002854:	4b1c      	ldr	r3, [pc, #112]	; (80028c8 <HAL_RCC_OscConfig+0x6c0>)
 8002856:	681b      	ldr	r3, [r3, #0]
 8002858:	f023 7380 	bic.w	r3, r3, #16777216	; 0x1000000
 800285c:	6013      	str	r3, [r2, #0]
 800285e:	4b1a      	ldr	r3, [pc, #104]	; (80028c8 <HAL_RCC_OscConfig+0x6c0>)
 8002860:	681b      	ldr	r3, [r3, #0]
 8002862:	f003 6300 	and.w	r3, r3, #134217728	; 0x8000000
 8002866:	2b00      	cmp	r3, #0
 8002868:	d10b      	bne.n	8002882 <HAL_RCC_OscConfig+0x67a>
 800286a:	4b17      	ldr	r3, [pc, #92]	; (80028c8 <HAL_RCC_OscConfig+0x6c0>)
 800286c:	681b      	ldr	r3, [r3, #0]
 800286e:	f003 5300 	and.w	r3, r3, #536870912	; 0x20000000
 8002872:	2b00      	cmp	r3, #0
 8002874:	d105      	bne.n	8002882 <HAL_RCC_OscConfig+0x67a>
 8002876:	4a14      	ldr	r2, [pc, #80]	; (80028c8 <HAL_RCC_OscConfig+0x6c0>)
 8002878:	4b13      	ldr	r3, [pc, #76]	; (80028c8 <HAL_RCC_OscConfig+0x6c0>)
 800287a:	68db      	ldr	r3, [r3, #12]
 800287c:	f023 0303 	bic.w	r3, r3, #3
 8002880:	60d3      	str	r3, [r2, #12]
 8002882:	4a11      	ldr	r2, [pc, #68]	; (80028c8 <HAL_RCC_OscConfig+0x6c0>)
 8002884:	4b10      	ldr	r3, [pc, #64]	; (80028c8 <HAL_RCC_OscConfig+0x6c0>)
 8002886:	68db      	ldr	r3, [r3, #12]
 8002888:	f023 7388 	bic.w	r3, r3, #17825792	; 0x1100000
 800288c:	f423 3380 	bic.w	r3, r3, #65536	; 0x10000
 8002890:	60d3      	str	r3, [r2, #12]
 8002892:	f7fe fbfd 	bl	8001090 <HAL_GetTick>
 8002896:	6138      	str	r0, [r7, #16]
 8002898:	e008      	b.n	80028ac <HAL_RCC_OscConfig+0x6a4>
 800289a:	f7fe fbf9 	bl	8001090 <HAL_GetTick>
 800289e:	4602      	mov	r2, r0
 80028a0:	693b      	ldr	r3, [r7, #16]
 80028a2:	1ad3      	subs	r3, r2, r3
 80028a4:	2b02      	cmp	r3, #2
 80028a6:	d901      	bls.n	80028ac <HAL_RCC_OscConfig+0x6a4>
 80028a8:	2303      	movs	r3, #3
 80028aa:	e009      	b.n	80028c0 <HAL_RCC_OscConfig+0x6b8>
 80028ac:	4b06      	ldr	r3, [pc, #24]	; (80028c8 <HAL_RCC_OscConfig+0x6c0>)
 80028ae:	681b      	ldr	r3, [r3, #0]
 80028b0:	f003 7300 	and.w	r3, r3, #33554432	; 0x2000000
 80028b4:	2b00      	cmp	r3, #0
 80028b6:	d1f0      	bne.n	800289a <HAL_RCC_OscConfig+0x692>
 80028b8:	e001      	b.n	80028be <HAL_RCC_OscConfig+0x6b6>
 80028ba:	2301      	movs	r3, #1
 80028bc:	e000      	b.n	80028c0 <HAL_RCC_OscConfig+0x6b8>
 80028be:	2300      	movs	r3, #0
 80028c0:	4618      	mov	r0, r3
 80028c2:	3718      	adds	r7, #24
 80028c4:	46bd      	mov	sp, r7
 80028c6:	bd80      	pop	{r7, pc}
 80028c8:	40021000 	.word	0x40021000

080028cc <HAL_RCC_ClockConfig>:
 80028cc:	b580      	push	{r7, lr}
 80028ce:	b084      	sub	sp, #16
 80028d0:	af00      	add	r7, sp, #0
 80028d2:	6078      	str	r0, [r7, #4]
 80028d4:	6039      	str	r1, [r7, #0]
 80028d6:	2300      	movs	r3, #0
 80028d8:	60fb      	str	r3, [r7, #12]
 80028da:	4b84      	ldr	r3, [pc, #528]	; (8002aec <HAL_RCC_ClockConfig+0x220>)
 80028dc:	681b      	ldr	r3, [r3, #0]
 80028de:	f003 0207 	and.w	r2, r3, #7
 80028e2:	683b      	ldr	r3, [r7, #0]
 80028e4:	429a      	cmp	r2, r3
 80028e6:	d210      	bcs.n	800290a <HAL_RCC_ClockConfig+0x3e>
 80028e8:	4980      	ldr	r1, [pc, #512]	; (8002aec <HAL_RCC_ClockConfig+0x220>)
 80028ea:	4b80      	ldr	r3, [pc, #512]	; (8002aec <HAL_RCC_ClockConfig+0x220>)
 80028ec:	681b      	ldr	r3, [r3, #0]
 80028ee:	f023 0207 	bic.w	r2, r3, #7
 80028f2:	683b      	ldr	r3, [r7, #0]
 80028f4:	4313      	orrs	r3, r2
 80028f6:	600b      	str	r3, [r1, #0]
 80028f8:	4b7c      	ldr	r3, [pc, #496]	; (8002aec <HAL_RCC_ClockConfig+0x220>)
 80028fa:	681b      	ldr	r3, [r3, #0]
 80028fc:	f003 0207 	and.w	r2, r3, #7
 8002900:	683b      	ldr	r3, [r7, #0]
 8002902:	429a      	cmp	r2, r3
 8002904:	d001      	beq.n	800290a <HAL_RCC_ClockConfig+0x3e>
 8002906:	2301      	movs	r3, #1
 8002908:	e0ec      	b.n	8002ae4 <HAL_RCC_ClockConfig+0x218>
 800290a:	687b      	ldr	r3, [r7, #4]
 800290c:	681b      	ldr	r3, [r3, #0]
 800290e:	f003 0301 	and.w	r3, r3, #1
 8002912:	2b00      	cmp	r3, #0
 8002914:	f000 808e 	beq.w	8002a34 <HAL_RCC_ClockConfig+0x168>
 8002918:	687b      	ldr	r3, [r7, #4]
 800291a:	685b      	ldr	r3, [r3, #4]
 800291c:	2b03      	cmp	r3, #3
 800291e:	d107      	bne.n	8002930 <HAL_RCC_ClockConfig+0x64>
 8002920:	4b73      	ldr	r3, [pc, #460]	; (8002af0 <HAL_RCC_ClockConfig+0x224>)
 8002922:	681b      	ldr	r3, [r3, #0]
 8002924:	f003 7300 	and.w	r3, r3, #33554432	; 0x2000000
 8002928:	2b00      	cmp	r3, #0
 800292a:	d121      	bne.n	8002970 <HAL_RCC_ClockConfig+0xa4>
 800292c:	2301      	movs	r3, #1
 800292e:	e0d9      	b.n	8002ae4 <HAL_RCC_ClockConfig+0x218>
 8002930:	687b      	ldr	r3, [r7, #4]
 8002932:	685b      	ldr	r3, [r3, #4]
 8002934:	2b02      	cmp	r3, #2
 8002936:	d107      	bne.n	8002948 <HAL_RCC_ClockConfig+0x7c>
 8002938:	4b6d      	ldr	r3, [pc, #436]	; (8002af0 <HAL_RCC_ClockConfig+0x224>)
 800293a:	681b      	ldr	r3, [r3, #0]
 800293c:	f403 3300 	and.w	r3, r3, #131072	; 0x20000
 8002940:	2b00      	cmp	r3, #0
 8002942:	d115      	bne.n	8002970 <HAL_RCC_ClockConfig+0xa4>
 8002944:	2301      	movs	r3, #1
 8002946:	e0cd      	b.n	8002ae4 <HAL_RCC_ClockConfig+0x218>
 8002948:	687b      	ldr	r3, [r7, #4]
 800294a:	685b      	ldr	r3, [r3, #4]
 800294c:	2b00      	cmp	r3, #0
 800294e:	d107      	bne.n	8002960 <HAL_RCC_ClockConfig+0x94>
 8002950:	4b67      	ldr	r3, [pc, #412]	; (8002af0 <HAL_RCC_ClockConfig+0x224>)
 8002952:	681b      	ldr	r3, [r3, #0]
 8002954:	f003 0302 	and.w	r3, r3, #2
 8002958:	2b00      	cmp	r3, #0
 800295a:	d109      	bne.n	8002970 <HAL_RCC_ClockConfig+0xa4>
 800295c:	2301      	movs	r3, #1
 800295e:	e0c1      	b.n	8002ae4 <HAL_RCC_ClockConfig+0x218>
 8002960:	4b63      	ldr	r3, [pc, #396]	; (8002af0 <HAL_RCC_ClockConfig+0x224>)
 8002962:	681b      	ldr	r3, [r3, #0]
 8002964:	f403 6380 	and.w	r3, r3, #1024	; 0x400
 8002968:	2b00      	cmp	r3, #0
 800296a:	d101      	bne.n	8002970 <HAL_RCC_ClockConfig+0xa4>
 800296c:	2301      	movs	r3, #1
 800296e:	e0b9      	b.n	8002ae4 <HAL_RCC_ClockConfig+0x218>
 8002970:	495f      	ldr	r1, [pc, #380]	; (8002af0 <HAL_RCC_ClockConfig+0x224>)
 8002972:	4b5f      	ldr	r3, [pc, #380]	; (8002af0 <HAL_RCC_ClockConfig+0x224>)
 8002974:	689b      	ldr	r3, [r3, #8]
 8002976:	f023 0203 	bic.w	r2, r3, #3
 800297a:	687b      	ldr	r3, [r7, #4]
 800297c:	685b      	ldr	r3, [r3, #4]
 800297e:	4313      	orrs	r3, r2
 8002980:	608b      	str	r3, [r1, #8]
 8002982:	f7fe fb85 	bl	8001090 <HAL_GetTick>
 8002986:	60f8      	str	r0, [r7, #12]
 8002988:	687b      	ldr	r3, [r7, #4]
 800298a:	685b      	ldr	r3, [r3, #4]
 800298c:	2b03      	cmp	r3, #3
 800298e:	d112      	bne.n	80029b6 <HAL_RCC_ClockConfig+0xea>
 8002990:	e00a      	b.n	80029a8 <HAL_RCC_ClockConfig+0xdc>
 8002992:	f7fe fb7d 	bl	8001090 <HAL_GetTick>
 8002996:	4602      	mov	r2, r0
 8002998:	68fb      	ldr	r3, [r7, #12]
 800299a:	1ad3      	subs	r3, r2, r3
 800299c:	f241 3288 	movw	r2, #5000	; 0x1388
 80029a0:	4293      	cmp	r3, r2
 80029a2:	d901      	bls.n	80029a8 <HAL_RCC_ClockConfig+0xdc>
 80029a4:	2303      	movs	r3, #3
 80029a6:	e09d      	b.n	8002ae4 <HAL_RCC_ClockConfig+0x218>
 80029a8:	4b51      	ldr	r3, [pc, #324]	; (8002af0 <HAL_RCC_ClockConfig+0x224>)
 80029aa:	689b      	ldr	r3, [r3, #8]
 80029ac:	f003 030c 	and.w	r3, r3, #12
 80029b0:	2b0c      	cmp	r3, #12
 80029b2:	d1ee      	bne.n	8002992 <HAL_RCC_ClockConfig+0xc6>
 80029b4:	e03e      	b.n	8002a34 <HAL_RCC_ClockConfig+0x168>
 80029b6:	687b      	ldr	r3, [r7, #4]
 80029b8:	685b      	ldr	r3, [r3, #4]
 80029ba:	2b02      	cmp	r3, #2
 80029bc:	d112      	bne.n	80029e4 <HAL_RCC_ClockConfig+0x118>
 80029be:	e00a      	b.n	80029d6 <HAL_RCC_ClockConfig+0x10a>
 80029c0:	f7fe fb66 	bl	8001090 <HAL_GetTick>
 80029c4:	4602      	mov	r2, r0
 80029c6:	68fb      	ldr	r3, [r7, #12]
 80029c8:	1ad3      	subs	r3, r2, r3
 80029ca:	f241 3288 	movw	r2, #5000	; 0x1388
 80029ce:	4293      	cmp	r3, r2
 80029d0:	d901      	bls.n	80029d6 <HAL_RCC_ClockConfig+0x10a>
 80029d2:	2303      	movs	r3, #3
 80029d4:	e086      	b.n	8002ae4 <HAL_RCC_ClockConfig+0x218>
 80029d6:	4b46      	ldr	r3, [pc, #280]	; (8002af0 <HAL_RCC_ClockConfig+0x224>)
 80029d8:	689b      	ldr	r3, [r3, #8]
 80029da:	f003 030c 	and.w	r3, r3, #12
 80029de:	2b08      	cmp	r3, #8
 80029e0:	d1ee      	bne.n	80029c0 <HAL_RCC_ClockConfig+0xf4>
 80029e2:	e027      	b.n	8002a34 <HAL_RCC_ClockConfig+0x168>
 80029e4:	687b      	ldr	r3, [r7, #4]
 80029e6:	685b      	ldr	r3, [r3, #4]
 80029e8:	2b00      	cmp	r3, #0
 80029ea:	d11d      	bne.n	8002a28 <HAL_RCC_ClockConfig+0x15c>
 80029ec:	e00a      	b.n	8002a04 <HAL_RCC_ClockConfig+0x138>
 80029ee:	f7fe fb4f 	bl	8001090 <HAL_GetTick>
 80029f2:	4602      	mov	r2, r0
 80029f4:	68fb      	ldr	r3, [r7, #12]
 80029f6:	1ad3      	subs	r3, r2, r3
 80029f8:	f241 3288 	movw	r2, #5000	; 0x1388
 80029fc:	4293      	cmp	r3, r2
 80029fe:	d901      	bls.n	8002a04 <HAL_RCC_ClockConfig+0x138>
 8002a00:	2303      	movs	r3, #3
 8002a02:	e06f      	b.n	8002ae4 <HAL_RCC_ClockConfig+0x218>
 8002a04:	4b3a      	ldr	r3, [pc, #232]	; (8002af0 <HAL_RCC_ClockConfig+0x224>)
 8002a06:	689b      	ldr	r3, [r3, #8]
 8002a08:	f003 030c 	and.w	r3, r3, #12
 8002a0c:	2b00      	cmp	r3, #0
 8002a0e:	d1ee      	bne.n	80029ee <HAL_RCC_ClockConfig+0x122>
 8002a10:	e010      	b.n	8002a34 <HAL_RCC_ClockConfig+0x168>
 8002a12:	f7fe fb3d 	bl	8001090 <HAL_GetTick>
 8002a16:	4602      	mov	r2, r0
 8002a18:	68fb      	ldr	r3, [r7, #12]
 8002a1a:	1ad3      	subs	r3, r2, r3
 8002a1c:	f241 3288 	movw	r2, #5000	; 0x1388
 8002a20:	4293      	cmp	r3, r2
 8002a22:	d901      	bls.n	8002a28 <HAL_RCC_ClockConfig+0x15c>
 8002a24:	2303      	movs	r3, #3
 8002a26:	e05d      	b.n	8002ae4 <HAL_RCC_ClockConfig+0x218>
 8002a28:	4b31      	ldr	r3, [pc, #196]	; (8002af0 <HAL_RCC_ClockConfig+0x224>)
 8002a2a:	689b      	ldr	r3, [r3, #8]
 8002a2c:	f003 030c 	and.w	r3, r3, #12
 8002a30:	2b04      	cmp	r3, #4
 8002a32:	d1ee      	bne.n	8002a12 <HAL_RCC_ClockConfig+0x146>
 8002a34:	687b      	ldr	r3, [r7, #4]
 8002a36:	681b      	ldr	r3, [r3, #0]
 8002a38:	f003 0302 	and.w	r3, r3, #2
 8002a3c:	2b00      	cmp	r3, #0
 8002a3e:	d008      	beq.n	8002a52 <HAL_RCC_ClockConfig+0x186>
 8002a40:	492b      	ldr	r1, [pc, #172]	; (8002af0 <HAL_RCC_ClockConfig+0x224>)
 8002a42:	4b2b      	ldr	r3, [pc, #172]	; (8002af0 <HAL_RCC_ClockConfig+0x224>)
 8002a44:	689b      	ldr	r3, [r3, #8]
 8002a46:	f023 02f0 	bic.w	r2, r3, #240	; 0xf0
 8002a4a:	687b      	ldr	r3, [r7, #4]
 8002a4c:	689b      	ldr	r3, [r3, #8]
 8002a4e:	4313      	orrs	r3, r2
 8002a50:	608b      	str	r3, [r1, #8]
 8002a52:	4b26      	ldr	r3, [pc, #152]	; (8002aec <HAL_RCC_ClockConfig+0x220>)
 8002a54:	681b      	ldr	r3, [r3, #0]
 8002a56:	f003 0207 	and.w	r2, r3, #7
 8002a5a:	683b      	ldr	r3, [r7, #0]
 8002a5c:	429a      	cmp	r2, r3
 8002a5e:	d910      	bls.n	8002a82 <HAL_RCC_ClockConfig+0x1b6>
 8002a60:	4922      	ldr	r1, [pc, #136]	; (8002aec <HAL_RCC_ClockConfig+0x220>)
 8002a62:	4b22      	ldr	r3, [pc, #136]	; (8002aec <HAL_RCC_ClockConfig+0x220>)
 8002a64:	681b      	ldr	r3, [r3, #0]
 8002a66:	f023 0207 	bic.w	r2, r3, #7
 8002a6a:	683b      	ldr	r3, [r7, #0]
 8002a6c:	4313      	orrs	r3, r2
 8002a6e:	600b      	str	r3, [r1, #0]
 8002a70:	4b1e      	ldr	r3, [pc, #120]	; (8002aec <HAL_RCC_ClockConfig+0x220>)
 8002a72:	681b      	ldr	r3, [r3, #0]
 8002a74:	f003 0207 	and.w	r2, r3, #7
 8002a78:	683b      	ldr	r3, [r7, #0]
 8002a7a:	429a      	cmp	r2, r3
 8002a7c:	d001      	beq.n	8002a82 <HAL_RCC_ClockConfig+0x1b6>
 8002a7e:	2301      	movs	r3, #1
 8002a80:	e030      	b.n	8002ae4 <HAL_RCC_ClockConfig+0x218>
 8002a82:	687b      	ldr	r3, [r7, #4]
 8002a84:	681b      	ldr	r3, [r3, #0]
 8002a86:	f003 0304 	and.w	r3, r3, #4
 8002a8a:	2b00      	cmp	r3, #0
 8002a8c:	d008      	beq.n	8002aa0 <HAL_RCC_ClockConfig+0x1d4>
 8002a8e:	4918      	ldr	r1, [pc, #96]	; (8002af0 <HAL_RCC_ClockConfig+0x224>)
 8002a90:	4b17      	ldr	r3, [pc, #92]	; (8002af0 <HAL_RCC_ClockConfig+0x224>)
 8002a92:	689b      	ldr	r3, [r3, #8]
 8002a94:	f423 62e0 	bic.w	r2, r3, #1792	; 0x700
 8002a98:	687b      	ldr	r3, [r7, #4]
 8002a9a:	68db      	ldr	r3, [r3, #12]
 8002a9c:	4313      	orrs	r3, r2
 8002a9e:	608b      	str	r3, [r1, #8]
 8002aa0:	687b      	ldr	r3, [r7, #4]
 8002aa2:	681b      	ldr	r3, [r3, #0]
 8002aa4:	f003 0308 	and.w	r3, r3, #8
 8002aa8:	2b00      	cmp	r3, #0
 8002aaa:	d009      	beq.n	8002ac0 <HAL_RCC_ClockConfig+0x1f4>
 8002aac:	4910      	ldr	r1, [pc, #64]	; (8002af0 <HAL_RCC_ClockConfig+0x224>)
 8002aae:	4b10      	ldr	r3, [pc, #64]	; (8002af0 <HAL_RCC_ClockConfig+0x224>)
 8002ab0:	689b      	ldr	r3, [r3, #8]
 8002ab2:	f423 5260 	bic.w	r2, r3, #14336	; 0x3800
 8002ab6:	687b      	ldr	r3, [r7, #4]
 8002ab8:	691b      	ldr	r3, [r3, #16]
 8002aba:	00db      	lsls	r3, r3, #3
 8002abc:	4313      	orrs	r3, r2
 8002abe:	608b      	str	r3, [r1, #8]
 8002ac0:	f000 f81c 	bl	8002afc <HAL_RCC_GetSysClockFreq>
 8002ac4:	4601      	mov	r1, r0
 8002ac6:	4b0a      	ldr	r3, [pc, #40]	; (8002af0 <HAL_RCC_ClockConfig+0x224>)
 8002ac8:	689b      	ldr	r3, [r3, #8]
 8002aca:	091b      	lsrs	r3, r3, #4
 8002acc:	f003 030f 	and.w	r3, r3, #15
 8002ad0:	4a08      	ldr	r2, [pc, #32]	; (8002af4 <HAL_RCC_ClockConfig+0x228>)
 8002ad2:	5cd3      	ldrb	r3, [r2, r3]
 8002ad4:	fa21 f303 	lsr.w	r3, r1, r3
 8002ad8:	4a07      	ldr	r2, [pc, #28]	; (8002af8 <HAL_RCC_ClockConfig+0x22c>)
 8002ada:	6013      	str	r3, [r2, #0]
 8002adc:	2000      	movs	r0, #0
 8002ade:	f7fe faad 	bl	800103c <HAL_InitTick>
 8002ae2:	2300      	movs	r3, #0
 8002ae4:	4618      	mov	r0, r3
 8002ae6:	3710      	adds	r7, #16
 8002ae8:	46bd      	mov	sp, r7
 8002aea:	bd80      	pop	{r7, pc}
 8002aec:	40022000 	.word	0x40022000
 8002af0:	40021000 	.word	0x40021000
 8002af4:	08008db0 	.word	0x08008db0
 8002af8:	20000004 	.word	0x20000004

08002afc <HAL_RCC_GetSysClockFreq>:
 8002afc:	b480      	push	{r7}
 8002afe:	b087      	sub	sp, #28
 8002b00:	af00      	add	r7, sp, #0
 8002b02:	2300      	movs	r3, #0
 8002b04:	617b      	str	r3, [r7, #20]
 8002b06:	2300      	movs	r3, #0
 8002b08:	613b      	str	r3, [r7, #16]
 8002b0a:	2300      	movs	r3, #0
 8002b0c:	60bb      	str	r3, [r7, #8]
 8002b0e:	2302      	movs	r3, #2
 8002b10:	607b      	str	r3, [r7, #4]
 8002b12:	2302      	movs	r3, #2
 8002b14:	603b      	str	r3, [r7, #0]
 8002b16:	2300      	movs	r3, #0
 8002b18:	60fb      	str	r3, [r7, #12]
 8002b1a:	4b4c      	ldr	r3, [pc, #304]	; (8002c4c <HAL_RCC_GetSysClockFreq+0x150>)
 8002b1c:	689b      	ldr	r3, [r3, #8]
 8002b1e:	f003 030c 	and.w	r3, r3, #12
 8002b22:	2b00      	cmp	r3, #0
 8002b24:	d00b      	beq.n	8002b3e <HAL_RCC_GetSysClockFreq+0x42>
 8002b26:	4b49      	ldr	r3, [pc, #292]	; (8002c4c <HAL_RCC_GetSysClockFreq+0x150>)
 8002b28:	689b      	ldr	r3, [r3, #8]
 8002b2a:	f003 030c 	and.w	r3, r3, #12
 8002b2e:	2b0c      	cmp	r3, #12
 8002b30:	d127      	bne.n	8002b82 <HAL_RCC_GetSysClockFreq+0x86>
 8002b32:	4b46      	ldr	r3, [pc, #280]	; (8002c4c <HAL_RCC_GetSysClockFreq+0x150>)
 8002b34:	68db      	ldr	r3, [r3, #12]
 8002b36:	f003 0303 	and.w	r3, r3, #3
 8002b3a:	2b01      	cmp	r3, #1
 8002b3c:	d121      	bne.n	8002b82 <HAL_RCC_GetSysClockFreq+0x86>
 8002b3e:	4b43      	ldr	r3, [pc, #268]	; (8002c4c <HAL_RCC_GetSysClockFreq+0x150>)
 8002b40:	681b      	ldr	r3, [r3, #0]
 8002b42:	f003 0308 	and.w	r3, r3, #8
 8002b46:	2b00      	cmp	r3, #0
 8002b48:	d107      	bne.n	8002b5a <HAL_RCC_GetSysClockFreq+0x5e>
 8002b4a:	4b40      	ldr	r3, [pc, #256]	; (8002c4c <HAL_RCC_GetSysClockFreq+0x150>)
 8002b4c:	f8d3 3094 	ldr.w	r3, [r3, #148]	; 0x94
 8002b50:	0a1b      	lsrs	r3, r3, #8
 8002b52:	f003 030f 	and.w	r3, r3, #15
 8002b56:	617b      	str	r3, [r7, #20]
 8002b58:	e005      	b.n	8002b66 <HAL_RCC_GetSysClockFreq+0x6a>
 8002b5a:	4b3c      	ldr	r3, [pc, #240]	; (8002c4c <HAL_RCC_GetSysClockFreq+0x150>)
 8002b5c:	681b      	ldr	r3, [r3, #0]
 8002b5e:	091b      	lsrs	r3, r3, #4
 8002b60:	f003 030f 	and.w	r3, r3, #15
 8002b64:	617b      	str	r3, [r7, #20]
 8002b66:	4a3a      	ldr	r2, [pc, #232]	; (8002c50 <HAL_RCC_GetSysClockFreq+0x154>)
 8002b68:	697b      	ldr	r3, [r7, #20]
 8002b6a:	f852 3023 	ldr.w	r3, [r2, r3, lsl #2]
 8002b6e:	617b      	str	r3, [r7, #20]
 8002b70:	4b36      	ldr	r3, [pc, #216]	; (8002c4c <HAL_RCC_GetSysClockFreq+0x150>)
 8002b72:	689b      	ldr	r3, [r3, #8]
 8002b74:	f003 030c 	and.w	r3, r3, #12
 8002b78:	2b00      	cmp	r3, #0
 8002b7a:	d113      	bne.n	8002ba4 <HAL_RCC_GetSysClockFreq+0xa8>
 8002b7c:	697b      	ldr	r3, [r7, #20]
 8002b7e:	60fb      	str	r3, [r7, #12]
 8002b80:	e010      	b.n	8002ba4 <HAL_RCC_GetSysClockFreq+0xa8>
 8002b82:	4b32      	ldr	r3, [pc, #200]	; (8002c4c <HAL_RCC_GetSysClockFreq+0x150>)
 8002b84:	689b      	ldr	r3, [r3, #8]
 8002b86:	f003 030c 	and.w	r3, r3, #12
 8002b8a:	2b04      	cmp	r3, #4
 8002b8c:	d102      	bne.n	8002b94 <HAL_RCC_GetSysClockFreq+0x98>
 8002b8e:	4b31      	ldr	r3, [pc, #196]	; (8002c54 <HAL_RCC_GetSysClockFreq+0x158>)
 8002b90:	60fb      	str	r3, [r7, #12]
 8002b92:	e007      	b.n	8002ba4 <HAL_RCC_GetSysClockFreq+0xa8>
 8002b94:	4b2d      	ldr	r3, [pc, #180]	; (8002c4c <HAL_RCC_GetSysClockFreq+0x150>)
 8002b96:	689b      	ldr	r3, [r3, #8]
 8002b98:	f003 030c 	and.w	r3, r3, #12
 8002b9c:	2b08      	cmp	r3, #8
 8002b9e:	d101      	bne.n	8002ba4 <HAL_RCC_GetSysClockFreq+0xa8>
 8002ba0:	4b2d      	ldr	r3, [pc, #180]	; (8002c58 <HAL_RCC_GetSysClockFreq+0x15c>)
 8002ba2:	60fb      	str	r3, [r7, #12]
 8002ba4:	4b29      	ldr	r3, [pc, #164]	; (8002c4c <HAL_RCC_GetSysClockFreq+0x150>)
 8002ba6:	689b      	ldr	r3, [r3, #8]
 8002ba8:	f003 030c 	and.w	r3, r3, #12
 8002bac:	2b0c      	cmp	r3, #12
 8002bae:	d145      	bne.n	8002c3c <HAL_RCC_GetSysClockFreq+0x140>
 8002bb0:	4b26      	ldr	r3, [pc, #152]	; (8002c4c <HAL_RCC_GetSysClockFreq+0x150>)
 8002bb2:	68db      	ldr	r3, [r3, #12]
 8002bb4:	f003 0303 	and.w	r3, r3, #3
 8002bb8:	60bb      	str	r3, [r7, #8]
 8002bba:	4b24      	ldr	r3, [pc, #144]	; (8002c4c <HAL_RCC_GetSysClockFreq+0x150>)
 8002bbc:	68db      	ldr	r3, [r3, #12]
 8002bbe:	091b      	lsrs	r3, r3, #4
 8002bc0:	f003 0307 	and.w	r3, r3, #7
 8002bc4:	3301      	adds	r3, #1
 8002bc6:	603b      	str	r3, [r7, #0]
 8002bc8:	68bb      	ldr	r3, [r7, #8]
 8002bca:	2b02      	cmp	r3, #2
 8002bcc:	d002      	beq.n	8002bd4 <HAL_RCC_GetSysClockFreq+0xd8>
 8002bce:	2b03      	cmp	r3, #3
 8002bd0:	d00d      	beq.n	8002bee <HAL_RCC_GetSysClockFreq+0xf2>
 8002bd2:	e019      	b.n	8002c08 <HAL_RCC_GetSysClockFreq+0x10c>
 8002bd4:	4a1f      	ldr	r2, [pc, #124]	; (8002c54 <HAL_RCC_GetSysClockFreq+0x158>)
 8002bd6:	683b      	ldr	r3, [r7, #0]
 8002bd8:	fbb2 f3f3 	udiv	r3, r2, r3
 8002bdc:	4a1b      	ldr	r2, [pc, #108]	; (8002c4c <HAL_RCC_GetSysClockFreq+0x150>)
 8002bde:	68d2      	ldr	r2, [r2, #12]
 8002be0:	0a12      	lsrs	r2, r2, #8
 8002be2:	f002 027f 	and.w	r2, r2, #127	; 0x7f
 8002be6:	fb02 f303 	mul.w	r3, r2, r3
 8002bea:	613b      	str	r3, [r7, #16]
 8002bec:	e019      	b.n	8002c22 <HAL_RCC_GetSysClockFreq+0x126>
 8002bee:	4a1a      	ldr	r2, [pc, #104]	; (8002c58 <HAL_RCC_GetSysClockFreq+0x15c>)
 8002bf0:	683b      	ldr	r3, [r7, #0]
 8002bf2:	fbb2 f3f3 	udiv	r3, r2, r3
 8002bf6:	4a15      	ldr	r2, [pc, #84]	; (8002c4c <HAL_RCC_GetSysClockFreq+0x150>)
 8002bf8:	68d2      	ldr	r2, [r2, #12]
 8002bfa:	0a12      	lsrs	r2, r2, #8
 8002bfc:	f002 027f 	and.w	r2, r2, #127	; 0x7f
 8002c00:	fb02 f303 	mul.w	r3, r2, r3
 8002c04:	613b      	str	r3, [r7, #16]
 8002c06:	e00c      	b.n	8002c22 <HAL_RCC_GetSysClockFreq+0x126>
 8002c08:	697a      	ldr	r2, [r7, #20]
 8002c0a:	683b      	ldr	r3, [r7, #0]
 8002c0c:	fbb2 f3f3 	udiv	r3, r2, r3
 8002c10:	4a0e      	ldr	r2, [pc, #56]	; (8002c4c <HAL_RCC_GetSysClockFreq+0x150>)
 8002c12:	68d2      	ldr	r2, [r2, #12]
 8002c14:	0a12      	lsrs	r2, r2, #8
 8002c16:	f002 027f 	and.w	r2, r2, #127	; 0x7f
 8002c1a:	fb02 f303 	mul.w	r3, r2, r3
 8002c1e:	613b      	str	r3, [r7, #16]
 8002c20:	bf00      	nop
 8002c22:	4b0a      	ldr	r3, [pc, #40]	; (8002c4c <HAL_RCC_GetSysClockFreq+0x150>)
 8002c24:	68db      	ldr	r3, [r3, #12]
 8002c26:	0e5b      	lsrs	r3, r3, #25
 8002c28:	f003 0303 	and.w	r3, r3, #3
 8002c2c:	3301      	adds	r3, #1
 8002c2e:	005b      	lsls	r3, r3, #1
 8002c30:	607b      	str	r3, [r7, #4]
 8002c32:	693a      	ldr	r2, [r7, #16]
 8002c34:	687b      	ldr	r3, [r7, #4]
 8002c36:	fbb2 f3f3 	udiv	r3, r2, r3
 8002c3a:	60fb      	str	r3, [r7, #12]
 8002c3c:	68fb      	ldr	r3, [r7, #12]
 8002c3e:	4618      	mov	r0, r3
 8002c40:	371c      	adds	r7, #28
 8002c42:	46bd      	mov	sp, r7
 8002c44:	f85d 7b04 	ldr.w	r7, [sp], #4
 8002c48:	4770      	bx	lr
 8002c4a:	bf00      	nop
 8002c4c:	40021000 	.word	0x40021000
 8002c50:	08008dc8 	.word	0x08008dc8
 8002c54:	00f42400 	.word	0x00f42400
 8002c58:	007a1200 	.word	0x007a1200

08002c5c <HAL_RCC_GetHCLKFreq>:
 8002c5c:	b480      	push	{r7}
 8002c5e:	af00      	add	r7, sp, #0
 8002c60:	4b03      	ldr	r3, [pc, #12]	; (8002c70 <HAL_RCC_GetHCLKFreq+0x14>)
 8002c62:	681b      	ldr	r3, [r3, #0]
 8002c64:	4618      	mov	r0, r3
 8002c66:	46bd      	mov	sp, r7
 8002c68:	f85d 7b04 	ldr.w	r7, [sp], #4
 8002c6c:	4770      	bx	lr
 8002c6e:	bf00      	nop
 8002c70:	20000004 	.word	0x20000004

08002c74 <HAL_RCC_GetPCLK1Freq>:
 8002c74:	b580      	push	{r7, lr}
 8002c76:	af00      	add	r7, sp, #0
 8002c78:	f7ff fff0 	bl	8002c5c <HAL_RCC_GetHCLKFreq>
 8002c7c:	4601      	mov	r1, r0
 8002c7e:	4b05      	ldr	r3, [pc, #20]	; (8002c94 <HAL_RCC_GetPCLK1Freq+0x20>)
 8002c80:	689b      	ldr	r3, [r3, #8]
 8002c82:	0a1b      	lsrs	r3, r3, #8
 8002c84:	f003 0307 	and.w	r3, r3, #7
 8002c88:	4a03      	ldr	r2, [pc, #12]	; (8002c98 <HAL_RCC_GetPCLK1Freq+0x24>)
 8002c8a:	5cd3      	ldrb	r3, [r2, r3]
 8002c8c:	fa21 f303 	lsr.w	r3, r1, r3
 8002c90:	4618      	mov	r0, r3
 8002c92:	bd80      	pop	{r7, pc}
 8002c94:	40021000 	.word	0x40021000
 8002c98:	08008dc0 	.word	0x08008dc0

08002c9c <HAL_RCC_GetPCLK2Freq>:
 8002c9c:	b580      	push	{r7, lr}
 8002c9e:	af00      	add	r7, sp, #0
 8002ca0:	f7ff ffdc 	bl	8002c5c <HAL_RCC_GetHCLKFreq>
 8002ca4:	4601      	mov	r1, r0
 8002ca6:	4b05      	ldr	r3, [pc, #20]	; (8002cbc <HAL_RCC_GetPCLK2Freq+0x20>)
 8002ca8:	689b      	ldr	r3, [r3, #8]
 8002caa:	0adb      	lsrs	r3, r3, #11
 8002cac:	f003 0307 	and.w	r3, r3, #7
 8002cb0:	4a03      	ldr	r2, [pc, #12]	; (8002cc0 <HAL_RCC_GetPCLK2Freq+0x24>)
 8002cb2:	5cd3      	ldrb	r3, [r2, r3]
 8002cb4:	fa21 f303 	lsr.w	r3, r1, r3
 8002cb8:	4618      	mov	r0, r3
 8002cba:	bd80      	pop	{r7, pc}
 8002cbc:	40021000 	.word	0x40021000
 8002cc0:	08008dc0 	.word	0x08008dc0

08002cc4 <RCC_SetFlashLatencyFromMSIRange>:
 8002cc4:	b580      	push	{r7, lr}
 8002cc6:	b086      	sub	sp, #24
 8002cc8:	af00      	add	r7, sp, #0
 8002cca:	6078      	str	r0, [r7, #4]
 8002ccc:	2300      	movs	r3, #0
 8002cce:	617b      	str	r3, [r7, #20]
 8002cd0:	2300      	movs	r3, #0
 8002cd2:	613b      	str	r3, [r7, #16]
 8002cd4:	4b2a      	ldr	r3, [pc, #168]	; (8002d80 <RCC_SetFlashLatencyFromMSIRange+0xbc>)
 8002cd6:	6d9b      	ldr	r3, [r3, #88]	; 0x58
 8002cd8:	f003 5380 	and.w	r3, r3, #268435456	; 0x10000000
 8002cdc:	2b00      	cmp	r3, #0
 8002cde:	d003      	beq.n	8002ce8 <RCC_SetFlashLatencyFromMSIRange+0x24>
 8002ce0:	f7ff fa2e 	bl	8002140 <HAL_PWREx_GetVoltageRange>
 8002ce4:	6178      	str	r0, [r7, #20]
 8002ce6:	e014      	b.n	8002d12 <RCC_SetFlashLatencyFromMSIRange+0x4e>
 8002ce8:	4a25      	ldr	r2, [pc, #148]	; (8002d80 <RCC_SetFlashLatencyFromMSIRange+0xbc>)
 8002cea:	4b25      	ldr	r3, [pc, #148]	; (8002d80 <RCC_SetFlashLatencyFromMSIRange+0xbc>)
 8002cec:	6d9b      	ldr	r3, [r3, #88]	; 0x58
 8002cee:	f043 5380 	orr.w	r3, r3, #268435456	; 0x10000000
 8002cf2:	6593      	str	r3, [r2, #88]	; 0x58
 8002cf4:	4b22      	ldr	r3, [pc, #136]	; (8002d80 <RCC_SetFlashLatencyFromMSIRange+0xbc>)
 8002cf6:	6d9b      	ldr	r3, [r3, #88]	; 0x58
 8002cf8:	f003 5380 	and.w	r3, r3, #268435456	; 0x10000000
 8002cfc:	60fb      	str	r3, [r7, #12]
 8002cfe:	68fb      	ldr	r3, [r7, #12]
 8002d00:	f7ff fa1e 	bl	8002140 <HAL_PWREx_GetVoltageRange>
 8002d04:	6178      	str	r0, [r7, #20]
 8002d06:	4a1e      	ldr	r2, [pc, #120]	; (8002d80 <RCC_SetFlashLatencyFromMSIRange+0xbc>)
 8002d08:	4b1d      	ldr	r3, [pc, #116]	; (8002d80 <RCC_SetFlashLatencyFromMSIRange+0xbc>)
 8002d0a:	6d9b      	ldr	r3, [r3, #88]	; 0x58
 8002d0c:	f023 5380 	bic.w	r3, r3, #268435456	; 0x10000000
 8002d10:	6593      	str	r3, [r2, #88]	; 0x58
 8002d12:	697b      	ldr	r3, [r7, #20]
 8002d14:	f5b3 7f00 	cmp.w	r3, #512	; 0x200
 8002d18:	d10b      	bne.n	8002d32 <RCC_SetFlashLatencyFromMSIRange+0x6e>
 8002d1a:	687b      	ldr	r3, [r7, #4]
 8002d1c:	2b80      	cmp	r3, #128	; 0x80
 8002d1e:	d919      	bls.n	8002d54 <RCC_SetFlashLatencyFromMSIRange+0x90>
 8002d20:	687b      	ldr	r3, [r7, #4]
 8002d22:	2ba0      	cmp	r3, #160	; 0xa0
 8002d24:	d902      	bls.n	8002d2c <RCC_SetFlashLatencyFromMSIRange+0x68>
 8002d26:	2302      	movs	r3, #2
 8002d28:	613b      	str	r3, [r7, #16]
 8002d2a:	e013      	b.n	8002d54 <RCC_SetFlashLatencyFromMSIRange+0x90>
 8002d2c:	2301      	movs	r3, #1
 8002d2e:	613b      	str	r3, [r7, #16]
 8002d30:	e010      	b.n	8002d54 <RCC_SetFlashLatencyFromMSIRange+0x90>
 8002d32:	687b      	ldr	r3, [r7, #4]
 8002d34:	2b80      	cmp	r3, #128	; 0x80
 8002d36:	d902      	bls.n	8002d3e <RCC_SetFlashLatencyFromMSIRange+0x7a>
 8002d38:	2303      	movs	r3, #3
 8002d3a:	613b      	str	r3, [r7, #16]
 8002d3c:	e00a      	b.n	8002d54 <RCC_SetFlashLatencyFromMSIRange+0x90>
 8002d3e:	687b      	ldr	r3, [r7, #4]
 8002d40:	2b80      	cmp	r3, #128	; 0x80
 8002d42:	d102      	bne.n	8002d4a <RCC_SetFlashLatencyFromMSIRange+0x86>
 8002d44:	2302      	movs	r3, #2
 8002d46:	613b      	str	r3, [r7, #16]
 8002d48:	e004      	b.n	8002d54 <RCC_SetFlashLatencyFromMSIRange+0x90>
 8002d4a:	687b      	ldr	r3, [r7, #4]
 8002d4c:	2b70      	cmp	r3, #112	; 0x70
 8002d4e:	d101      	bne.n	8002d54 <RCC_SetFlashLatencyFromMSIRange+0x90>
 8002d50:	2301      	movs	r3, #1
 8002d52:	613b      	str	r3, [r7, #16]
 8002d54:	490b      	ldr	r1, [pc, #44]	; (8002d84 <RCC_SetFlashLatencyFromMSIRange+0xc0>)
 8002d56:	4b0b      	ldr	r3, [pc, #44]	; (8002d84 <RCC_SetFlashLatencyFromMSIRange+0xc0>)
 8002d58:	681b      	ldr	r3, [r3, #0]
 8002d5a:	f023 0207 	bic.w	r2, r3, #7
 8002d5e:	693b      	ldr	r3, [r7, #16]
 8002d60:	4313      	orrs	r3, r2
 8002d62:	600b      	str	r3, [r1, #0]
 8002d64:	4b07      	ldr	r3, [pc, #28]	; (8002d84 <RCC_SetFlashLatencyFromMSIRange+0xc0>)
 8002d66:	681b      	ldr	r3, [r3, #0]
 8002d68:	f003 0207 	and.w	r2, r3, #7
 8002d6c:	693b      	ldr	r3, [r7, #16]
 8002d6e:	429a      	cmp	r2, r3
 8002d70:	d001      	beq.n	8002d76 <RCC_SetFlashLatencyFromMSIRange+0xb2>
 8002d72:	2301      	movs	r3, #1
 8002d74:	e000      	b.n	8002d78 <RCC_SetFlashLatencyFromMSIRange+0xb4>
 8002d76:	2300      	movs	r3, #0
 8002d78:	4618      	mov	r0, r3
 8002d7a:	3718      	adds	r7, #24
 8002d7c:	46bd      	mov	sp, r7
 8002d7e:	bd80      	pop	{r7, pc}
 8002d80:	40021000 	.word	0x40021000
 8002d84:	40022000 	.word	0x40022000

08002d88 <HAL_RCCEx_PeriphCLKConfig>:
 8002d88:	b580      	push	{r7, lr}
 8002d8a:	b086      	sub	sp, #24
 8002d8c:	af00      	add	r7, sp, #0
 8002d8e:	6078      	str	r0, [r7, #4]
 8002d90:	2300      	movs	r3, #0
 8002d92:	617b      	str	r3, [r7, #20]
 8002d94:	2300      	movs	r3, #0
 8002d96:	60fb      	str	r3, [r7, #12]
 8002d98:	2300      	movs	r3, #0
 8002d9a:	74fb      	strb	r3, [r7, #19]
 8002d9c:	2300      	movs	r3, #0
 8002d9e:	74bb      	strb	r3, [r7, #18]
 8002da0:	687b      	ldr	r3, [r7, #4]
 8002da2:	681b      	ldr	r3, [r3, #0]
 8002da4:	f403 6300 	and.w	r3, r3, #2048	; 0x800
 8002da8:	2b00      	cmp	r3, #0
 8002daa:	d03f      	beq.n	8002e2c <HAL_RCCEx_PeriphCLKConfig+0xa4>
 8002dac:	687b      	ldr	r3, [r7, #4]
 8002dae:	6e5b      	ldr	r3, [r3, #100]	; 0x64
 8002db0:	f5b3 0f80 	cmp.w	r3, #4194304	; 0x400000
 8002db4:	d01c      	beq.n	8002df0 <HAL_RCCEx_PeriphCLKConfig+0x68>
 8002db6:	f5b3 0f80 	cmp.w	r3, #4194304	; 0x400000
 8002dba:	d802      	bhi.n	8002dc2 <HAL_RCCEx_PeriphCLKConfig+0x3a>
 8002dbc:	2b00      	cmp	r3, #0
 8002dbe:	d00e      	beq.n	8002dde <HAL_RCCEx_PeriphCLKConfig+0x56>
 8002dc0:	e01f      	b.n	8002e02 <HAL_RCCEx_PeriphCLKConfig+0x7a>
 8002dc2:	f5b3 0f00 	cmp.w	r3, #8388608	; 0x800000
 8002dc6:	d003      	beq.n	8002dd0 <HAL_RCCEx_PeriphCLKConfig+0x48>
 8002dc8:	f5b3 0f40 	cmp.w	r3, #12582912	; 0xc00000
 8002dcc:	d01c      	beq.n	8002e08 <HAL_RCCEx_PeriphCLKConfig+0x80>
 8002dce:	e018      	b.n	8002e02 <HAL_RCCEx_PeriphCLKConfig+0x7a>
 8002dd0:	4a82      	ldr	r2, [pc, #520]	; (8002fdc <HAL_RCCEx_PeriphCLKConfig+0x254>)
 8002dd2:	4b82      	ldr	r3, [pc, #520]	; (8002fdc <HAL_RCCEx_PeriphCLKConfig+0x254>)
 8002dd4:	68db      	ldr	r3, [r3, #12]
 8002dd6:	f443 3380 	orr.w	r3, r3, #65536	; 0x10000
 8002dda:	60d3      	str	r3, [r2, #12]
 8002ddc:	e015      	b.n	8002e0a <HAL_RCCEx_PeriphCLKConfig+0x82>
 8002dde:	687b      	ldr	r3, [r7, #4]
 8002de0:	3304      	adds	r3, #4
 8002de2:	2100      	movs	r1, #0
 8002de4:	4618      	mov	r0, r3
 8002de6:	f000 fab3 	bl	8003350 <RCCEx_PLLSAI1_Config>
 8002dea:	4603      	mov	r3, r0
 8002dec:	74fb      	strb	r3, [r7, #19]
 8002dee:	e00c      	b.n	8002e0a <HAL_RCCEx_PeriphCLKConfig+0x82>
 8002df0:	687b      	ldr	r3, [r7, #4]
 8002df2:	3320      	adds	r3, #32
 8002df4:	2100      	movs	r1, #0
 8002df6:	4618      	mov	r0, r3
 8002df8:	f000 fb9c 	bl	8003534 <RCCEx_PLLSAI2_Config>
 8002dfc:	4603      	mov	r3, r0
 8002dfe:	74fb      	strb	r3, [r7, #19]
 8002e00:	e003      	b.n	8002e0a <HAL_RCCEx_PeriphCLKConfig+0x82>
 8002e02:	2301      	movs	r3, #1
 8002e04:	74fb      	strb	r3, [r7, #19]
 8002e06:	e000      	b.n	8002e0a <HAL_RCCEx_PeriphCLKConfig+0x82>
 8002e08:	bf00      	nop
 8002e0a:	7cfb      	ldrb	r3, [r7, #19]
 8002e0c:	2b00      	cmp	r3, #0
 8002e0e:	d10b      	bne.n	8002e28 <HAL_RCCEx_PeriphCLKConfig+0xa0>
 8002e10:	4972      	ldr	r1, [pc, #456]	; (8002fdc <HAL_RCCEx_PeriphCLKConfig+0x254>)
 8002e12:	4b72      	ldr	r3, [pc, #456]	; (8002fdc <HAL_RCCEx_PeriphCLKConfig+0x254>)
 8002e14:	f8d3 3088 	ldr.w	r3, [r3, #136]	; 0x88
 8002e18:	f423 0240 	bic.w	r2, r3, #12582912	; 0xc00000
 8002e1c:	687b      	ldr	r3, [r7, #4]
 8002e1e:	6e5b      	ldr	r3, [r3, #100]	; 0x64
 8002e20:	4313      	orrs	r3, r2
 8002e22:	f8c1 3088 	str.w	r3, [r1, #136]	; 0x88
 8002e26:	e001      	b.n	8002e2c <HAL_RCCEx_PeriphCLKConfig+0xa4>
 8002e28:	7cfb      	ldrb	r3, [r7, #19]
 8002e2a:	74bb      	strb	r3, [r7, #18]
 8002e2c:	687b      	ldr	r3, [r7, #4]
 8002e2e:	681b      	ldr	r3, [r3, #0]
 8002e30:	f403 5380 	and.w	r3, r3, #4096	; 0x1000
 8002e34:	2b00      	cmp	r3, #0
 8002e36:	d03f      	beq.n	8002eb8 <HAL_RCCEx_PeriphCLKConfig+0x130>
 8002e38:	687b      	ldr	r3, [r7, #4]
 8002e3a:	6e9b      	ldr	r3, [r3, #104]	; 0x68
 8002e3c:	f1b3 7f80 	cmp.w	r3, #16777216	; 0x1000000
 8002e40:	d01c      	beq.n	8002e7c <HAL_RCCEx_PeriphCLKConfig+0xf4>
 8002e42:	f1b3 7f80 	cmp.w	r3, #16777216	; 0x1000000
 8002e46:	d802      	bhi.n	8002e4e <HAL_RCCEx_PeriphCLKConfig+0xc6>
 8002e48:	2b00      	cmp	r3, #0
 8002e4a:	d00e      	beq.n	8002e6a <HAL_RCCEx_PeriphCLKConfig+0xe2>
 8002e4c:	e01f      	b.n	8002e8e <HAL_RCCEx_PeriphCLKConfig+0x106>
 8002e4e:	f1b3 7f00 	cmp.w	r3, #33554432	; 0x2000000
 8002e52:	d003      	beq.n	8002e5c <HAL_RCCEx_PeriphCLKConfig+0xd4>
 8002e54:	f1b3 7f40 	cmp.w	r3, #50331648	; 0x3000000
 8002e58:	d01c      	beq.n	8002e94 <HAL_RCCEx_PeriphCLKConfig+0x10c>
 8002e5a:	e018      	b.n	8002e8e <HAL_RCCEx_PeriphCLKConfig+0x106>
 8002e5c:	4a5f      	ldr	r2, [pc, #380]	; (8002fdc <HAL_RCCEx_PeriphCLKConfig+0x254>)
 8002e5e:	4b5f      	ldr	r3, [pc, #380]	; (8002fdc <HAL_RCCEx_PeriphCLKConfig+0x254>)
 8002e60:	68db      	ldr	r3, [r3, #12]
 8002e62:	f443 3380 	orr.w	r3, r3, #65536	; 0x10000
 8002e66:	60d3      	str	r3, [r2, #12]
 8002e68:	e015      	b.n	8002e96 <HAL_RCCEx_PeriphCLKConfig+0x10e>
 8002e6a:	687b      	ldr	r3, [r7, #4]
 8002e6c:	3304      	adds	r3, #4
 8002e6e:	2100      	movs	r1, #0
 8002e70:	4618      	mov	r0, r3
 8002e72:	f000 fa6d 	bl	8003350 <RCCEx_PLLSAI1_Config>
 8002e76:	4603      	mov	r3, r0
 8002e78:	74fb      	strb	r3, [r7, #19]
 8002e7a:	e00c      	b.n	8002e96 <HAL_RCCEx_PeriphCLKConfig+0x10e>
 8002e7c:	687b      	ldr	r3, [r7, #4]
 8002e7e:	3320      	adds	r3, #32
 8002e80:	2100      	movs	r1, #0
 8002e82:	4618      	mov	r0, r3
 8002e84:	f000 fb56 	bl	8003534 <RCCEx_PLLSAI2_Config>
 8002e88:	4603      	mov	r3, r0
 8002e8a:	74fb      	strb	r3, [r7, #19]
 8002e8c:	e003      	b.n	8002e96 <HAL_RCCEx_PeriphCLKConfig+0x10e>
 8002e8e:	2301      	movs	r3, #1
 8002e90:	74fb      	strb	r3, [r7, #19]
 8002e92:	e000      	b.n	8002e96 <HAL_RCCEx_PeriphCLKConfig+0x10e>
 8002e94:	bf00      	nop
 8002e96:	7cfb      	ldrb	r3, [r7, #19]
 8002e98:	2b00      	cmp	r3, #0
 8002e9a:	d10b      	bne.n	8002eb4 <HAL_RCCEx_PeriphCLKConfig+0x12c>
 8002e9c:	494f      	ldr	r1, [pc, #316]	; (8002fdc <HAL_RCCEx_PeriphCLKConfig+0x254>)
 8002e9e:	4b4f      	ldr	r3, [pc, #316]	; (8002fdc <HAL_RCCEx_PeriphCLKConfig+0x254>)
 8002ea0:	f8d3 3088 	ldr.w	r3, [r3, #136]	; 0x88
 8002ea4:	f023 7240 	bic.w	r2, r3, #50331648	; 0x3000000
 8002ea8:	687b      	ldr	r3, [r7, #4]
 8002eaa:	6e9b      	ldr	r3, [r3, #104]	; 0x68
 8002eac:	4313      	orrs	r3, r2
 8002eae:	f8c1 3088 	str.w	r3, [r1, #136]	; 0x88
 8002eb2:	e001      	b.n	8002eb8 <HAL_RCCEx_PeriphCLKConfig+0x130>
 8002eb4:	7cfb      	ldrb	r3, [r7, #19]
 8002eb6:	74bb      	strb	r3, [r7, #18]
 8002eb8:	687b      	ldr	r3, [r7, #4]
 8002eba:	681b      	ldr	r3, [r3, #0]
 8002ebc:	f403 3300 	and.w	r3, r3, #131072	; 0x20000
 8002ec0:	2b00      	cmp	r3, #0
 8002ec2:	f000 809a 	beq.w	8002ffa <HAL_RCCEx_PeriphCLKConfig+0x272>
 8002ec6:	2300      	movs	r3, #0
 8002ec8:	747b      	strb	r3, [r7, #17]
 8002eca:	4b44      	ldr	r3, [pc, #272]	; (8002fdc <HAL_RCCEx_PeriphCLKConfig+0x254>)
 8002ecc:	6d9b      	ldr	r3, [r3, #88]	; 0x58
 8002ece:	f003 5380 	and.w	r3, r3, #268435456	; 0x10000000
 8002ed2:	2b00      	cmp	r3, #0
 8002ed4:	d10d      	bne.n	8002ef2 <HAL_RCCEx_PeriphCLKConfig+0x16a>
 8002ed6:	4a41      	ldr	r2, [pc, #260]	; (8002fdc <HAL_RCCEx_PeriphCLKConfig+0x254>)
 8002ed8:	4b40      	ldr	r3, [pc, #256]	; (8002fdc <HAL_RCCEx_PeriphCLKConfig+0x254>)
 8002eda:	6d9b      	ldr	r3, [r3, #88]	; 0x58
 8002edc:	f043 5380 	orr.w	r3, r3, #268435456	; 0x10000000
 8002ee0:	6593      	str	r3, [r2, #88]	; 0x58
 8002ee2:	4b3e      	ldr	r3, [pc, #248]	; (8002fdc <HAL_RCCEx_PeriphCLKConfig+0x254>)
 8002ee4:	6d9b      	ldr	r3, [r3, #88]	; 0x58
 8002ee6:	f003 5380 	and.w	r3, r3, #268435456	; 0x10000000
 8002eea:	60bb      	str	r3, [r7, #8]
 8002eec:	68bb      	ldr	r3, [r7, #8]
 8002eee:	2301      	movs	r3, #1
 8002ef0:	747b      	strb	r3, [r7, #17]
 8002ef2:	4a3b      	ldr	r2, [pc, #236]	; (8002fe0 <HAL_RCCEx_PeriphCLKConfig+0x258>)
 8002ef4:	4b3a      	ldr	r3, [pc, #232]	; (8002fe0 <HAL_RCCEx_PeriphCLKConfig+0x258>)
 8002ef6:	681b      	ldr	r3, [r3, #0]
 8002ef8:	f443 7380 	orr.w	r3, r3, #256	; 0x100
 8002efc:	6013      	str	r3, [r2, #0]
 8002efe:	f7fe f8c7 	bl	8001090 <HAL_GetTick>
 8002f02:	60f8      	str	r0, [r7, #12]
 8002f04:	e009      	b.n	8002f1a <HAL_RCCEx_PeriphCLKConfig+0x192>
 8002f06:	f7fe f8c3 	bl	8001090 <HAL_GetTick>
 8002f0a:	4602      	mov	r2, r0
 8002f0c:	68fb      	ldr	r3, [r7, #12]
 8002f0e:	1ad3      	subs	r3, r2, r3
 8002f10:	2b02      	cmp	r3, #2
 8002f12:	d902      	bls.n	8002f1a <HAL_RCCEx_PeriphCLKConfig+0x192>
 8002f14:	2303      	movs	r3, #3
 8002f16:	74fb      	strb	r3, [r7, #19]
 8002f18:	e005      	b.n	8002f26 <HAL_RCCEx_PeriphCLKConfig+0x19e>
 8002f1a:	4b31      	ldr	r3, [pc, #196]	; (8002fe0 <HAL_RCCEx_PeriphCLKConfig+0x258>)
 8002f1c:	681b      	ldr	r3, [r3, #0]
 8002f1e:	f403 7380 	and.w	r3, r3, #256	; 0x100
 8002f22:	2b00      	cmp	r3, #0
 8002f24:	d0ef      	beq.n	8002f06 <HAL_RCCEx_PeriphCLKConfig+0x17e>
 8002f26:	7cfb      	ldrb	r3, [r7, #19]
 8002f28:	2b00      	cmp	r3, #0
 8002f2a:	d15b      	bne.n	8002fe4 <HAL_RCCEx_PeriphCLKConfig+0x25c>
 8002f2c:	4b2b      	ldr	r3, [pc, #172]	; (8002fdc <HAL_RCCEx_PeriphCLKConfig+0x254>)
 8002f2e:	f8d3 3090 	ldr.w	r3, [r3, #144]	; 0x90
 8002f32:	f403 7340 	and.w	r3, r3, #768	; 0x300
 8002f36:	617b      	str	r3, [r7, #20]
 8002f38:	697b      	ldr	r3, [r7, #20]
 8002f3a:	2b00      	cmp	r3, #0
 8002f3c:	d01f      	beq.n	8002f7e <HAL_RCCEx_PeriphCLKConfig+0x1f6>
 8002f3e:	687b      	ldr	r3, [r7, #4]
 8002f40:	f8d3 2084 	ldr.w	r2, [r3, #132]	; 0x84
 8002f44:	697b      	ldr	r3, [r7, #20]
 8002f46:	429a      	cmp	r2, r3
 8002f48:	d019      	beq.n	8002f7e <HAL_RCCEx_PeriphCLKConfig+0x1f6>
 8002f4a:	4b24      	ldr	r3, [pc, #144]	; (8002fdc <HAL_RCCEx_PeriphCLKConfig+0x254>)
 8002f4c:	f8d3 3090 	ldr.w	r3, [r3, #144]	; 0x90
 8002f50:	f423 7340 	bic.w	r3, r3, #768	; 0x300
 8002f54:	617b      	str	r3, [r7, #20]
 8002f56:	4a21      	ldr	r2, [pc, #132]	; (8002fdc <HAL_RCCEx_PeriphCLKConfig+0x254>)
 8002f58:	4b20      	ldr	r3, [pc, #128]	; (8002fdc <HAL_RCCEx_PeriphCLKConfig+0x254>)
 8002f5a:	f8d3 3090 	ldr.w	r3, [r3, #144]	; 0x90
 8002f5e:	f443 3380 	orr.w	r3, r3, #65536	; 0x10000
 8002f62:	f8c2 3090 	str.w	r3, [r2, #144]	; 0x90
 8002f66:	4a1d      	ldr	r2, [pc, #116]	; (8002fdc <HAL_RCCEx_PeriphCLKConfig+0x254>)
 8002f68:	4b1c      	ldr	r3, [pc, #112]	; (8002fdc <HAL_RCCEx_PeriphCLKConfig+0x254>)
 8002f6a:	f8d3 3090 	ldr.w	r3, [r3, #144]	; 0x90
 8002f6e:	f423 3380 	bic.w	r3, r3, #65536	; 0x10000
 8002f72:	f8c2 3090 	str.w	r3, [r2, #144]	; 0x90
 8002f76:	4a19      	ldr	r2, [pc, #100]	; (8002fdc <HAL_RCCEx_PeriphCLKConfig+0x254>)
 8002f78:	697b      	ldr	r3, [r7, #20]
 8002f7a:	f8c2 3090 	str.w	r3, [r2, #144]	; 0x90
 8002f7e:	697b      	ldr	r3, [r7, #20]
 8002f80:	f003 0301 	and.w	r3, r3, #1
 8002f84:	2b00      	cmp	r3, #0
 8002f86:	d016      	beq.n	8002fb6 <HAL_RCCEx_PeriphCLKConfig+0x22e>
 8002f88:	f7fe f882 	bl	8001090 <HAL_GetTick>
 8002f8c:	60f8      	str	r0, [r7, #12]
 8002f8e:	e00b      	b.n	8002fa8 <HAL_RCCEx_PeriphCLKConfig+0x220>
 8002f90:	f7fe f87e 	bl	8001090 <HAL_GetTick>
 8002f94:	4602      	mov	r2, r0
 8002f96:	68fb      	ldr	r3, [r7, #12]
 8002f98:	1ad3      	subs	r3, r2, r3
 8002f9a:	f241 3288 	movw	r2, #5000	; 0x1388
 8002f9e:	4293      	cmp	r3, r2
 8002fa0:	d902      	bls.n	8002fa8 <HAL_RCCEx_PeriphCLKConfig+0x220>
 8002fa2:	2303      	movs	r3, #3
 8002fa4:	74fb      	strb	r3, [r7, #19]
 8002fa6:	e006      	b.n	8002fb6 <HAL_RCCEx_PeriphCLKConfig+0x22e>
 8002fa8:	4b0c      	ldr	r3, [pc, #48]	; (8002fdc <HAL_RCCEx_PeriphCLKConfig+0x254>)
 8002faa:	f8d3 3090 	ldr.w	r3, [r3, #144]	; 0x90
 8002fae:	f003 0302 	and.w	r3, r3, #2
 8002fb2:	2b00      	cmp	r3, #0
 8002fb4:	d0ec      	beq.n	8002f90 <HAL_RCCEx_PeriphCLKConfig+0x208>
 8002fb6:	7cfb      	ldrb	r3, [r7, #19]
 8002fb8:	2b00      	cmp	r3, #0
 8002fba:	d10c      	bne.n	8002fd6 <HAL_RCCEx_PeriphCLKConfig+0x24e>
 8002fbc:	4907      	ldr	r1, [pc, #28]	; (8002fdc <HAL_RCCEx_PeriphCLKConfig+0x254>)
 8002fbe:	4b07      	ldr	r3, [pc, #28]	; (8002fdc <HAL_RCCEx_PeriphCLKConfig+0x254>)
 8002fc0:	f8d3 3090 	ldr.w	r3, [r3, #144]	; 0x90
 8002fc4:	f423 7240 	bic.w	r2, r3, #768	; 0x300
 8002fc8:	687b      	ldr	r3, [r7, #4]
 8002fca:	f8d3 3084 	ldr.w	r3, [r3, #132]	; 0x84
 8002fce:	4313      	orrs	r3, r2
 8002fd0:	f8c1 3090 	str.w	r3, [r1, #144]	; 0x90
 8002fd4:	e008      	b.n	8002fe8 <HAL_RCCEx_PeriphCLKConfig+0x260>
 8002fd6:	7cfb      	ldrb	r3, [r7, #19]
 8002fd8:	74bb      	strb	r3, [r7, #18]
 8002fda:	e005      	b.n	8002fe8 <HAL_RCCEx_PeriphCLKConfig+0x260>
 8002fdc:	40021000 	.word	0x40021000
 8002fe0:	40007000 	.word	0x40007000
 8002fe4:	7cfb      	ldrb	r3, [r7, #19]
 8002fe6:	74bb      	strb	r3, [r7, #18]
 8002fe8:	7c7b      	ldrb	r3, [r7, #17]
 8002fea:	2b01      	cmp	r3, #1
 8002fec:	d105      	bne.n	8002ffa <HAL_RCCEx_PeriphCLKConfig+0x272>
 8002fee:	4a9e      	ldr	r2, [pc, #632]	; (8003268 <HAL_RCCEx_PeriphCLKConfig+0x4e0>)
 8002ff0:	4b9d      	ldr	r3, [pc, #628]	; (8003268 <HAL_RCCEx_PeriphCLKConfig+0x4e0>)
 8002ff2:	6d9b      	ldr	r3, [r3, #88]	; 0x58
 8002ff4:	f023 5380 	bic.w	r3, r3, #268435456	; 0x10000000
 8002ff8:	6593      	str	r3, [r2, #88]	; 0x58
 8002ffa:	687b      	ldr	r3, [r7, #4]
 8002ffc:	681b      	ldr	r3, [r3, #0]
 8002ffe:	f003 0301 	and.w	r3, r3, #1
 8003002:	2b00      	cmp	r3, #0
 8003004:	d00a      	beq.n	800301c <HAL_RCCEx_PeriphCLKConfig+0x294>
 8003006:	4998      	ldr	r1, [pc, #608]	; (8003268 <HAL_RCCEx_PeriphCLKConfig+0x4e0>)
 8003008:	4b97      	ldr	r3, [pc, #604]	; (8003268 <HAL_RCCEx_PeriphCLKConfig+0x4e0>)
 800300a:	f8d3 3088 	ldr.w	r3, [r3, #136]	; 0x88
 800300e:	f023 0203 	bic.w	r2, r3, #3
 8003012:	687b      	ldr	r3, [r7, #4]
 8003014:	6b9b      	ldr	r3, [r3, #56]	; 0x38
 8003016:	4313      	orrs	r3, r2
 8003018:	f8c1 3088 	str.w	r3, [r1, #136]	; 0x88
 800301c:	687b      	ldr	r3, [r7, #4]
 800301e:	681b      	ldr	r3, [r3, #0]
 8003020:	f003 0302 	and.w	r3, r3, #2
 8003024:	2b00      	cmp	r3, #0
 8003026:	d00a      	beq.n	800303e <HAL_RCCEx_PeriphCLKConfig+0x2b6>
 8003028:	498f      	ldr	r1, [pc, #572]	; (8003268 <HAL_RCCEx_PeriphCLKConfig+0x4e0>)
 800302a:	4b8f      	ldr	r3, [pc, #572]	; (8003268 <HAL_RCCEx_PeriphCLKConfig+0x4e0>)
 800302c:	f8d3 3088 	ldr.w	r3, [r3, #136]	; 0x88
 8003030:	f023 020c 	bic.w	r2, r3, #12
 8003034:	687b      	ldr	r3, [r7, #4]
 8003036:	6bdb      	ldr	r3, [r3, #60]	; 0x3c
 8003038:	4313      	orrs	r3, r2
 800303a:	f8c1 3088 	str.w	r3, [r1, #136]	; 0x88
 800303e:	687b      	ldr	r3, [r7, #4]
 8003040:	681b      	ldr	r3, [r3, #0]
 8003042:	f003 0304 	and.w	r3, r3, #4
 8003046:	2b00      	cmp	r3, #0
 8003048:	d00a      	beq.n	8003060 <HAL_RCCEx_PeriphCLKConfig+0x2d8>
 800304a:	4987      	ldr	r1, [pc, #540]	; (8003268 <HAL_RCCEx_PeriphCLKConfig+0x4e0>)
 800304c:	4b86      	ldr	r3, [pc, #536]	; (8003268 <HAL_RCCEx_PeriphCLKConfig+0x4e0>)
 800304e:	f8d3 3088 	ldr.w	r3, [r3, #136]	; 0x88
 8003052:	f023 0230 	bic.w	r2, r3, #48	; 0x30
 8003056:	687b      	ldr	r3, [r7, #4]
 8003058:	6c1b      	ldr	r3, [r3, #64]	; 0x40
 800305a:	4313      	orrs	r3, r2
 800305c:	f8c1 3088 	str.w	r3, [r1, #136]	; 0x88
 8003060:	687b      	ldr	r3, [r7, #4]
 8003062:	681b      	ldr	r3, [r3, #0]
 8003064:	f003 0308 	and.w	r3, r3, #8
 8003068:	2b00      	cmp	r3, #0
 800306a:	d00a      	beq.n	8003082 <HAL_RCCEx_PeriphCLKConfig+0x2fa>
 800306c:	497e      	ldr	r1, [pc, #504]	; (8003268 <HAL_RCCEx_PeriphCLKConfig+0x4e0>)
 800306e:	4b7e      	ldr	r3, [pc, #504]	; (8003268 <HAL_RCCEx_PeriphCLKConfig+0x4e0>)
 8003070:	f8d3 3088 	ldr.w	r3, [r3, #136]	; 0x88
 8003074:	f023 02c0 	bic.w	r2, r3, #192	; 0xc0
 8003078:	687b      	ldr	r3, [r7, #4]
 800307a:	6c5b      	ldr	r3, [r3, #68]	; 0x44
 800307c:	4313      	orrs	r3, r2
 800307e:	f8c1 3088 	str.w	r3, [r1, #136]	; 0x88
 8003082:	687b      	ldr	r3, [r7, #4]
 8003084:	681b      	ldr	r3, [r3, #0]
 8003086:	f003 0310 	and.w	r3, r3, #16
 800308a:	2b00      	cmp	r3, #0
 800308c:	d00a      	beq.n	80030a4 <HAL_RCCEx_PeriphCLKConfig+0x31c>
 800308e:	4976      	ldr	r1, [pc, #472]	; (8003268 <HAL_RCCEx_PeriphCLKConfig+0x4e0>)
 8003090:	4b75      	ldr	r3, [pc, #468]	; (8003268 <HAL_RCCEx_PeriphCLKConfig+0x4e0>)
 8003092:	f8d3 3088 	ldr.w	r3, [r3, #136]	; 0x88
 8003096:	f423 7240 	bic.w	r2, r3, #768	; 0x300
 800309a:	687b      	ldr	r3, [r7, #4]
 800309c:	6c9b      	ldr	r3, [r3, #72]	; 0x48
 800309e:	4313      	orrs	r3, r2
 80030a0:	f8c1 3088 	str.w	r3, [r1, #136]	; 0x88
 80030a4:	687b      	ldr	r3, [r7, #4]
 80030a6:	681b      	ldr	r3, [r3, #0]
 80030a8:	f003 0320 	and.w	r3, r3, #32
 80030ac:	2b00      	cmp	r3, #0
 80030ae:	d00a      	beq.n	80030c6 <HAL_RCCEx_PeriphCLKConfig+0x33e>
 80030b0:	496d      	ldr	r1, [pc, #436]	; (8003268 <HAL_RCCEx_PeriphCLKConfig+0x4e0>)
 80030b2:	4b6d      	ldr	r3, [pc, #436]	; (8003268 <HAL_RCCEx_PeriphCLKConfig+0x4e0>)
 80030b4:	f8d3 3088 	ldr.w	r3, [r3, #136]	; 0x88
 80030b8:	f423 6240 	bic.w	r2, r3, #3072	; 0xc00
 80030bc:	687b      	ldr	r3, [r7, #4]
 80030be:	6cdb      	ldr	r3, [r3, #76]	; 0x4c
 80030c0:	4313      	orrs	r3, r2
 80030c2:	f8c1 3088 	str.w	r3, [r1, #136]	; 0x88
 80030c6:	687b      	ldr	r3, [r7, #4]
 80030c8:	681b      	ldr	r3, [r3, #0]
 80030ca:	f403 7300 	and.w	r3, r3, #512	; 0x200
 80030ce:	2b00      	cmp	r3, #0
 80030d0:	d00a      	beq.n	80030e8 <HAL_RCCEx_PeriphCLKConfig+0x360>
 80030d2:	4965      	ldr	r1, [pc, #404]	; (8003268 <HAL_RCCEx_PeriphCLKConfig+0x4e0>)
 80030d4:	4b64      	ldr	r3, [pc, #400]	; (8003268 <HAL_RCCEx_PeriphCLKConfig+0x4e0>)
 80030d6:	f8d3 3088 	ldr.w	r3, [r3, #136]	; 0x88
 80030da:	f423 2240 	bic.w	r2, r3, #786432	; 0xc0000
 80030de:	687b      	ldr	r3, [r7, #4]
 80030e0:	6ddb      	ldr	r3, [r3, #92]	; 0x5c
 80030e2:	4313      	orrs	r3, r2
 80030e4:	f8c1 3088 	str.w	r3, [r1, #136]	; 0x88
 80030e8:	687b      	ldr	r3, [r7, #4]
 80030ea:	681b      	ldr	r3, [r3, #0]
 80030ec:	f403 6380 	and.w	r3, r3, #1024	; 0x400
 80030f0:	2b00      	cmp	r3, #0
 80030f2:	d00a      	beq.n	800310a <HAL_RCCEx_PeriphCLKConfig+0x382>
 80030f4:	495c      	ldr	r1, [pc, #368]	; (8003268 <HAL_RCCEx_PeriphCLKConfig+0x4e0>)
 80030f6:	4b5c      	ldr	r3, [pc, #368]	; (8003268 <HAL_RCCEx_PeriphCLKConfig+0x4e0>)
 80030f8:	f8d3 3088 	ldr.w	r3, [r3, #136]	; 0x88
 80030fc:	f423 1240 	bic.w	r2, r3, #3145728	; 0x300000
 8003100:	687b      	ldr	r3, [r7, #4]
 8003102:	6e1b      	ldr	r3, [r3, #96]	; 0x60
 8003104:	4313      	orrs	r3, r2
 8003106:	f8c1 3088 	str.w	r3, [r1, #136]	; 0x88
 800310a:	687b      	ldr	r3, [r7, #4]
 800310c:	681b      	ldr	r3, [r3, #0]
 800310e:	f003 0340 	and.w	r3, r3, #64	; 0x40
 8003112:	2b00      	cmp	r3, #0
 8003114:	d00a      	beq.n	800312c <HAL_RCCEx_PeriphCLKConfig+0x3a4>
 8003116:	4954      	ldr	r1, [pc, #336]	; (8003268 <HAL_RCCEx_PeriphCLKConfig+0x4e0>)
 8003118:	4b53      	ldr	r3, [pc, #332]	; (8003268 <HAL_RCCEx_PeriphCLKConfig+0x4e0>)
 800311a:	f8d3 3088 	ldr.w	r3, [r3, #136]	; 0x88
 800311e:	f423 5240 	bic.w	r2, r3, #12288	; 0x3000
 8003122:	687b      	ldr	r3, [r7, #4]
 8003124:	6d1b      	ldr	r3, [r3, #80]	; 0x50
 8003126:	4313      	orrs	r3, r2
 8003128:	f8c1 3088 	str.w	r3, [r1, #136]	; 0x88
 800312c:	687b      	ldr	r3, [r7, #4]
 800312e:	681b      	ldr	r3, [r3, #0]
 8003130:	f003 0380 	and.w	r3, r3, #128	; 0x80
 8003134:	2b00      	cmp	r3, #0
 8003136:	d00a      	beq.n	800314e <HAL_RCCEx_PeriphCLKConfig+0x3c6>
 8003138:	494b      	ldr	r1, [pc, #300]	; (8003268 <HAL_RCCEx_PeriphCLKConfig+0x4e0>)
 800313a:	4b4b      	ldr	r3, [pc, #300]	; (8003268 <HAL_RCCEx_PeriphCLKConfig+0x4e0>)
 800313c:	f8d3 3088 	ldr.w	r3, [r3, #136]	; 0x88
 8003140:	f423 4240 	bic.w	r2, r3, #49152	; 0xc000
 8003144:	687b      	ldr	r3, [r7, #4]
 8003146:	6d5b      	ldr	r3, [r3, #84]	; 0x54
 8003148:	4313      	orrs	r3, r2
 800314a:	f8c1 3088 	str.w	r3, [r1, #136]	; 0x88
 800314e:	687b      	ldr	r3, [r7, #4]
 8003150:	681b      	ldr	r3, [r3, #0]
 8003152:	f403 7380 	and.w	r3, r3, #256	; 0x100
 8003156:	2b00      	cmp	r3, #0
 8003158:	d00a      	beq.n	8003170 <HAL_RCCEx_PeriphCLKConfig+0x3e8>
 800315a:	4943      	ldr	r1, [pc, #268]	; (8003268 <HAL_RCCEx_PeriphCLKConfig+0x4e0>)
 800315c:	4b42      	ldr	r3, [pc, #264]	; (8003268 <HAL_RCCEx_PeriphCLKConfig+0x4e0>)
 800315e:	f8d3 3088 	ldr.w	r3, [r3, #136]	; 0x88
 8003162:	f423 3240 	bic.w	r2, r3, #196608	; 0x30000
 8003166:	687b      	ldr	r3, [r7, #4]
 8003168:	6d9b      	ldr	r3, [r3, #88]	; 0x58
 800316a:	4313      	orrs	r3, r2
 800316c:	f8c1 3088 	str.w	r3, [r1, #136]	; 0x88
 8003170:	687b      	ldr	r3, [r7, #4]
 8003172:	681b      	ldr	r3, [r3, #0]
 8003174:	f403 5300 	and.w	r3, r3, #8192	; 0x2000
 8003178:	2b00      	cmp	r3, #0
 800317a:	d028      	beq.n	80031ce <HAL_RCCEx_PeriphCLKConfig+0x446>
 800317c:	493a      	ldr	r1, [pc, #232]	; (8003268 <HAL_RCCEx_PeriphCLKConfig+0x4e0>)
 800317e:	4b3a      	ldr	r3, [pc, #232]	; (8003268 <HAL_RCCEx_PeriphCLKConfig+0x4e0>)
 8003180:	f8d3 3088 	ldr.w	r3, [r3, #136]	; 0x88
 8003184:	f023 6240 	bic.w	r2, r3, #201326592	; 0xc000000
 8003188:	687b      	ldr	r3, [r7, #4]
 800318a:	6edb      	ldr	r3, [r3, #108]	; 0x6c
 800318c:	4313      	orrs	r3, r2
 800318e:	f8c1 3088 	str.w	r3, [r1, #136]	; 0x88
 8003192:	687b      	ldr	r3, [r7, #4]
 8003194:	6edb      	ldr	r3, [r3, #108]	; 0x6c
 8003196:	f1b3 6f00 	cmp.w	r3, #134217728	; 0x8000000
 800319a:	d106      	bne.n	80031aa <HAL_RCCEx_PeriphCLKConfig+0x422>
 800319c:	4a32      	ldr	r2, [pc, #200]	; (8003268 <HAL_RCCEx_PeriphCLKConfig+0x4e0>)
 800319e:	4b32      	ldr	r3, [pc, #200]	; (8003268 <HAL_RCCEx_PeriphCLKConfig+0x4e0>)
 80031a0:	68db      	ldr	r3, [r3, #12]
 80031a2:	f443 1380 	orr.w	r3, r3, #1048576	; 0x100000
 80031a6:	60d3      	str	r3, [r2, #12]
 80031a8:	e011      	b.n	80031ce <HAL_RCCEx_PeriphCLKConfig+0x446>
 80031aa:	687b      	ldr	r3, [r7, #4]
 80031ac:	6edb      	ldr	r3, [r3, #108]	; 0x6c
 80031ae:	f1b3 6f80 	cmp.w	r3, #67108864	; 0x4000000
 80031b2:	d10c      	bne.n	80031ce <HAL_RCCEx_PeriphCLKConfig+0x446>
 80031b4:	687b      	ldr	r3, [r7, #4]
 80031b6:	3304      	adds	r3, #4
 80031b8:	2101      	movs	r1, #1
 80031ba:	4618      	mov	r0, r3
 80031bc:	f000 f8c8 	bl	8003350 <RCCEx_PLLSAI1_Config>
 80031c0:	4603      	mov	r3, r0
 80031c2:	74fb      	strb	r3, [r7, #19]
 80031c4:	7cfb      	ldrb	r3, [r7, #19]
 80031c6:	2b00      	cmp	r3, #0
 80031c8:	d001      	beq.n	80031ce <HAL_RCCEx_PeriphCLKConfig+0x446>
 80031ca:	7cfb      	ldrb	r3, [r7, #19]
 80031cc:	74bb      	strb	r3, [r7, #18]
 80031ce:	687b      	ldr	r3, [r7, #4]
 80031d0:	681b      	ldr	r3, [r3, #0]
 80031d2:	f403 2300 	and.w	r3, r3, #524288	; 0x80000
 80031d6:	2b00      	cmp	r3, #0
 80031d8:	d028      	beq.n	800322c <HAL_RCCEx_PeriphCLKConfig+0x4a4>
 80031da:	4923      	ldr	r1, [pc, #140]	; (8003268 <HAL_RCCEx_PeriphCLKConfig+0x4e0>)
 80031dc:	4b22      	ldr	r3, [pc, #136]	; (8003268 <HAL_RCCEx_PeriphCLKConfig+0x4e0>)
 80031de:	f8d3 3088 	ldr.w	r3, [r3, #136]	; 0x88
 80031e2:	f023 6240 	bic.w	r2, r3, #201326592	; 0xc000000
 80031e6:	687b      	ldr	r3, [r7, #4]
 80031e8:	6f1b      	ldr	r3, [r3, #112]	; 0x70
 80031ea:	4313      	orrs	r3, r2
 80031ec:	f8c1 3088 	str.w	r3, [r1, #136]	; 0x88
 80031f0:	687b      	ldr	r3, [r7, #4]
 80031f2:	6f1b      	ldr	r3, [r3, #112]	; 0x70
 80031f4:	f1b3 6f00 	cmp.w	r3, #134217728	; 0x8000000
 80031f8:	d106      	bne.n	8003208 <HAL_RCCEx_PeriphCLKConfig+0x480>
 80031fa:	4a1b      	ldr	r2, [pc, #108]	; (8003268 <HAL_RCCEx_PeriphCLKConfig+0x4e0>)
 80031fc:	4b1a      	ldr	r3, [pc, #104]	; (8003268 <HAL_RCCEx_PeriphCLKConfig+0x4e0>)
 80031fe:	68db      	ldr	r3, [r3, #12]
 8003200:	f443 1380 	orr.w	r3, r3, #1048576	; 0x100000
 8003204:	60d3      	str	r3, [r2, #12]
 8003206:	e011      	b.n	800322c <HAL_RCCEx_PeriphCLKConfig+0x4a4>
 8003208:	687b      	ldr	r3, [r7, #4]
 800320a:	6f1b      	ldr	r3, [r3, #112]	; 0x70
 800320c:	f1b3 6f80 	cmp.w	r3, #67108864	; 0x4000000
 8003210:	d10c      	bne.n	800322c <HAL_RCCEx_PeriphCLKConfig+0x4a4>
 8003212:	687b      	ldr	r3, [r7, #4]
 8003214:	3304      	adds	r3, #4
 8003216:	2101      	movs	r1, #1
 8003218:	4618      	mov	r0, r3
 800321a:	f000 f899 	bl	8003350 <RCCEx_PLLSAI1_Config>
 800321e:	4603      	mov	r3, r0
 8003220:	74fb      	strb	r3, [r7, #19]
 8003222:	7cfb      	ldrb	r3, [r7, #19]
 8003224:	2b00      	cmp	r3, #0
 8003226:	d001      	beq.n	800322c <HAL_RCCEx_PeriphCLKConfig+0x4a4>
 8003228:	7cfb      	ldrb	r3, [r7, #19]
 800322a:	74bb      	strb	r3, [r7, #18]
 800322c:	687b      	ldr	r3, [r7, #4]
 800322e:	681b      	ldr	r3, [r3, #0]
 8003230:	f403 2380 	and.w	r3, r3, #262144	; 0x40000
 8003234:	2b00      	cmp	r3, #0
 8003236:	d02b      	beq.n	8003290 <HAL_RCCEx_PeriphCLKConfig+0x508>
 8003238:	490b      	ldr	r1, [pc, #44]	; (8003268 <HAL_RCCEx_PeriphCLKConfig+0x4e0>)
 800323a:	4b0b      	ldr	r3, [pc, #44]	; (8003268 <HAL_RCCEx_PeriphCLKConfig+0x4e0>)
 800323c:	f8d3 3088 	ldr.w	r3, [r3, #136]	; 0x88
 8003240:	f023 6240 	bic.w	r2, r3, #201326592	; 0xc000000
 8003244:	687b      	ldr	r3, [r7, #4]
 8003246:	6f5b      	ldr	r3, [r3, #116]	; 0x74
 8003248:	4313      	orrs	r3, r2
 800324a:	f8c1 3088 	str.w	r3, [r1, #136]	; 0x88
 800324e:	687b      	ldr	r3, [r7, #4]
 8003250:	6f5b      	ldr	r3, [r3, #116]	; 0x74
 8003252:	f1b3 6f00 	cmp.w	r3, #134217728	; 0x8000000
 8003256:	d109      	bne.n	800326c <HAL_RCCEx_PeriphCLKConfig+0x4e4>
 8003258:	4a03      	ldr	r2, [pc, #12]	; (8003268 <HAL_RCCEx_PeriphCLKConfig+0x4e0>)
 800325a:	4b03      	ldr	r3, [pc, #12]	; (8003268 <HAL_RCCEx_PeriphCLKConfig+0x4e0>)
 800325c:	68db      	ldr	r3, [r3, #12]
 800325e:	f443 1380 	orr.w	r3, r3, #1048576	; 0x100000
 8003262:	60d3      	str	r3, [r2, #12]
 8003264:	e014      	b.n	8003290 <HAL_RCCEx_PeriphCLKConfig+0x508>
 8003266:	bf00      	nop
 8003268:	40021000 	.word	0x40021000
 800326c:	687b      	ldr	r3, [r7, #4]
 800326e:	6f5b      	ldr	r3, [r3, #116]	; 0x74
 8003270:	f1b3 6f80 	cmp.w	r3, #67108864	; 0x4000000
 8003274:	d10c      	bne.n	8003290 <HAL_RCCEx_PeriphCLKConfig+0x508>
 8003276:	687b      	ldr	r3, [r7, #4]
 8003278:	3304      	adds	r3, #4
 800327a:	2101      	movs	r1, #1
 800327c:	4618      	mov	r0, r3
 800327e:	f000 f867 	bl	8003350 <RCCEx_PLLSAI1_Config>
 8003282:	4603      	mov	r3, r0
 8003284:	74fb      	strb	r3, [r7, #19]
 8003286:	7cfb      	ldrb	r3, [r7, #19]
 8003288:	2b00      	cmp	r3, #0
 800328a:	d001      	beq.n	8003290 <HAL_RCCEx_PeriphCLKConfig+0x508>
 800328c:	7cfb      	ldrb	r3, [r7, #19]
 800328e:	74bb      	strb	r3, [r7, #18]
 8003290:	687b      	ldr	r3, [r7, #4]
 8003292:	681b      	ldr	r3, [r3, #0]
 8003294:	f403 4380 	and.w	r3, r3, #16384	; 0x4000
 8003298:	2b00      	cmp	r3, #0
 800329a:	d02f      	beq.n	80032fc <HAL_RCCEx_PeriphCLKConfig+0x574>
 800329c:	492b      	ldr	r1, [pc, #172]	; (800334c <HAL_RCCEx_PeriphCLKConfig+0x5c4>)
 800329e:	4b2b      	ldr	r3, [pc, #172]	; (800334c <HAL_RCCEx_PeriphCLKConfig+0x5c4>)
 80032a0:	f8d3 3088 	ldr.w	r3, [r3, #136]	; 0x88
 80032a4:	f023 5240 	bic.w	r2, r3, #805306368	; 0x30000000
 80032a8:	687b      	ldr	r3, [r7, #4]
 80032aa:	6f9b      	ldr	r3, [r3, #120]	; 0x78
 80032ac:	4313      	orrs	r3, r2
 80032ae:	f8c1 3088 	str.w	r3, [r1, #136]	; 0x88
 80032b2:	687b      	ldr	r3, [r7, #4]
 80032b4:	6f9b      	ldr	r3, [r3, #120]	; 0x78
 80032b6:	f1b3 5f80 	cmp.w	r3, #268435456	; 0x10000000
 80032ba:	d10d      	bne.n	80032d8 <HAL_RCCEx_PeriphCLKConfig+0x550>
 80032bc:	687b      	ldr	r3, [r7, #4]
 80032be:	3304      	adds	r3, #4
 80032c0:	2102      	movs	r1, #2
 80032c2:	4618      	mov	r0, r3
 80032c4:	f000 f844 	bl	8003350 <RCCEx_PLLSAI1_Config>
 80032c8:	4603      	mov	r3, r0
 80032ca:	74fb      	strb	r3, [r7, #19]
 80032cc:	7cfb      	ldrb	r3, [r7, #19]
 80032ce:	2b00      	cmp	r3, #0
 80032d0:	d014      	beq.n	80032fc <HAL_RCCEx_PeriphCLKConfig+0x574>
 80032d2:	7cfb      	ldrb	r3, [r7, #19]
 80032d4:	74bb      	strb	r3, [r7, #18]
 80032d6:	e011      	b.n	80032fc <HAL_RCCEx_PeriphCLKConfig+0x574>
 80032d8:	687b      	ldr	r3, [r7, #4]
 80032da:	6f9b      	ldr	r3, [r3, #120]	; 0x78
 80032dc:	f1b3 5f00 	cmp.w	r3, #536870912	; 0x20000000
 80032e0:	d10c      	bne.n	80032fc <HAL_RCCEx_PeriphCLKConfig+0x574>
 80032e2:	687b      	ldr	r3, [r7, #4]
 80032e4:	3320      	adds	r3, #32
 80032e6:	2102      	movs	r1, #2
 80032e8:	4618      	mov	r0, r3
 80032ea:	f000 f923 	bl	8003534 <RCCEx_PLLSAI2_Config>
 80032ee:	4603      	mov	r3, r0
 80032f0:	74fb      	strb	r3, [r7, #19]
 80032f2:	7cfb      	ldrb	r3, [r7, #19]
 80032f4:	2b00      	cmp	r3, #0
 80032f6:	d001      	beq.n	80032fc <HAL_RCCEx_PeriphCLKConfig+0x574>
 80032f8:	7cfb      	ldrb	r3, [r7, #19]
 80032fa:	74bb      	strb	r3, [r7, #18]
 80032fc:	687b      	ldr	r3, [r7, #4]
 80032fe:	681b      	ldr	r3, [r3, #0]
 8003300:	f403 4300 	and.w	r3, r3, #32768	; 0x8000
 8003304:	2b00      	cmp	r3, #0
 8003306:	d00a      	beq.n	800331e <HAL_RCCEx_PeriphCLKConfig+0x596>
 8003308:	4910      	ldr	r1, [pc, #64]	; (800334c <HAL_RCCEx_PeriphCLKConfig+0x5c4>)
 800330a:	4b10      	ldr	r3, [pc, #64]	; (800334c <HAL_RCCEx_PeriphCLKConfig+0x5c4>)
 800330c:	f8d3 3088 	ldr.w	r3, [r3, #136]	; 0x88
 8003310:	f023 4280 	bic.w	r2, r3, #1073741824	; 0x40000000
 8003314:	687b      	ldr	r3, [r7, #4]
 8003316:	6fdb      	ldr	r3, [r3, #124]	; 0x7c
 8003318:	4313      	orrs	r3, r2
 800331a:	f8c1 3088 	str.w	r3, [r1, #136]	; 0x88
 800331e:	687b      	ldr	r3, [r7, #4]
 8003320:	681b      	ldr	r3, [r3, #0]
 8003322:	f403 3380 	and.w	r3, r3, #65536	; 0x10000
 8003326:	2b00      	cmp	r3, #0
 8003328:	d00b      	beq.n	8003342 <HAL_RCCEx_PeriphCLKConfig+0x5ba>
 800332a:	4908      	ldr	r1, [pc, #32]	; (800334c <HAL_RCCEx_PeriphCLKConfig+0x5c4>)
 800332c:	4b07      	ldr	r3, [pc, #28]	; (800334c <HAL_RCCEx_PeriphCLKConfig+0x5c4>)
 800332e:	f8d3 3088 	ldr.w	r3, [r3, #136]	; 0x88
 8003332:	f023 4200 	bic.w	r2, r3, #2147483648	; 0x80000000
 8003336:	687b      	ldr	r3, [r7, #4]
 8003338:	f8d3 3080 	ldr.w	r3, [r3, #128]	; 0x80
 800333c:	4313      	orrs	r3, r2
 800333e:	f8c1 3088 	str.w	r3, [r1, #136]	; 0x88
 8003342:	7cbb      	ldrb	r3, [r7, #18]
 8003344:	4618      	mov	r0, r3
 8003346:	3718      	adds	r7, #24
 8003348:	46bd      	mov	sp, r7
 800334a:	bd80      	pop	{r7, pc}
 800334c:	40021000 	.word	0x40021000

08003350 <RCCEx_PLLSAI1_Config>:
 8003350:	b580      	push	{r7, lr}
 8003352:	b084      	sub	sp, #16
 8003354:	af00      	add	r7, sp, #0
 8003356:	6078      	str	r0, [r7, #4]
 8003358:	6039      	str	r1, [r7, #0]
 800335a:	2300      	movs	r3, #0
 800335c:	60bb      	str	r3, [r7, #8]
 800335e:	2300      	movs	r3, #0
 8003360:	73fb      	strb	r3, [r7, #15]
 8003362:	4b73      	ldr	r3, [pc, #460]	; (8003530 <RCCEx_PLLSAI1_Config+0x1e0>)
 8003364:	68db      	ldr	r3, [r3, #12]
 8003366:	f003 0303 	and.w	r3, r3, #3
 800336a:	2b00      	cmp	r3, #0
 800336c:	d018      	beq.n	80033a0 <RCCEx_PLLSAI1_Config+0x50>
 800336e:	4b70      	ldr	r3, [pc, #448]	; (8003530 <RCCEx_PLLSAI1_Config+0x1e0>)
 8003370:	68db      	ldr	r3, [r3, #12]
 8003372:	f003 0203 	and.w	r2, r3, #3
 8003376:	687b      	ldr	r3, [r7, #4]
 8003378:	681b      	ldr	r3, [r3, #0]
 800337a:	429a      	cmp	r2, r3
 800337c:	d10d      	bne.n	800339a <RCCEx_PLLSAI1_Config+0x4a>
 800337e:	687b      	ldr	r3, [r7, #4]
 8003380:	681b      	ldr	r3, [r3, #0]
 8003382:	2b00      	cmp	r3, #0
 8003384:	d009      	beq.n	800339a <RCCEx_PLLSAI1_Config+0x4a>
 8003386:	4b6a      	ldr	r3, [pc, #424]	; (8003530 <RCCEx_PLLSAI1_Config+0x1e0>)
 8003388:	68db      	ldr	r3, [r3, #12]
 800338a:	091b      	lsrs	r3, r3, #4
 800338c:	f003 0307 	and.w	r3, r3, #7
 8003390:	1c5a      	adds	r2, r3, #1
 8003392:	687b      	ldr	r3, [r7, #4]
 8003394:	685b      	ldr	r3, [r3, #4]
 8003396:	429a      	cmp	r2, r3
 8003398:	d044      	beq.n	8003424 <RCCEx_PLLSAI1_Config+0xd4>
 800339a:	2301      	movs	r3, #1
 800339c:	73fb      	strb	r3, [r7, #15]
 800339e:	e041      	b.n	8003424 <RCCEx_PLLSAI1_Config+0xd4>
 80033a0:	687b      	ldr	r3, [r7, #4]
 80033a2:	681b      	ldr	r3, [r3, #0]
 80033a4:	2b02      	cmp	r3, #2
 80033a6:	d00c      	beq.n	80033c2 <RCCEx_PLLSAI1_Config+0x72>
 80033a8:	2b03      	cmp	r3, #3
 80033aa:	d013      	beq.n	80033d4 <RCCEx_PLLSAI1_Config+0x84>
 80033ac:	2b01      	cmp	r3, #1
 80033ae:	d120      	bne.n	80033f2 <RCCEx_PLLSAI1_Config+0xa2>
 80033b0:	4b5f      	ldr	r3, [pc, #380]	; (8003530 <RCCEx_PLLSAI1_Config+0x1e0>)
 80033b2:	681b      	ldr	r3, [r3, #0]
 80033b4:	f003 0302 	and.w	r3, r3, #2
 80033b8:	2b00      	cmp	r3, #0
 80033ba:	d11d      	bne.n	80033f8 <RCCEx_PLLSAI1_Config+0xa8>
 80033bc:	2301      	movs	r3, #1
 80033be:	73fb      	strb	r3, [r7, #15]
 80033c0:	e01a      	b.n	80033f8 <RCCEx_PLLSAI1_Config+0xa8>
 80033c2:	4b5b      	ldr	r3, [pc, #364]	; (8003530 <RCCEx_PLLSAI1_Config+0x1e0>)
 80033c4:	681b      	ldr	r3, [r3, #0]
 80033c6:	f403 6380 	and.w	r3, r3, #1024	; 0x400
 80033ca:	2b00      	cmp	r3, #0
 80033cc:	d116      	bne.n	80033fc <RCCEx_PLLSAI1_Config+0xac>
 80033ce:	2301      	movs	r3, #1
 80033d0:	73fb      	strb	r3, [r7, #15]
 80033d2:	e013      	b.n	80033fc <RCCEx_PLLSAI1_Config+0xac>
 80033d4:	4b56      	ldr	r3, [pc, #344]	; (8003530 <RCCEx_PLLSAI1_Config+0x1e0>)
 80033d6:	681b      	ldr	r3, [r3, #0]
 80033d8:	f403 3300 	and.w	r3, r3, #131072	; 0x20000
 80033dc:	2b00      	cmp	r3, #0
 80033de:	d10f      	bne.n	8003400 <RCCEx_PLLSAI1_Config+0xb0>
 80033e0:	4b53      	ldr	r3, [pc, #332]	; (8003530 <RCCEx_PLLSAI1_Config+0x1e0>)
 80033e2:	681b      	ldr	r3, [r3, #0]
 80033e4:	f403 2380 	and.w	r3, r3, #262144	; 0x40000
 80033e8:	2b00      	cmp	r3, #0
 80033ea:	d109      	bne.n	8003400 <RCCEx_PLLSAI1_Config+0xb0>
 80033ec:	2301      	movs	r3, #1
 80033ee:	73fb      	strb	r3, [r7, #15]
 80033f0:	e006      	b.n	8003400 <RCCEx_PLLSAI1_Config+0xb0>
 80033f2:	2301      	movs	r3, #1
 80033f4:	73fb      	strb	r3, [r7, #15]
 80033f6:	e004      	b.n	8003402 <RCCEx_PLLSAI1_Config+0xb2>
 80033f8:	bf00      	nop
 80033fa:	e002      	b.n	8003402 <RCCEx_PLLSAI1_Config+0xb2>
 80033fc:	bf00      	nop
 80033fe:	e000      	b.n	8003402 <RCCEx_PLLSAI1_Config+0xb2>
 8003400:	bf00      	nop
 8003402:	7bfb      	ldrb	r3, [r7, #15]
 8003404:	2b00      	cmp	r3, #0
 8003406:	d10d      	bne.n	8003424 <RCCEx_PLLSAI1_Config+0xd4>
 8003408:	4849      	ldr	r0, [pc, #292]	; (8003530 <RCCEx_PLLSAI1_Config+0x1e0>)
 800340a:	4b49      	ldr	r3, [pc, #292]	; (8003530 <RCCEx_PLLSAI1_Config+0x1e0>)
 800340c:	68db      	ldr	r3, [r3, #12]
 800340e:	f023 0273 	bic.w	r2, r3, #115	; 0x73
 8003412:	687b      	ldr	r3, [r7, #4]
 8003414:	6819      	ldr	r1, [r3, #0]
 8003416:	687b      	ldr	r3, [r7, #4]
 8003418:	685b      	ldr	r3, [r3, #4]
 800341a:	3b01      	subs	r3, #1
 800341c:	011b      	lsls	r3, r3, #4
 800341e:	430b      	orrs	r3, r1
 8003420:	4313      	orrs	r3, r2
 8003422:	60c3      	str	r3, [r0, #12]
 8003424:	7bfb      	ldrb	r3, [r7, #15]
 8003426:	2b00      	cmp	r3, #0
 8003428:	d17d      	bne.n	8003526 <RCCEx_PLLSAI1_Config+0x1d6>
 800342a:	4a41      	ldr	r2, [pc, #260]	; (8003530 <RCCEx_PLLSAI1_Config+0x1e0>)
 800342c:	4b40      	ldr	r3, [pc, #256]	; (8003530 <RCCEx_PLLSAI1_Config+0x1e0>)
 800342e:	681b      	ldr	r3, [r3, #0]
 8003430:	f023 6380 	bic.w	r3, r3, #67108864	; 0x4000000
 8003434:	6013      	str	r3, [r2, #0]
 8003436:	f7fd fe2b 	bl	8001090 <HAL_GetTick>
 800343a:	60b8      	str	r0, [r7, #8]
 800343c:	e009      	b.n	8003452 <RCCEx_PLLSAI1_Config+0x102>
 800343e:	f7fd fe27 	bl	8001090 <HAL_GetTick>
 8003442:	4602      	mov	r2, r0
 8003444:	68bb      	ldr	r3, [r7, #8]
 8003446:	1ad3      	subs	r3, r2, r3
 8003448:	2b02      	cmp	r3, #2
 800344a:	d902      	bls.n	8003452 <RCCEx_PLLSAI1_Config+0x102>
 800344c:	2303      	movs	r3, #3
 800344e:	73fb      	strb	r3, [r7, #15]
 8003450:	e005      	b.n	800345e <RCCEx_PLLSAI1_Config+0x10e>
 8003452:	4b37      	ldr	r3, [pc, #220]	; (8003530 <RCCEx_PLLSAI1_Config+0x1e0>)
 8003454:	681b      	ldr	r3, [r3, #0]
 8003456:	f003 6300 	and.w	r3, r3, #134217728	; 0x8000000
 800345a:	2b00      	cmp	r3, #0
 800345c:	d1ef      	bne.n	800343e <RCCEx_PLLSAI1_Config+0xee>
 800345e:	7bfb      	ldrb	r3, [r7, #15]
 8003460:	2b00      	cmp	r3, #0
 8003462:	d160      	bne.n	8003526 <RCCEx_PLLSAI1_Config+0x1d6>
 8003464:	683b      	ldr	r3, [r7, #0]
 8003466:	2b00      	cmp	r3, #0
 8003468:	d111      	bne.n	800348e <RCCEx_PLLSAI1_Config+0x13e>
 800346a:	4831      	ldr	r0, [pc, #196]	; (8003530 <RCCEx_PLLSAI1_Config+0x1e0>)
 800346c:	4b30      	ldr	r3, [pc, #192]	; (8003530 <RCCEx_PLLSAI1_Config+0x1e0>)
 800346e:	691b      	ldr	r3, [r3, #16]
 8003470:	f423 331f 	bic.w	r3, r3, #162816	; 0x27c00
 8003474:	f423 7340 	bic.w	r3, r3, #768	; 0x300
 8003478:	687a      	ldr	r2, [r7, #4]
 800347a:	6892      	ldr	r2, [r2, #8]
 800347c:	0211      	lsls	r1, r2, #8
 800347e:	687a      	ldr	r2, [r7, #4]
 8003480:	68d2      	ldr	r2, [r2, #12]
 8003482:	0912      	lsrs	r2, r2, #4
 8003484:	0452      	lsls	r2, r2, #17
 8003486:	430a      	orrs	r2, r1
 8003488:	4313      	orrs	r3, r2
 800348a:	6103      	str	r3, [r0, #16]
 800348c:	e027      	b.n	80034de <RCCEx_PLLSAI1_Config+0x18e>
 800348e:	683b      	ldr	r3, [r7, #0]
 8003490:	2b01      	cmp	r3, #1
 8003492:	d112      	bne.n	80034ba <RCCEx_PLLSAI1_Config+0x16a>
 8003494:	4826      	ldr	r0, [pc, #152]	; (8003530 <RCCEx_PLLSAI1_Config+0x1e0>)
 8003496:	4b26      	ldr	r3, [pc, #152]	; (8003530 <RCCEx_PLLSAI1_Config+0x1e0>)
 8003498:	691b      	ldr	r3, [r3, #16]
 800349a:	f423 03c0 	bic.w	r3, r3, #6291456	; 0x600000
 800349e:	f423 43fe 	bic.w	r3, r3, #32512	; 0x7f00
 80034a2:	687a      	ldr	r2, [r7, #4]
 80034a4:	6892      	ldr	r2, [r2, #8]
 80034a6:	0211      	lsls	r1, r2, #8
 80034a8:	687a      	ldr	r2, [r7, #4]
 80034aa:	6912      	ldr	r2, [r2, #16]
 80034ac:	0852      	lsrs	r2, r2, #1
 80034ae:	3a01      	subs	r2, #1
 80034b0:	0552      	lsls	r2, r2, #21
 80034b2:	430a      	orrs	r2, r1
 80034b4:	4313      	orrs	r3, r2
 80034b6:	6103      	str	r3, [r0, #16]
 80034b8:	e011      	b.n	80034de <RCCEx_PLLSAI1_Config+0x18e>
 80034ba:	481d      	ldr	r0, [pc, #116]	; (8003530 <RCCEx_PLLSAI1_Config+0x1e0>)
 80034bc:	4b1c      	ldr	r3, [pc, #112]	; (8003530 <RCCEx_PLLSAI1_Config+0x1e0>)
 80034be:	691b      	ldr	r3, [r3, #16]
 80034c0:	f023 63c0 	bic.w	r3, r3, #100663296	; 0x6000000
 80034c4:	f423 43fe 	bic.w	r3, r3, #32512	; 0x7f00
 80034c8:	687a      	ldr	r2, [r7, #4]
 80034ca:	6892      	ldr	r2, [r2, #8]
 80034cc:	0211      	lsls	r1, r2, #8
 80034ce:	687a      	ldr	r2, [r7, #4]
 80034d0:	6952      	ldr	r2, [r2, #20]
 80034d2:	0852      	lsrs	r2, r2, #1
 80034d4:	3a01      	subs	r2, #1
 80034d6:	0652      	lsls	r2, r2, #25
 80034d8:	430a      	orrs	r2, r1
 80034da:	4313      	orrs	r3, r2
 80034dc:	6103      	str	r3, [r0, #16]
 80034de:	4a14      	ldr	r2, [pc, #80]	; (8003530 <RCCEx_PLLSAI1_Config+0x1e0>)
 80034e0:	4b13      	ldr	r3, [pc, #76]	; (8003530 <RCCEx_PLLSAI1_Config+0x1e0>)
 80034e2:	681b      	ldr	r3, [r3, #0]
 80034e4:	f043 6380 	orr.w	r3, r3, #67108864	; 0x4000000
 80034e8:	6013      	str	r3, [r2, #0]
 80034ea:	f7fd fdd1 	bl	8001090 <HAL_GetTick>
 80034ee:	60b8      	str	r0, [r7, #8]
 80034f0:	e009      	b.n	8003506 <RCCEx_PLLSAI1_Config+0x1b6>
 80034f2:	f7fd fdcd 	bl	8001090 <HAL_GetTick>
 80034f6:	4602      	mov	r2, r0
 80034f8:	68bb      	ldr	r3, [r7, #8]
 80034fa:	1ad3      	subs	r3, r2, r3
 80034fc:	2b02      	cmp	r3, #2
 80034fe:	d902      	bls.n	8003506 <RCCEx_PLLSAI1_Config+0x1b6>
 8003500:	2303      	movs	r3, #3
 8003502:	73fb      	strb	r3, [r7, #15]
 8003504:	e005      	b.n	8003512 <RCCEx_PLLSAI1_Config+0x1c2>
 8003506:	4b0a      	ldr	r3, [pc, #40]	; (8003530 <RCCEx_PLLSAI1_Config+0x1e0>)
 8003508:	681b      	ldr	r3, [r3, #0]
 800350a:	f003 6300 	and.w	r3, r3, #134217728	; 0x8000000
 800350e:	2b00      	cmp	r3, #0
 8003510:	d0ef      	beq.n	80034f2 <RCCEx_PLLSAI1_Config+0x1a2>
 8003512:	7bfb      	ldrb	r3, [r7, #15]
 8003514:	2b00      	cmp	r3, #0
 8003516:	d106      	bne.n	8003526 <RCCEx_PLLSAI1_Config+0x1d6>
 8003518:	4905      	ldr	r1, [pc, #20]	; (8003530 <RCCEx_PLLSAI1_Config+0x1e0>)
 800351a:	4b05      	ldr	r3, [pc, #20]	; (8003530 <RCCEx_PLLSAI1_Config+0x1e0>)
 800351c:	691a      	ldr	r2, [r3, #16]
 800351e:	687b      	ldr	r3, [r7, #4]
 8003520:	699b      	ldr	r3, [r3, #24]
 8003522:	4313      	orrs	r3, r2
 8003524:	610b      	str	r3, [r1, #16]
 8003526:	7bfb      	ldrb	r3, [r7, #15]
 8003528:	4618      	mov	r0, r3
 800352a:	3710      	adds	r7, #16
 800352c:	46bd      	mov	sp, r7
 800352e:	bd80      	pop	{r7, pc}
 8003530:	40021000 	.word	0x40021000

08003534 <RCCEx_PLLSAI2_Config>:
 8003534:	b580      	push	{r7, lr}
 8003536:	b084      	sub	sp, #16
 8003538:	af00      	add	r7, sp, #0
 800353a:	6078      	str	r0, [r7, #4]
 800353c:	6039      	str	r1, [r7, #0]
 800353e:	2300      	movs	r3, #0
 8003540:	60bb      	str	r3, [r7, #8]
 8003542:	2300      	movs	r3, #0
 8003544:	73fb      	strb	r3, [r7, #15]
 8003546:	4b68      	ldr	r3, [pc, #416]	; (80036e8 <RCCEx_PLLSAI2_Config+0x1b4>)
 8003548:	68db      	ldr	r3, [r3, #12]
 800354a:	f003 0303 	and.w	r3, r3, #3
 800354e:	2b00      	cmp	r3, #0
 8003550:	d018      	beq.n	8003584 <RCCEx_PLLSAI2_Config+0x50>
 8003552:	4b65      	ldr	r3, [pc, #404]	; (80036e8 <RCCEx_PLLSAI2_Config+0x1b4>)
 8003554:	68db      	ldr	r3, [r3, #12]
 8003556:	f003 0203 	and.w	r2, r3, #3
 800355a:	687b      	ldr	r3, [r7, #4]
 800355c:	681b      	ldr	r3, [r3, #0]
 800355e:	429a      	cmp	r2, r3
 8003560:	d10d      	bne.n	800357e <RCCEx_PLLSAI2_Config+0x4a>
 8003562:	687b      	ldr	r3, [r7, #4]
 8003564:	681b      	ldr	r3, [r3, #0]
 8003566:	2b00      	cmp	r3, #0
 8003568:	d009      	beq.n	800357e <RCCEx_PLLSAI2_Config+0x4a>
 800356a:	4b5f      	ldr	r3, [pc, #380]	; (80036e8 <RCCEx_PLLSAI2_Config+0x1b4>)
 800356c:	68db      	ldr	r3, [r3, #12]
 800356e:	091b      	lsrs	r3, r3, #4
 8003570:	f003 0307 	and.w	r3, r3, #7
 8003574:	1c5a      	adds	r2, r3, #1
 8003576:	687b      	ldr	r3, [r7, #4]
 8003578:	685b      	ldr	r3, [r3, #4]
 800357a:	429a      	cmp	r2, r3
 800357c:	d044      	beq.n	8003608 <RCCEx_PLLSAI2_Config+0xd4>
 800357e:	2301      	movs	r3, #1
 8003580:	73fb      	strb	r3, [r7, #15]
 8003582:	e041      	b.n	8003608 <RCCEx_PLLSAI2_Config+0xd4>
 8003584:	687b      	ldr	r3, [r7, #4]
 8003586:	681b      	ldr	r3, [r3, #0]
 8003588:	2b02      	cmp	r3, #2
 800358a:	d00c      	beq.n	80035a6 <RCCEx_PLLSAI2_Config+0x72>
 800358c:	2b03      	cmp	r3, #3
 800358e:	d013      	beq.n	80035b8 <RCCEx_PLLSAI2_Config+0x84>
 8003590:	2b01      	cmp	r3, #1
 8003592:	d120      	bne.n	80035d6 <RCCEx_PLLSAI2_Config+0xa2>
 8003594:	4b54      	ldr	r3, [pc, #336]	; (80036e8 <RCCEx_PLLSAI2_Config+0x1b4>)
 8003596:	681b      	ldr	r3, [r3, #0]
 8003598:	f003 0302 	and.w	r3, r3, #2
 800359c:	2b00      	cmp	r3, #0
 800359e:	d11d      	bne.n	80035dc <RCCEx_PLLSAI2_Config+0xa8>
 80035a0:	2301      	movs	r3, #1
 80035a2:	73fb      	strb	r3, [r7, #15]
 80035a4:	e01a      	b.n	80035dc <RCCEx_PLLSAI2_Config+0xa8>
 80035a6:	4b50      	ldr	r3, [pc, #320]	; (80036e8 <RCCEx_PLLSAI2_Config+0x1b4>)
 80035a8:	681b      	ldr	r3, [r3, #0]
 80035aa:	f403 6380 	and.w	r3, r3, #1024	; 0x400
 80035ae:	2b00      	cmp	r3, #0
 80035b0:	d116      	bne.n	80035e0 <RCCEx_PLLSAI2_Config+0xac>
 80035b2:	2301      	movs	r3, #1
 80035b4:	73fb      	strb	r3, [r7, #15]
 80035b6:	e013      	b.n	80035e0 <RCCEx_PLLSAI2_Config+0xac>
 80035b8:	4b4b      	ldr	r3, [pc, #300]	; (80036e8 <RCCEx_PLLSAI2_Config+0x1b4>)
 80035ba:	681b      	ldr	r3, [r3, #0]
 80035bc:	f403 3300 	and.w	r3, r3, #131072	; 0x20000
 80035c0:	2b00      	cmp	r3, #0
 80035c2:	d10f      	bne.n	80035e4 <RCCEx_PLLSAI2_Config+0xb0>
 80035c4:	4b48      	ldr	r3, [pc, #288]	; (80036e8 <RCCEx_PLLSAI2_Config+0x1b4>)
 80035c6:	681b      	ldr	r3, [r3, #0]
 80035c8:	f403 2380 	and.w	r3, r3, #262144	; 0x40000
 80035cc:	2b00      	cmp	r3, #0
 80035ce:	d109      	bne.n	80035e4 <RCCEx_PLLSAI2_Config+0xb0>
 80035d0:	2301      	movs	r3, #1
 80035d2:	73fb      	strb	r3, [r7, #15]
 80035d4:	e006      	b.n	80035e4 <RCCEx_PLLSAI2_Config+0xb0>
 80035d6:	2301      	movs	r3, #1
 80035d8:	73fb      	strb	r3, [r7, #15]
 80035da:	e004      	b.n	80035e6 <RCCEx_PLLSAI2_Config+0xb2>
 80035dc:	bf00      	nop
 80035de:	e002      	b.n	80035e6 <RCCEx_PLLSAI2_Config+0xb2>
 80035e0:	bf00      	nop
 80035e2:	e000      	b.n	80035e6 <RCCEx_PLLSAI2_Config+0xb2>
 80035e4:	bf00      	nop
 80035e6:	7bfb      	ldrb	r3, [r7, #15]
 80035e8:	2b00      	cmp	r3, #0
 80035ea:	d10d      	bne.n	8003608 <RCCEx_PLLSAI2_Config+0xd4>
 80035ec:	483e      	ldr	r0, [pc, #248]	; (80036e8 <RCCEx_PLLSAI2_Config+0x1b4>)
 80035ee:	4b3e      	ldr	r3, [pc, #248]	; (80036e8 <RCCEx_PLLSAI2_Config+0x1b4>)
 80035f0:	68db      	ldr	r3, [r3, #12]
 80035f2:	f023 0273 	bic.w	r2, r3, #115	; 0x73
 80035f6:	687b      	ldr	r3, [r7, #4]
 80035f8:	6819      	ldr	r1, [r3, #0]
 80035fa:	687b      	ldr	r3, [r7, #4]
 80035fc:	685b      	ldr	r3, [r3, #4]
 80035fe:	3b01      	subs	r3, #1
 8003600:	011b      	lsls	r3, r3, #4
 8003602:	430b      	orrs	r3, r1
 8003604:	4313      	orrs	r3, r2
 8003606:	60c3      	str	r3, [r0, #12]
 8003608:	7bfb      	ldrb	r3, [r7, #15]
 800360a:	2b00      	cmp	r3, #0
 800360c:	d167      	bne.n	80036de <RCCEx_PLLSAI2_Config+0x1aa>
 800360e:	4a36      	ldr	r2, [pc, #216]	; (80036e8 <RCCEx_PLLSAI2_Config+0x1b4>)
 8003610:	4b35      	ldr	r3, [pc, #212]	; (80036e8 <RCCEx_PLLSAI2_Config+0x1b4>)
 8003612:	681b      	ldr	r3, [r3, #0]
 8003614:	f023 5380 	bic.w	r3, r3, #268435456	; 0x10000000
 8003618:	6013      	str	r3, [r2, #0]
 800361a:	f7fd fd39 	bl	8001090 <HAL_GetTick>
 800361e:	60b8      	str	r0, [r7, #8]
 8003620:	e009      	b.n	8003636 <RCCEx_PLLSAI2_Config+0x102>
 8003622:	f7fd fd35 	bl	8001090 <HAL_GetTick>
 8003626:	4602      	mov	r2, r0
 8003628:	68bb      	ldr	r3, [r7, #8]
 800362a:	1ad3      	subs	r3, r2, r3
 800362c:	2b02      	cmp	r3, #2
 800362e:	d902      	bls.n	8003636 <RCCEx_PLLSAI2_Config+0x102>
 8003630:	2303      	movs	r3, #3
 8003632:	73fb      	strb	r3, [r7, #15]
 8003634:	e005      	b.n	8003642 <RCCEx_PLLSAI2_Config+0x10e>
 8003636:	4b2c      	ldr	r3, [pc, #176]	; (80036e8 <RCCEx_PLLSAI2_Config+0x1b4>)
 8003638:	681b      	ldr	r3, [r3, #0]
 800363a:	f003 5300 	and.w	r3, r3, #536870912	; 0x20000000
 800363e:	2b00      	cmp	r3, #0
 8003640:	d1ef      	bne.n	8003622 <RCCEx_PLLSAI2_Config+0xee>
 8003642:	7bfb      	ldrb	r3, [r7, #15]
 8003644:	2b00      	cmp	r3, #0
 8003646:	d14a      	bne.n	80036de <RCCEx_PLLSAI2_Config+0x1aa>
 8003648:	683b      	ldr	r3, [r7, #0]
 800364a:	2b00      	cmp	r3, #0
 800364c:	d111      	bne.n	8003672 <RCCEx_PLLSAI2_Config+0x13e>
 800364e:	4826      	ldr	r0, [pc, #152]	; (80036e8 <RCCEx_PLLSAI2_Config+0x1b4>)
 8003650:	4b25      	ldr	r3, [pc, #148]	; (80036e8 <RCCEx_PLLSAI2_Config+0x1b4>)
 8003652:	695b      	ldr	r3, [r3, #20]
 8003654:	f423 331f 	bic.w	r3, r3, #162816	; 0x27c00
 8003658:	f423 7340 	bic.w	r3, r3, #768	; 0x300
 800365c:	687a      	ldr	r2, [r7, #4]
 800365e:	6892      	ldr	r2, [r2, #8]
 8003660:	0211      	lsls	r1, r2, #8
 8003662:	687a      	ldr	r2, [r7, #4]
 8003664:	68d2      	ldr	r2, [r2, #12]
 8003666:	0912      	lsrs	r2, r2, #4
 8003668:	0452      	lsls	r2, r2, #17
 800366a:	430a      	orrs	r2, r1
 800366c:	4313      	orrs	r3, r2
 800366e:	6143      	str	r3, [r0, #20]
 8003670:	e011      	b.n	8003696 <RCCEx_PLLSAI2_Config+0x162>
 8003672:	481d      	ldr	r0, [pc, #116]	; (80036e8 <RCCEx_PLLSAI2_Config+0x1b4>)
 8003674:	4b1c      	ldr	r3, [pc, #112]	; (80036e8 <RCCEx_PLLSAI2_Config+0x1b4>)
 8003676:	695b      	ldr	r3, [r3, #20]
 8003678:	f023 63c0 	bic.w	r3, r3, #100663296	; 0x6000000
 800367c:	f423 43fe 	bic.w	r3, r3, #32512	; 0x7f00
 8003680:	687a      	ldr	r2, [r7, #4]
 8003682:	6892      	ldr	r2, [r2, #8]
 8003684:	0211      	lsls	r1, r2, #8
 8003686:	687a      	ldr	r2, [r7, #4]
 8003688:	6912      	ldr	r2, [r2, #16]
 800368a:	0852      	lsrs	r2, r2, #1
 800368c:	3a01      	subs	r2, #1
 800368e:	0652      	lsls	r2, r2, #25
 8003690:	430a      	orrs	r2, r1
 8003692:	4313      	orrs	r3, r2
 8003694:	6143      	str	r3, [r0, #20]
 8003696:	4a14      	ldr	r2, [pc, #80]	; (80036e8 <RCCEx_PLLSAI2_Config+0x1b4>)
 8003698:	4b13      	ldr	r3, [pc, #76]	; (80036e8 <RCCEx_PLLSAI2_Config+0x1b4>)
 800369a:	681b      	ldr	r3, [r3, #0]
 800369c:	f043 5380 	orr.w	r3, r3, #268435456	; 0x10000000
 80036a0:	6013      	str	r3, [r2, #0]
 80036a2:	f7fd fcf5 	bl	8001090 <HAL_GetTick>
 80036a6:	60b8      	str	r0, [r7, #8]
 80036a8:	e009      	b.n	80036be <RCCEx_PLLSAI2_Config+0x18a>
 80036aa:	f7fd fcf1 	bl	8001090 <HAL_GetTick>
 80036ae:	4602      	mov	r2, r0
 80036b0:	68bb      	ldr	r3, [r7, #8]
 80036b2:	1ad3      	subs	r3, r2, r3
 80036b4:	2b02      	cmp	r3, #2
 80036b6:	d902      	bls.n	80036be <RCCEx_PLLSAI2_Config+0x18a>
 80036b8:	2303      	movs	r3, #3
 80036ba:	73fb      	strb	r3, [r7, #15]
 80036bc:	e005      	b.n	80036ca <RCCEx_PLLSAI2_Config+0x196>
 80036be:	4b0a      	ldr	r3, [pc, #40]	; (80036e8 <RCCEx_PLLSAI2_Config+0x1b4>)
 80036c0:	681b      	ldr	r3, [r3, #0]
 80036c2:	f003 5300 	and.w	r3, r3, #536870912	; 0x20000000
 80036c6:	2b00      	cmp	r3, #0
 80036c8:	d0ef      	beq.n	80036aa <RCCEx_PLLSAI2_Config+0x176>
 80036ca:	7bfb      	ldrb	r3, [r7, #15]
 80036cc:	2b00      	cmp	r3, #0
 80036ce:	d106      	bne.n	80036de <RCCEx_PLLSAI2_Config+0x1aa>
 80036d0:	4905      	ldr	r1, [pc, #20]	; (80036e8 <RCCEx_PLLSAI2_Config+0x1b4>)
 80036d2:	4b05      	ldr	r3, [pc, #20]	; (80036e8 <RCCEx_PLLSAI2_Config+0x1b4>)
 80036d4:	695a      	ldr	r2, [r3, #20]
 80036d6:	687b      	ldr	r3, [r7, #4]
 80036d8:	695b      	ldr	r3, [r3, #20]
 80036da:	4313      	orrs	r3, r2
 80036dc:	614b      	str	r3, [r1, #20]
 80036de:	7bfb      	ldrb	r3, [r7, #15]
 80036e0:	4618      	mov	r0, r3
 80036e2:	3710      	adds	r7, #16
 80036e4:	46bd      	mov	sp, r7
 80036e6:	bd80      	pop	{r7, pc}
 80036e8:	40021000 	.word	0x40021000

080036ec <HAL_UART_Init>:
 80036ec:	b580      	push	{r7, lr}
 80036ee:	b082      	sub	sp, #8
 80036f0:	af00      	add	r7, sp, #0
 80036f2:	6078      	str	r0, [r7, #4]
 80036f4:	687b      	ldr	r3, [r7, #4]
 80036f6:	2b00      	cmp	r3, #0
 80036f8:	d101      	bne.n	80036fe <HAL_UART_Init+0x12>
 80036fa:	2301      	movs	r3, #1
 80036fc:	e043      	b.n	8003786 <HAL_UART_Init+0x9a>
 80036fe:	687b      	ldr	r3, [r7, #4]
 8003700:	f893 3071 	ldrb.w	r3, [r3, #113]	; 0x71
 8003704:	b2db      	uxtb	r3, r3
 8003706:	2b00      	cmp	r3, #0
 8003708:	d106      	bne.n	8003718 <HAL_UART_Init+0x2c>
 800370a:	687b      	ldr	r3, [r7, #4]
 800370c:	2200      	movs	r2, #0
 800370e:	f883 2070 	strb.w	r2, [r3, #112]	; 0x70
 8003712:	6878      	ldr	r0, [r7, #4]
 8003714:	f001 fa46 	bl	8004ba4 <HAL_UART_MspInit>
 8003718:	687b      	ldr	r3, [r7, #4]
 800371a:	2224      	movs	r2, #36	; 0x24
 800371c:	f883 2071 	strb.w	r2, [r3, #113]	; 0x71
 8003720:	687b      	ldr	r3, [r7, #4]
 8003722:	681b      	ldr	r3, [r3, #0]
 8003724:	687a      	ldr	r2, [r7, #4]
 8003726:	6812      	ldr	r2, [r2, #0]
 8003728:	6812      	ldr	r2, [r2, #0]
 800372a:	f022 0201 	bic.w	r2, r2, #1
 800372e:	601a      	str	r2, [r3, #0]
 8003730:	6878      	ldr	r0, [r7, #4]
 8003732:	f000 f8b9 	bl	80038a8 <UART_SetConfig>
 8003736:	4603      	mov	r3, r0
 8003738:	2b01      	cmp	r3, #1
 800373a:	d101      	bne.n	8003740 <HAL_UART_Init+0x54>
 800373c:	2301      	movs	r3, #1
 800373e:	e022      	b.n	8003786 <HAL_UART_Init+0x9a>
 8003740:	687b      	ldr	r3, [r7, #4]
 8003742:	6a5b      	ldr	r3, [r3, #36]	; 0x24
 8003744:	2b00      	cmp	r3, #0
 8003746:	d002      	beq.n	800374e <HAL_UART_Init+0x62>
 8003748:	6878      	ldr	r0, [r7, #4]
 800374a:	f000 fbeb 	bl	8003f24 <UART_AdvFeatureConfig>
 800374e:	687b      	ldr	r3, [r7, #4]
 8003750:	681b      	ldr	r3, [r3, #0]
 8003752:	687a      	ldr	r2, [r7, #4]
 8003754:	6812      	ldr	r2, [r2, #0]
 8003756:	6852      	ldr	r2, [r2, #4]
 8003758:	f422 4290 	bic.w	r2, r2, #18432	; 0x4800
 800375c:	605a      	str	r2, [r3, #4]
 800375e:	687b      	ldr	r3, [r7, #4]
 8003760:	681b      	ldr	r3, [r3, #0]
 8003762:	687a      	ldr	r2, [r7, #4]
 8003764:	6812      	ldr	r2, [r2, #0]
 8003766:	6892      	ldr	r2, [r2, #8]
 8003768:	f022 022a 	bic.w	r2, r2, #42	; 0x2a
 800376c:	609a      	str	r2, [r3, #8]
 800376e:	687b      	ldr	r3, [r7, #4]
 8003770:	681b      	ldr	r3, [r3, #0]
 8003772:	687a      	ldr	r2, [r7, #4]
 8003774:	6812      	ldr	r2, [r2, #0]
 8003776:	6812      	ldr	r2, [r2, #0]
 8003778:	f042 0201 	orr.w	r2, r2, #1
 800377c:	601a      	str	r2, [r3, #0]
 800377e:	6878      	ldr	r0, [r7, #4]
 8003780:	f000 fc72 	bl	8004068 <UART_CheckIdleState>
 8003784:	4603      	mov	r3, r0
 8003786:	4618      	mov	r0, r3
 8003788:	3708      	adds	r7, #8
 800378a:	46bd      	mov	sp, r7
 800378c:	bd80      	pop	{r7, pc}

0800378e <HAL_UART_Transmit>:
 800378e:	b580      	push	{r7, lr}
 8003790:	b088      	sub	sp, #32
 8003792:	af02      	add	r7, sp, #8
 8003794:	60f8      	str	r0, [r7, #12]
 8003796:	60b9      	str	r1, [r7, #8]
 8003798:	603b      	str	r3, [r7, #0]
 800379a:	4613      	mov	r3, r2
 800379c:	80fb      	strh	r3, [r7, #6]
 800379e:	2300      	movs	r3, #0
 80037a0:	617b      	str	r3, [r7, #20]
 80037a2:	68fb      	ldr	r3, [r7, #12]
 80037a4:	f893 3071 	ldrb.w	r3, [r3, #113]	; 0x71
 80037a8:	b2db      	uxtb	r3, r3
 80037aa:	2b20      	cmp	r3, #32
 80037ac:	d177      	bne.n	800389e <HAL_UART_Transmit+0x110>
 80037ae:	68bb      	ldr	r3, [r7, #8]
 80037b0:	2b00      	cmp	r3, #0
 80037b2:	d002      	beq.n	80037ba <HAL_UART_Transmit+0x2c>
 80037b4:	88fb      	ldrh	r3, [r7, #6]
 80037b6:	2b00      	cmp	r3, #0
 80037b8:	d101      	bne.n	80037be <HAL_UART_Transmit+0x30>
 80037ba:	2301      	movs	r3, #1
 80037bc:	e070      	b.n	80038a0 <HAL_UART_Transmit+0x112>
 80037be:	68fb      	ldr	r3, [r7, #12]
 80037c0:	f893 3070 	ldrb.w	r3, [r3, #112]	; 0x70
 80037c4:	2b01      	cmp	r3, #1
 80037c6:	d101      	bne.n	80037cc <HAL_UART_Transmit+0x3e>
 80037c8:	2302      	movs	r3, #2
 80037ca:	e069      	b.n	80038a0 <HAL_UART_Transmit+0x112>
 80037cc:	68fb      	ldr	r3, [r7, #12]
 80037ce:	2201      	movs	r2, #1
 80037d0:	f883 2070 	strb.w	r2, [r3, #112]	; 0x70
 80037d4:	68fb      	ldr	r3, [r7, #12]
 80037d6:	2200      	movs	r2, #0
 80037d8:	675a      	str	r2, [r3, #116]	; 0x74
 80037da:	68fb      	ldr	r3, [r7, #12]
 80037dc:	2221      	movs	r2, #33	; 0x21
 80037de:	f883 2071 	strb.w	r2, [r3, #113]	; 0x71
 80037e2:	f7fd fc55 	bl	8001090 <HAL_GetTick>
 80037e6:	6178      	str	r0, [r7, #20]
 80037e8:	68fb      	ldr	r3, [r7, #12]
 80037ea:	88fa      	ldrh	r2, [r7, #6]
 80037ec:	f8a3 2050 	strh.w	r2, [r3, #80]	; 0x50
 80037f0:	68fb      	ldr	r3, [r7, #12]
 80037f2:	88fa      	ldrh	r2, [r7, #6]
 80037f4:	f8a3 2052 	strh.w	r2, [r3, #82]	; 0x52
 80037f8:	e034      	b.n	8003864 <HAL_UART_Transmit+0xd6>
 80037fa:	683b      	ldr	r3, [r7, #0]
 80037fc:	9300      	str	r3, [sp, #0]
 80037fe:	697b      	ldr	r3, [r7, #20]
 8003800:	2200      	movs	r2, #0
 8003802:	2180      	movs	r1, #128	; 0x80
 8003804:	68f8      	ldr	r0, [r7, #12]
 8003806:	f000 fc78 	bl	80040fa <UART_WaitOnFlagUntilTimeout>
 800380a:	4603      	mov	r3, r0
 800380c:	2b00      	cmp	r3, #0
 800380e:	d001      	beq.n	8003814 <HAL_UART_Transmit+0x86>
 8003810:	2303      	movs	r3, #3
 8003812:	e045      	b.n	80038a0 <HAL_UART_Transmit+0x112>
 8003814:	68fb      	ldr	r3, [r7, #12]
 8003816:	689b      	ldr	r3, [r3, #8]
 8003818:	f5b3 5f80 	cmp.w	r3, #4096	; 0x1000
 800381c:	d111      	bne.n	8003842 <HAL_UART_Transmit+0xb4>
 800381e:	68fb      	ldr	r3, [r7, #12]
 8003820:	691b      	ldr	r3, [r3, #16]
 8003822:	2b00      	cmp	r3, #0
 8003824:	d10d      	bne.n	8003842 <HAL_UART_Transmit+0xb4>
 8003826:	68bb      	ldr	r3, [r7, #8]
 8003828:	613b      	str	r3, [r7, #16]
 800382a:	68fb      	ldr	r3, [r7, #12]
 800382c:	681b      	ldr	r3, [r3, #0]
 800382e:	693a      	ldr	r2, [r7, #16]
 8003830:	8812      	ldrh	r2, [r2, #0]
 8003832:	f3c2 0208 	ubfx	r2, r2, #0, #9
 8003836:	b292      	uxth	r2, r2
 8003838:	851a      	strh	r2, [r3, #40]	; 0x28
 800383a:	68bb      	ldr	r3, [r7, #8]
 800383c:	3302      	adds	r3, #2
 800383e:	60bb      	str	r3, [r7, #8]
 8003840:	e007      	b.n	8003852 <HAL_UART_Transmit+0xc4>
 8003842:	68fb      	ldr	r3, [r7, #12]
 8003844:	681a      	ldr	r2, [r3, #0]
 8003846:	68bb      	ldr	r3, [r7, #8]
 8003848:	1c59      	adds	r1, r3, #1
 800384a:	60b9      	str	r1, [r7, #8]
 800384c:	781b      	ldrb	r3, [r3, #0]
 800384e:	b29b      	uxth	r3, r3
 8003850:	8513      	strh	r3, [r2, #40]	; 0x28
 8003852:	68fb      	ldr	r3, [r7, #12]
 8003854:	f8b3 3052 	ldrh.w	r3, [r3, #82]	; 0x52
 8003858:	b29b      	uxth	r3, r3
 800385a:	3b01      	subs	r3, #1
 800385c:	b29a      	uxth	r2, r3
 800385e:	68fb      	ldr	r3, [r7, #12]
 8003860:	f8a3 2052 	strh.w	r2, [r3, #82]	; 0x52
 8003864:	68fb      	ldr	r3, [r7, #12]
 8003866:	f8b3 3052 	ldrh.w	r3, [r3, #82]	; 0x52
 800386a:	b29b      	uxth	r3, r3
 800386c:	2b00      	cmp	r3, #0
 800386e:	d1c4      	bne.n	80037fa <HAL_UART_Transmit+0x6c>
 8003870:	683b      	ldr	r3, [r7, #0]
 8003872:	9300      	str	r3, [sp, #0]
 8003874:	697b      	ldr	r3, [r7, #20]
 8003876:	2200      	movs	r2, #0
 8003878:	2140      	movs	r1, #64	; 0x40
 800387a:	68f8      	ldr	r0, [r7, #12]
 800387c:	f000 fc3d 	bl	80040fa <UART_WaitOnFlagUntilTimeout>
 8003880:	4603      	mov	r3, r0
 8003882:	2b00      	cmp	r3, #0
 8003884:	d001      	beq.n	800388a <HAL_UART_Transmit+0xfc>
 8003886:	2303      	movs	r3, #3
 8003888:	e00a      	b.n	80038a0 <HAL_UART_Transmit+0x112>
 800388a:	68fb      	ldr	r3, [r7, #12]
 800388c:	2220      	movs	r2, #32
 800388e:	f883 2071 	strb.w	r2, [r3, #113]	; 0x71
 8003892:	68fb      	ldr	r3, [r7, #12]
 8003894:	2200      	movs	r2, #0
 8003896:	f883 2070 	strb.w	r2, [r3, #112]	; 0x70
 800389a:	2300      	movs	r3, #0
 800389c:	e000      	b.n	80038a0 <HAL_UART_Transmit+0x112>
 800389e:	2302      	movs	r3, #2
 80038a0:	4618      	mov	r0, r3
 80038a2:	3718      	adds	r7, #24
 80038a4:	46bd      	mov	sp, r7
 80038a6:	bd80      	pop	{r7, pc}

080038a8 <UART_SetConfig>:
 80038a8:	e92d 43b0 	stmdb	sp!, {r4, r5, r7, r8, r9, lr}
 80038ac:	b088      	sub	sp, #32
 80038ae:	af00      	add	r7, sp, #0
 80038b0:	6078      	str	r0, [r7, #4]
 80038b2:	2300      	movs	r3, #0
 80038b4:	61fb      	str	r3, [r7, #28]
 80038b6:	2310      	movs	r3, #16
 80038b8:	76fb      	strb	r3, [r7, #27]
 80038ba:	2300      	movs	r3, #0
 80038bc:	817b      	strh	r3, [r7, #10]
 80038be:	2300      	movs	r3, #0
 80038c0:	617b      	str	r3, [r7, #20]
 80038c2:	2300      	movs	r3, #0
 80038c4:	74fb      	strb	r3, [r7, #19]
 80038c6:	2300      	movs	r3, #0
 80038c8:	60fb      	str	r3, [r7, #12]
 80038ca:	687b      	ldr	r3, [r7, #4]
 80038cc:	689a      	ldr	r2, [r3, #8]
 80038ce:	687b      	ldr	r3, [r7, #4]
 80038d0:	691b      	ldr	r3, [r3, #16]
 80038d2:	431a      	orrs	r2, r3
 80038d4:	687b      	ldr	r3, [r7, #4]
 80038d6:	695b      	ldr	r3, [r3, #20]
 80038d8:	431a      	orrs	r2, r3
 80038da:	687b      	ldr	r3, [r7, #4]
 80038dc:	69db      	ldr	r3, [r3, #28]
 80038de:	4313      	orrs	r3, r2
 80038e0:	61fb      	str	r3, [r7, #28]
 80038e2:	687b      	ldr	r3, [r7, #4]
 80038e4:	681a      	ldr	r2, [r3, #0]
 80038e6:	687b      	ldr	r3, [r7, #4]
 80038e8:	681b      	ldr	r3, [r3, #0]
 80038ea:	6819      	ldr	r1, [r3, #0]
 80038ec:	4baa      	ldr	r3, [pc, #680]	; (8003b98 <UART_SetConfig+0x2f0>)
 80038ee:	400b      	ands	r3, r1
 80038f0:	69f9      	ldr	r1, [r7, #28]
 80038f2:	430b      	orrs	r3, r1
 80038f4:	6013      	str	r3, [r2, #0]
 80038f6:	687b      	ldr	r3, [r7, #4]
 80038f8:	681b      	ldr	r3, [r3, #0]
 80038fa:	687a      	ldr	r2, [r7, #4]
 80038fc:	6812      	ldr	r2, [r2, #0]
 80038fe:	6852      	ldr	r2, [r2, #4]
 8003900:	f422 5140 	bic.w	r1, r2, #12288	; 0x3000
 8003904:	687a      	ldr	r2, [r7, #4]
 8003906:	68d2      	ldr	r2, [r2, #12]
 8003908:	430a      	orrs	r2, r1
 800390a:	605a      	str	r2, [r3, #4]
 800390c:	687b      	ldr	r3, [r7, #4]
 800390e:	699b      	ldr	r3, [r3, #24]
 8003910:	61fb      	str	r3, [r7, #28]
 8003912:	687b      	ldr	r3, [r7, #4]
 8003914:	681b      	ldr	r3, [r3, #0]
 8003916:	4aa1      	ldr	r2, [pc, #644]	; (8003b9c <UART_SetConfig+0x2f4>)
 8003918:	4293      	cmp	r3, r2
 800391a:	d004      	beq.n	8003926 <UART_SetConfig+0x7e>
 800391c:	687b      	ldr	r3, [r7, #4]
 800391e:	6a1b      	ldr	r3, [r3, #32]
 8003920:	69fa      	ldr	r2, [r7, #28]
 8003922:	4313      	orrs	r3, r2
 8003924:	61fb      	str	r3, [r7, #28]
 8003926:	687b      	ldr	r3, [r7, #4]
 8003928:	681b      	ldr	r3, [r3, #0]
 800392a:	687a      	ldr	r2, [r7, #4]
 800392c:	6812      	ldr	r2, [r2, #0]
 800392e:	6892      	ldr	r2, [r2, #8]
 8003930:	f422 6130 	bic.w	r1, r2, #2816	; 0xb00
 8003934:	69fa      	ldr	r2, [r7, #28]
 8003936:	430a      	orrs	r2, r1
 8003938:	609a      	str	r2, [r3, #8]
 800393a:	687b      	ldr	r3, [r7, #4]
 800393c:	681b      	ldr	r3, [r3, #0]
 800393e:	4a98      	ldr	r2, [pc, #608]	; (8003ba0 <UART_SetConfig+0x2f8>)
 8003940:	4293      	cmp	r3, r2
 8003942:	d121      	bne.n	8003988 <UART_SetConfig+0xe0>
 8003944:	4b97      	ldr	r3, [pc, #604]	; (8003ba4 <UART_SetConfig+0x2fc>)
 8003946:	f8d3 3088 	ldr.w	r3, [r3, #136]	; 0x88
 800394a:	f003 0303 	and.w	r3, r3, #3
 800394e:	2b03      	cmp	r3, #3
 8003950:	d816      	bhi.n	8003980 <UART_SetConfig+0xd8>
 8003952:	a201      	add	r2, pc, #4	; (adr r2, 8003958 <UART_SetConfig+0xb0>)
 8003954:	f852 f023 	ldr.w	pc, [r2, r3, lsl #2]
 8003958:	08003969 	.word	0x08003969
 800395c:	08003975 	.word	0x08003975
 8003960:	0800396f 	.word	0x0800396f
 8003964:	0800397b 	.word	0x0800397b
 8003968:	2301      	movs	r3, #1
 800396a:	76fb      	strb	r3, [r7, #27]
 800396c:	e0e4      	b.n	8003b38 <UART_SetConfig+0x290>
 800396e:	2302      	movs	r3, #2
 8003970:	76fb      	strb	r3, [r7, #27]
 8003972:	e0e1      	b.n	8003b38 <UART_SetConfig+0x290>
 8003974:	2304      	movs	r3, #4
 8003976:	76fb      	strb	r3, [r7, #27]
 8003978:	e0de      	b.n	8003b38 <UART_SetConfig+0x290>
 800397a:	2308      	movs	r3, #8
 800397c:	76fb      	strb	r3, [r7, #27]
 800397e:	e0db      	b.n	8003b38 <UART_SetConfig+0x290>
 8003980:	2310      	movs	r3, #16
 8003982:	76fb      	strb	r3, [r7, #27]
 8003984:	bf00      	nop
 8003986:	e0d7      	b.n	8003b38 <UART_SetConfig+0x290>
 8003988:	687b      	ldr	r3, [r7, #4]
 800398a:	681b      	ldr	r3, [r3, #0]
 800398c:	4a86      	ldr	r2, [pc, #536]	; (8003ba8 <UART_SetConfig+0x300>)
 800398e:	4293      	cmp	r3, r2
 8003990:	d134      	bne.n	80039fc <UART_SetConfig+0x154>
 8003992:	4b84      	ldr	r3, [pc, #528]	; (8003ba4 <UART_SetConfig+0x2fc>)
 8003994:	f8d3 3088 	ldr.w	r3, [r3, #136]	; 0x88
 8003998:	f003 030c 	and.w	r3, r3, #12
 800399c:	2b0c      	cmp	r3, #12
 800399e:	d829      	bhi.n	80039f4 <UART_SetConfig+0x14c>
 80039a0:	a201      	add	r2, pc, #4	; (adr r2, 80039a8 <UART_SetConfig+0x100>)
 80039a2:	f852 f023 	ldr.w	pc, [r2, r3, lsl #2]
 80039a6:	bf00      	nop
 80039a8:	080039dd 	.word	0x080039dd
 80039ac:	080039f5 	.word	0x080039f5
 80039b0:	080039f5 	.word	0x080039f5
 80039b4:	080039f5 	.word	0x080039f5
 80039b8:	080039e9 	.word	0x080039e9
 80039bc:	080039f5 	.word	0x080039f5
 80039c0:	080039f5 	.word	0x080039f5
 80039c4:	080039f5 	.word	0x080039f5
 80039c8:	080039e3 	.word	0x080039e3
 80039cc:	080039f5 	.word	0x080039f5
 80039d0:	080039f5 	.word	0x080039f5
 80039d4:	080039f5 	.word	0x080039f5
 80039d8:	080039ef 	.word	0x080039ef
 80039dc:	2300      	movs	r3, #0
 80039de:	76fb      	strb	r3, [r7, #27]
 80039e0:	e0aa      	b.n	8003b38 <UART_SetConfig+0x290>
 80039e2:	2302      	movs	r3, #2
 80039e4:	76fb      	strb	r3, [r7, #27]
 80039e6:	e0a7      	b.n	8003b38 <UART_SetConfig+0x290>
 80039e8:	2304      	movs	r3, #4
 80039ea:	76fb      	strb	r3, [r7, #27]
 80039ec:	e0a4      	b.n	8003b38 <UART_SetConfig+0x290>
 80039ee:	2308      	movs	r3, #8
 80039f0:	76fb      	strb	r3, [r7, #27]
 80039f2:	e0a1      	b.n	8003b38 <UART_SetConfig+0x290>
 80039f4:	2310      	movs	r3, #16
 80039f6:	76fb      	strb	r3, [r7, #27]
 80039f8:	bf00      	nop
 80039fa:	e09d      	b.n	8003b38 <UART_SetConfig+0x290>
 80039fc:	687b      	ldr	r3, [r7, #4]
 80039fe:	681b      	ldr	r3, [r3, #0]
 8003a00:	4a6a      	ldr	r2, [pc, #424]	; (8003bac <UART_SetConfig+0x304>)
 8003a02:	4293      	cmp	r3, r2
 8003a04:	d120      	bne.n	8003a48 <UART_SetConfig+0x1a0>
 8003a06:	4b67      	ldr	r3, [pc, #412]	; (8003ba4 <UART_SetConfig+0x2fc>)
 8003a08:	f8d3 3088 	ldr.w	r3, [r3, #136]	; 0x88
 8003a0c:	f003 0330 	and.w	r3, r3, #48	; 0x30
 8003a10:	2b10      	cmp	r3, #16
 8003a12:	d00f      	beq.n	8003a34 <UART_SetConfig+0x18c>
 8003a14:	2b10      	cmp	r3, #16
 8003a16:	d802      	bhi.n	8003a1e <UART_SetConfig+0x176>
 8003a18:	2b00      	cmp	r3, #0
 8003a1a:	d005      	beq.n	8003a28 <UART_SetConfig+0x180>
 8003a1c:	e010      	b.n	8003a40 <UART_SetConfig+0x198>
 8003a1e:	2b20      	cmp	r3, #32
 8003a20:	d005      	beq.n	8003a2e <UART_SetConfig+0x186>
 8003a22:	2b30      	cmp	r3, #48	; 0x30
 8003a24:	d009      	beq.n	8003a3a <UART_SetConfig+0x192>
 8003a26:	e00b      	b.n	8003a40 <UART_SetConfig+0x198>
 8003a28:	2300      	movs	r3, #0
 8003a2a:	76fb      	strb	r3, [r7, #27]
 8003a2c:	e084      	b.n	8003b38 <UART_SetConfig+0x290>
 8003a2e:	2302      	movs	r3, #2
 8003a30:	76fb      	strb	r3, [r7, #27]
 8003a32:	e081      	b.n	8003b38 <UART_SetConfig+0x290>
 8003a34:	2304      	movs	r3, #4
 8003a36:	76fb      	strb	r3, [r7, #27]
 8003a38:	e07e      	b.n	8003b38 <UART_SetConfig+0x290>
 8003a3a:	2308      	movs	r3, #8
 8003a3c:	76fb      	strb	r3, [r7, #27]
 8003a3e:	e07b      	b.n	8003b38 <UART_SetConfig+0x290>
 8003a40:	2310      	movs	r3, #16
 8003a42:	76fb      	strb	r3, [r7, #27]
 8003a44:	bf00      	nop
 8003a46:	e077      	b.n	8003b38 <UART_SetConfig+0x290>
 8003a48:	687b      	ldr	r3, [r7, #4]
 8003a4a:	681b      	ldr	r3, [r3, #0]
 8003a4c:	4a58      	ldr	r2, [pc, #352]	; (8003bb0 <UART_SetConfig+0x308>)
 8003a4e:	4293      	cmp	r3, r2
 8003a50:	d120      	bne.n	8003a94 <UART_SetConfig+0x1ec>
 8003a52:	4b54      	ldr	r3, [pc, #336]	; (8003ba4 <UART_SetConfig+0x2fc>)
 8003a54:	f8d3 3088 	ldr.w	r3, [r3, #136]	; 0x88
 8003a58:	f003 03c0 	and.w	r3, r3, #192	; 0xc0
 8003a5c:	2b40      	cmp	r3, #64	; 0x40
 8003a5e:	d00f      	beq.n	8003a80 <UART_SetConfig+0x1d8>
 8003a60:	2b40      	cmp	r3, #64	; 0x40
 8003a62:	d802      	bhi.n	8003a6a <UART_SetConfig+0x1c2>
 8003a64:	2b00      	cmp	r3, #0
 8003a66:	d005      	beq.n	8003a74 <UART_SetConfig+0x1cc>
 8003a68:	e010      	b.n	8003a8c <UART_SetConfig+0x1e4>
 8003a6a:	2b80      	cmp	r3, #128	; 0x80
 8003a6c:	d005      	beq.n	8003a7a <UART_SetConfig+0x1d2>
 8003a6e:	2bc0      	cmp	r3, #192	; 0xc0
 8003a70:	d009      	beq.n	8003a86 <UART_SetConfig+0x1de>
 8003a72:	e00b      	b.n	8003a8c <UART_SetConfig+0x1e4>
 8003a74:	2300      	movs	r3, #0
 8003a76:	76fb      	strb	r3, [r7, #27]
 8003a78:	e05e      	b.n	8003b38 <UART_SetConfig+0x290>
 8003a7a:	2302      	movs	r3, #2
 8003a7c:	76fb      	strb	r3, [r7, #27]
 8003a7e:	e05b      	b.n	8003b38 <UART_SetConfig+0x290>
 8003a80:	2304      	movs	r3, #4
 8003a82:	76fb      	strb	r3, [r7, #27]
 8003a84:	e058      	b.n	8003b38 <UART_SetConfig+0x290>
 8003a86:	2308      	movs	r3, #8
 8003a88:	76fb      	strb	r3, [r7, #27]
 8003a8a:	e055      	b.n	8003b38 <UART_SetConfig+0x290>
 8003a8c:	2310      	movs	r3, #16
 8003a8e:	76fb      	strb	r3, [r7, #27]
 8003a90:	bf00      	nop
 8003a92:	e051      	b.n	8003b38 <UART_SetConfig+0x290>
 8003a94:	687b      	ldr	r3, [r7, #4]
 8003a96:	681b      	ldr	r3, [r3, #0]
 8003a98:	4a46      	ldr	r2, [pc, #280]	; (8003bb4 <UART_SetConfig+0x30c>)
 8003a9a:	4293      	cmp	r3, r2
 8003a9c:	d124      	bne.n	8003ae8 <UART_SetConfig+0x240>
 8003a9e:	4b41      	ldr	r3, [pc, #260]	; (8003ba4 <UART_SetConfig+0x2fc>)
 8003aa0:	f8d3 3088 	ldr.w	r3, [r3, #136]	; 0x88
 8003aa4:	f403 7340 	and.w	r3, r3, #768	; 0x300
 8003aa8:	f5b3 7f80 	cmp.w	r3, #256	; 0x100
 8003aac:	d012      	beq.n	8003ad4 <UART_SetConfig+0x22c>
 8003aae:	f5b3 7f80 	cmp.w	r3, #256	; 0x100
 8003ab2:	d802      	bhi.n	8003aba <UART_SetConfig+0x212>
 8003ab4:	2b00      	cmp	r3, #0
 8003ab6:	d007      	beq.n	8003ac8 <UART_SetConfig+0x220>
 8003ab8:	e012      	b.n	8003ae0 <UART_SetConfig+0x238>
 8003aba:	f5b3 7f00 	cmp.w	r3, #512	; 0x200
 8003abe:	d006      	beq.n	8003ace <UART_SetConfig+0x226>
 8003ac0:	f5b3 7f40 	cmp.w	r3, #768	; 0x300
 8003ac4:	d009      	beq.n	8003ada <UART_SetConfig+0x232>
 8003ac6:	e00b      	b.n	8003ae0 <UART_SetConfig+0x238>
 8003ac8:	2300      	movs	r3, #0
 8003aca:	76fb      	strb	r3, [r7, #27]
 8003acc:	e034      	b.n	8003b38 <UART_SetConfig+0x290>
 8003ace:	2302      	movs	r3, #2
 8003ad0:	76fb      	strb	r3, [r7, #27]
 8003ad2:	e031      	b.n	8003b38 <UART_SetConfig+0x290>
 8003ad4:	2304      	movs	r3, #4
 8003ad6:	76fb      	strb	r3, [r7, #27]
 8003ad8:	e02e      	b.n	8003b38 <UART_SetConfig+0x290>
 8003ada:	2308      	movs	r3, #8
 8003adc:	76fb      	strb	r3, [r7, #27]
 8003ade:	e02b      	b.n	8003b38 <UART_SetConfig+0x290>
 8003ae0:	2310      	movs	r3, #16
 8003ae2:	76fb      	strb	r3, [r7, #27]
 8003ae4:	bf00      	nop
 8003ae6:	e027      	b.n	8003b38 <UART_SetConfig+0x290>
 8003ae8:	687b      	ldr	r3, [r7, #4]
 8003aea:	681b      	ldr	r3, [r3, #0]
 8003aec:	4a2b      	ldr	r2, [pc, #172]	; (8003b9c <UART_SetConfig+0x2f4>)
 8003aee:	4293      	cmp	r3, r2
 8003af0:	d123      	bne.n	8003b3a <UART_SetConfig+0x292>
 8003af2:	4b2c      	ldr	r3, [pc, #176]	; (8003ba4 <UART_SetConfig+0x2fc>)
 8003af4:	f8d3 3088 	ldr.w	r3, [r3, #136]	; 0x88
 8003af8:	f403 6340 	and.w	r3, r3, #3072	; 0xc00
 8003afc:	f5b3 6f80 	cmp.w	r3, #1024	; 0x400
 8003b00:	d012      	beq.n	8003b28 <UART_SetConfig+0x280>
 8003b02:	f5b3 6f80 	cmp.w	r3, #1024	; 0x400
 8003b06:	d802      	bhi.n	8003b0e <UART_SetConfig+0x266>
 8003b08:	2b00      	cmp	r3, #0
 8003b0a:	d007      	beq.n	8003b1c <UART_SetConfig+0x274>
 8003b0c:	e012      	b.n	8003b34 <UART_SetConfig+0x28c>
 8003b0e:	f5b3 6f00 	cmp.w	r3, #2048	; 0x800
 8003b12:	d006      	beq.n	8003b22 <UART_SetConfig+0x27a>
 8003b14:	f5b3 6f40 	cmp.w	r3, #3072	; 0xc00
 8003b18:	d009      	beq.n	8003b2e <UART_SetConfig+0x286>
 8003b1a:	e00b      	b.n	8003b34 <UART_SetConfig+0x28c>
 8003b1c:	2300      	movs	r3, #0
 8003b1e:	76fb      	strb	r3, [r7, #27]
 8003b20:	e00a      	b.n	8003b38 <UART_SetConfig+0x290>
 8003b22:	2302      	movs	r3, #2
 8003b24:	76fb      	strb	r3, [r7, #27]
 8003b26:	e007      	b.n	8003b38 <UART_SetConfig+0x290>
 8003b28:	2304      	movs	r3, #4
 8003b2a:	76fb      	strb	r3, [r7, #27]
 8003b2c:	e004      	b.n	8003b38 <UART_SetConfig+0x290>
 8003b2e:	2308      	movs	r3, #8
 8003b30:	76fb      	strb	r3, [r7, #27]
 8003b32:	e001      	b.n	8003b38 <UART_SetConfig+0x290>
 8003b34:	2310      	movs	r3, #16
 8003b36:	76fb      	strb	r3, [r7, #27]
 8003b38:	bf00      	nop
 8003b3a:	687b      	ldr	r3, [r7, #4]
 8003b3c:	681b      	ldr	r3, [r3, #0]
 8003b3e:	4a17      	ldr	r2, [pc, #92]	; (8003b9c <UART_SetConfig+0x2f4>)
 8003b40:	4293      	cmp	r3, r2
 8003b42:	f040 80ee 	bne.w	8003d22 <UART_SetConfig+0x47a>
 8003b46:	7efb      	ldrb	r3, [r7, #27]
 8003b48:	2b08      	cmp	r3, #8
 8003b4a:	d837      	bhi.n	8003bbc <UART_SetConfig+0x314>
 8003b4c:	a201      	add	r2, pc, #4	; (adr r2, 8003b54 <UART_SetConfig+0x2ac>)
 8003b4e:	f852 f023 	ldr.w	pc, [r2, r3, lsl #2]
 8003b52:	bf00      	nop
 8003b54:	08003b79 	.word	0x08003b79
 8003b58:	08003bbd 	.word	0x08003bbd
 8003b5c:	08003b81 	.word	0x08003b81
 8003b60:	08003bbd 	.word	0x08003bbd
 8003b64:	08003b87 	.word	0x08003b87
 8003b68:	08003bbd 	.word	0x08003bbd
 8003b6c:	08003bbd 	.word	0x08003bbd
 8003b70:	08003bbd 	.word	0x08003bbd
 8003b74:	08003b8f 	.word	0x08003b8f
 8003b78:	f7ff f87c 	bl	8002c74 <HAL_RCC_GetPCLK1Freq>
 8003b7c:	60f8      	str	r0, [r7, #12]
 8003b7e:	e020      	b.n	8003bc2 <UART_SetConfig+0x31a>
 8003b80:	4b0d      	ldr	r3, [pc, #52]	; (8003bb8 <UART_SetConfig+0x310>)
 8003b82:	60fb      	str	r3, [r7, #12]
 8003b84:	e01d      	b.n	8003bc2 <UART_SetConfig+0x31a>
 8003b86:	f7fe ffb9 	bl	8002afc <HAL_RCC_GetSysClockFreq>
 8003b8a:	60f8      	str	r0, [r7, #12]
 8003b8c:	e019      	b.n	8003bc2 <UART_SetConfig+0x31a>
 8003b8e:	f44f 4300 	mov.w	r3, #32768	; 0x8000
 8003b92:	60fb      	str	r3, [r7, #12]
 8003b94:	e015      	b.n	8003bc2 <UART_SetConfig+0x31a>
 8003b96:	bf00      	nop
 8003b98:	efff69f3 	.word	0xefff69f3
 8003b9c:	40008000 	.word	0x40008000
 8003ba0:	40013800 	.word	0x40013800
 8003ba4:	40021000 	.word	0x40021000
 8003ba8:	40004400 	.word	0x40004400
 8003bac:	40004800 	.word	0x40004800
 8003bb0:	40004c00 	.word	0x40004c00
 8003bb4:	40005000 	.word	0x40005000
 8003bb8:	00f42400 	.word	0x00f42400
 8003bbc:	2301      	movs	r3, #1
 8003bbe:	74fb      	strb	r3, [r7, #19]
 8003bc0:	bf00      	nop
 8003bc2:	68fb      	ldr	r3, [r7, #12]
 8003bc4:	2b00      	cmp	r3, #0
 8003bc6:	f000 819e 	beq.w	8003f06 <UART_SetConfig+0x65e>
 8003bca:	687b      	ldr	r3, [r7, #4]
 8003bcc:	685a      	ldr	r2, [r3, #4]
 8003bce:	4613      	mov	r3, r2
 8003bd0:	005b      	lsls	r3, r3, #1
 8003bd2:	441a      	add	r2, r3
 8003bd4:	68fb      	ldr	r3, [r7, #12]
 8003bd6:	429a      	cmp	r2, r3
 8003bd8:	d805      	bhi.n	8003be6 <UART_SetConfig+0x33e>
 8003bda:	687b      	ldr	r3, [r7, #4]
 8003bdc:	685b      	ldr	r3, [r3, #4]
 8003bde:	031a      	lsls	r2, r3, #12
 8003be0:	68fb      	ldr	r3, [r7, #12]
 8003be2:	429a      	cmp	r2, r3
 8003be4:	d202      	bcs.n	8003bec <UART_SetConfig+0x344>
 8003be6:	2301      	movs	r3, #1
 8003be8:	74fb      	strb	r3, [r7, #19]
 8003bea:	e18c      	b.n	8003f06 <UART_SetConfig+0x65e>
 8003bec:	7efb      	ldrb	r3, [r7, #27]
 8003bee:	2b08      	cmp	r3, #8
 8003bf0:	f200 8084 	bhi.w	8003cfc <UART_SetConfig+0x454>
 8003bf4:	a201      	add	r2, pc, #4	; (adr r2, 8003bfc <UART_SetConfig+0x354>)
 8003bf6:	f852 f023 	ldr.w	pc, [r2, r3, lsl #2]
 8003bfa:	bf00      	nop
 8003bfc:	08003c21 	.word	0x08003c21
 8003c00:	08003cfd 	.word	0x08003cfd
 8003c04:	08003c61 	.word	0x08003c61
 8003c08:	08003cfd 	.word	0x08003cfd
 8003c0c:	08003c95 	.word	0x08003c95
 8003c10:	08003cfd 	.word	0x08003cfd
 8003c14:	08003cfd 	.word	0x08003cfd
 8003c18:	08003cfd 	.word	0x08003cfd
 8003c1c:	08003cd3 	.word	0x08003cd3
 8003c20:	f7ff f828 	bl	8002c74 <HAL_RCC_GetPCLK1Freq>
 8003c24:	4603      	mov	r3, r0
 8003c26:	f04f 0400 	mov.w	r4, #0
 8003c2a:	ea4f 2904 	mov.w	r9, r4, lsl #8
 8003c2e:	ea49 6913 	orr.w	r9, r9, r3, lsr #24
 8003c32:	ea4f 2803 	mov.w	r8, r3, lsl #8
 8003c36:	687b      	ldr	r3, [r7, #4]
 8003c38:	685b      	ldr	r3, [r3, #4]
 8003c3a:	085b      	lsrs	r3, r3, #1
 8003c3c:	f04f 0400 	mov.w	r4, #0
 8003c40:	eb18 0003 	adds.w	r0, r8, r3
 8003c44:	eb49 0104 	adc.w	r1, r9, r4
 8003c48:	687b      	ldr	r3, [r7, #4]
 8003c4a:	685b      	ldr	r3, [r3, #4]
 8003c4c:	f04f 0400 	mov.w	r4, #0
 8003c50:	461a      	mov	r2, r3
 8003c52:	4623      	mov	r3, r4
 8003c54:	f7fd f854 	bl	8000d00 <__aeabi_uldivmod>
 8003c58:	4603      	mov	r3, r0
 8003c5a:	460c      	mov	r4, r1
 8003c5c:	617b      	str	r3, [r7, #20]
 8003c5e:	e050      	b.n	8003d02 <UART_SetConfig+0x45a>
 8003c60:	687b      	ldr	r3, [r7, #4]
 8003c62:	685b      	ldr	r3, [r3, #4]
 8003c64:	085b      	lsrs	r3, r3, #1
 8003c66:	f04f 0400 	mov.w	r4, #0
 8003c6a:	49ad      	ldr	r1, [pc, #692]	; (8003f20 <UART_SetConfig+0x678>)
 8003c6c:	f04f 0200 	mov.w	r2, #0
 8003c70:	eb13 0801 	adds.w	r8, r3, r1
 8003c74:	eb44 0902 	adc.w	r9, r4, r2
 8003c78:	4640      	mov	r0, r8
 8003c7a:	4649      	mov	r1, r9
 8003c7c:	687b      	ldr	r3, [r7, #4]
 8003c7e:	685b      	ldr	r3, [r3, #4]
 8003c80:	f04f 0400 	mov.w	r4, #0
 8003c84:	461a      	mov	r2, r3
 8003c86:	4623      	mov	r3, r4
 8003c88:	f7fd f83a 	bl	8000d00 <__aeabi_uldivmod>
 8003c8c:	4603      	mov	r3, r0
 8003c8e:	460c      	mov	r4, r1
 8003c90:	617b      	str	r3, [r7, #20]
 8003c92:	e036      	b.n	8003d02 <UART_SetConfig+0x45a>
 8003c94:	f7fe ff32 	bl	8002afc <HAL_RCC_GetSysClockFreq>
 8003c98:	4603      	mov	r3, r0
 8003c9a:	461a      	mov	r2, r3
 8003c9c:	f04f 0300 	mov.w	r3, #0
 8003ca0:	021d      	lsls	r5, r3, #8
 8003ca2:	ea45 6512 	orr.w	r5, r5, r2, lsr #24
 8003ca6:	0214      	lsls	r4, r2, #8
 8003ca8:	687b      	ldr	r3, [r7, #4]
 8003caa:	685b      	ldr	r3, [r3, #4]
 8003cac:	085b      	lsrs	r3, r3, #1
 8003cae:	461a      	mov	r2, r3
 8003cb0:	f04f 0300 	mov.w	r3, #0
 8003cb4:	18a0      	adds	r0, r4, r2
 8003cb6:	eb45 0103 	adc.w	r1, r5, r3
 8003cba:	687b      	ldr	r3, [r7, #4]
 8003cbc:	685b      	ldr	r3, [r3, #4]
 8003cbe:	f04f 0400 	mov.w	r4, #0
 8003cc2:	461a      	mov	r2, r3
 8003cc4:	4623      	mov	r3, r4
 8003cc6:	f7fd f81b 	bl	8000d00 <__aeabi_uldivmod>
 8003cca:	4603      	mov	r3, r0
 8003ccc:	460c      	mov	r4, r1
 8003cce:	617b      	str	r3, [r7, #20]
 8003cd0:	e017      	b.n	8003d02 <UART_SetConfig+0x45a>
 8003cd2:	687b      	ldr	r3, [r7, #4]
 8003cd4:	685b      	ldr	r3, [r3, #4]
 8003cd6:	085b      	lsrs	r3, r3, #1
 8003cd8:	f04f 0400 	mov.w	r4, #0
 8003cdc:	f513 0000 	adds.w	r0, r3, #8388608	; 0x800000
 8003ce0:	f144 0100 	adc.w	r1, r4, #0
 8003ce4:	687b      	ldr	r3, [r7, #4]
 8003ce6:	685b      	ldr	r3, [r3, #4]
 8003ce8:	f04f 0400 	mov.w	r4, #0
 8003cec:	461a      	mov	r2, r3
 8003cee:	4623      	mov	r3, r4
 8003cf0:	f7fd f806 	bl	8000d00 <__aeabi_uldivmod>
 8003cf4:	4603      	mov	r3, r0
 8003cf6:	460c      	mov	r4, r1
 8003cf8:	617b      	str	r3, [r7, #20]
 8003cfa:	e002      	b.n	8003d02 <UART_SetConfig+0x45a>
 8003cfc:	2301      	movs	r3, #1
 8003cfe:	74fb      	strb	r3, [r7, #19]
 8003d00:	bf00      	nop
 8003d02:	697b      	ldr	r3, [r7, #20]
 8003d04:	f5b3 7f40 	cmp.w	r3, #768	; 0x300
 8003d08:	d308      	bcc.n	8003d1c <UART_SetConfig+0x474>
 8003d0a:	697b      	ldr	r3, [r7, #20]
 8003d0c:	f5b3 1f80 	cmp.w	r3, #1048576	; 0x100000
 8003d10:	d204      	bcs.n	8003d1c <UART_SetConfig+0x474>
 8003d12:	687b      	ldr	r3, [r7, #4]
 8003d14:	681b      	ldr	r3, [r3, #0]
 8003d16:	697a      	ldr	r2, [r7, #20]
 8003d18:	60da      	str	r2, [r3, #12]
 8003d1a:	e0f4      	b.n	8003f06 <UART_SetConfig+0x65e>
 8003d1c:	2301      	movs	r3, #1
 8003d1e:	74fb      	strb	r3, [r7, #19]
 8003d20:	e0f1      	b.n	8003f06 <UART_SetConfig+0x65e>
 8003d22:	687b      	ldr	r3, [r7, #4]
 8003d24:	69db      	ldr	r3, [r3, #28]
 8003d26:	f5b3 4f00 	cmp.w	r3, #32768	; 0x8000
 8003d2a:	d17e      	bne.n	8003e2a <UART_SetConfig+0x582>
 8003d2c:	7efb      	ldrb	r3, [r7, #27]
 8003d2e:	2b08      	cmp	r3, #8
 8003d30:	d85b      	bhi.n	8003dea <UART_SetConfig+0x542>
 8003d32:	a201      	add	r2, pc, #4	; (adr r2, 8003d38 <UART_SetConfig+0x490>)
 8003d34:	f852 f023 	ldr.w	pc, [r2, r3, lsl #2]
 8003d38:	08003d5d 	.word	0x08003d5d
 8003d3c:	08003d7b 	.word	0x08003d7b
 8003d40:	08003d99 	.word	0x08003d99
 8003d44:	08003deb 	.word	0x08003deb
 8003d48:	08003db5 	.word	0x08003db5
 8003d4c:	08003deb 	.word	0x08003deb
 8003d50:	08003deb 	.word	0x08003deb
 8003d54:	08003deb 	.word	0x08003deb
 8003d58:	08003dd3 	.word	0x08003dd3
 8003d5c:	f7fe ff8a 	bl	8002c74 <HAL_RCC_GetPCLK1Freq>
 8003d60:	4603      	mov	r3, r0
 8003d62:	005a      	lsls	r2, r3, #1
 8003d64:	687b      	ldr	r3, [r7, #4]
 8003d66:	685b      	ldr	r3, [r3, #4]
 8003d68:	085b      	lsrs	r3, r3, #1
 8003d6a:	441a      	add	r2, r3
 8003d6c:	687b      	ldr	r3, [r7, #4]
 8003d6e:	685b      	ldr	r3, [r3, #4]
 8003d70:	fbb2 f3f3 	udiv	r3, r2, r3
 8003d74:	b29b      	uxth	r3, r3
 8003d76:	617b      	str	r3, [r7, #20]
 8003d78:	e03a      	b.n	8003df0 <UART_SetConfig+0x548>
 8003d7a:	f7fe ff8f 	bl	8002c9c <HAL_RCC_GetPCLK2Freq>
 8003d7e:	4603      	mov	r3, r0
 8003d80:	005a      	lsls	r2, r3, #1
 8003d82:	687b      	ldr	r3, [r7, #4]
 8003d84:	685b      	ldr	r3, [r3, #4]
 8003d86:	085b      	lsrs	r3, r3, #1
 8003d88:	441a      	add	r2, r3
 8003d8a:	687b      	ldr	r3, [r7, #4]
 8003d8c:	685b      	ldr	r3, [r3, #4]
 8003d8e:	fbb2 f3f3 	udiv	r3, r2, r3
 8003d92:	b29b      	uxth	r3, r3
 8003d94:	617b      	str	r3, [r7, #20]
 8003d96:	e02b      	b.n	8003df0 <UART_SetConfig+0x548>
 8003d98:	687b      	ldr	r3, [r7, #4]
 8003d9a:	685b      	ldr	r3, [r3, #4]
 8003d9c:	085b      	lsrs	r3, r3, #1
 8003d9e:	f103 73f4 	add.w	r3, r3, #31981568	; 0x1e80000
 8003da2:	f503 4390 	add.w	r3, r3, #18432	; 0x4800
 8003da6:	687a      	ldr	r2, [r7, #4]
 8003da8:	6852      	ldr	r2, [r2, #4]
 8003daa:	fbb3 f3f2 	udiv	r3, r3, r2
 8003dae:	b29b      	uxth	r3, r3
 8003db0:	617b      	str	r3, [r7, #20]
 8003db2:	e01d      	b.n	8003df0 <UART_SetConfig+0x548>
 8003db4:	f7fe fea2 	bl	8002afc <HAL_RCC_GetSysClockFreq>
 8003db8:	4603      	mov	r3, r0
 8003dba:	005a      	lsls	r2, r3, #1
 8003dbc:	687b      	ldr	r3, [r7, #4]
 8003dbe:	685b      	ldr	r3, [r3, #4]
 8003dc0:	085b      	lsrs	r3, r3, #1
 8003dc2:	441a      	add	r2, r3
 8003dc4:	687b      	ldr	r3, [r7, #4]
 8003dc6:	685b      	ldr	r3, [r3, #4]
 8003dc8:	fbb2 f3f3 	udiv	r3, r2, r3
 8003dcc:	b29b      	uxth	r3, r3
 8003dce:	617b      	str	r3, [r7, #20]
 8003dd0:	e00e      	b.n	8003df0 <UART_SetConfig+0x548>
 8003dd2:	687b      	ldr	r3, [r7, #4]
 8003dd4:	685b      	ldr	r3, [r3, #4]
 8003dd6:	085b      	lsrs	r3, r3, #1
 8003dd8:	f503 3280 	add.w	r2, r3, #65536	; 0x10000
 8003ddc:	687b      	ldr	r3, [r7, #4]
 8003dde:	685b      	ldr	r3, [r3, #4]
 8003de0:	fbb2 f3f3 	udiv	r3, r2, r3
 8003de4:	b29b      	uxth	r3, r3
 8003de6:	617b      	str	r3, [r7, #20]
 8003de8:	e002      	b.n	8003df0 <UART_SetConfig+0x548>
 8003dea:	2301      	movs	r3, #1
 8003dec:	74fb      	strb	r3, [r7, #19]
 8003dee:	bf00      	nop
 8003df0:	697b      	ldr	r3, [r7, #20]
 8003df2:	2b0f      	cmp	r3, #15
 8003df4:	d916      	bls.n	8003e24 <UART_SetConfig+0x57c>
 8003df6:	697b      	ldr	r3, [r7, #20]
 8003df8:	f5b3 3f80 	cmp.w	r3, #65536	; 0x10000
 8003dfc:	d212      	bcs.n	8003e24 <UART_SetConfig+0x57c>
 8003dfe:	697b      	ldr	r3, [r7, #20]
 8003e00:	b29b      	uxth	r3, r3
 8003e02:	f023 030f 	bic.w	r3, r3, #15
 8003e06:	817b      	strh	r3, [r7, #10]
 8003e08:	697b      	ldr	r3, [r7, #20]
 8003e0a:	085b      	lsrs	r3, r3, #1
 8003e0c:	b29b      	uxth	r3, r3
 8003e0e:	f003 0307 	and.w	r3, r3, #7
 8003e12:	b29a      	uxth	r2, r3
 8003e14:	897b      	ldrh	r3, [r7, #10]
 8003e16:	4313      	orrs	r3, r2
 8003e18:	817b      	strh	r3, [r7, #10]
 8003e1a:	687b      	ldr	r3, [r7, #4]
 8003e1c:	681b      	ldr	r3, [r3, #0]
 8003e1e:	897a      	ldrh	r2, [r7, #10]
 8003e20:	60da      	str	r2, [r3, #12]
 8003e22:	e070      	b.n	8003f06 <UART_SetConfig+0x65e>
 8003e24:	2301      	movs	r3, #1
 8003e26:	74fb      	strb	r3, [r7, #19]
 8003e28:	e06d      	b.n	8003f06 <UART_SetConfig+0x65e>
 8003e2a:	7efb      	ldrb	r3, [r7, #27]
 8003e2c:	2b08      	cmp	r3, #8
 8003e2e:	d859      	bhi.n	8003ee4 <UART_SetConfig+0x63c>
 8003e30:	a201      	add	r2, pc, #4	; (adr r2, 8003e38 <UART_SetConfig+0x590>)
 8003e32:	f852 f023 	ldr.w	pc, [r2, r3, lsl #2]
 8003e36:	bf00      	nop
 8003e38:	08003e5d 	.word	0x08003e5d
 8003e3c:	08003e79 	.word	0x08003e79
 8003e40:	08003e95 	.word	0x08003e95
 8003e44:	08003ee5 	.word	0x08003ee5
 8003e48:	08003eb1 	.word	0x08003eb1
 8003e4c:	08003ee5 	.word	0x08003ee5
 8003e50:	08003ee5 	.word	0x08003ee5
 8003e54:	08003ee5 	.word	0x08003ee5
 8003e58:	08003ecd 	.word	0x08003ecd
 8003e5c:	f7fe ff0a 	bl	8002c74 <HAL_RCC_GetPCLK1Freq>
 8003e60:	4602      	mov	r2, r0
 8003e62:	687b      	ldr	r3, [r7, #4]
 8003e64:	685b      	ldr	r3, [r3, #4]
 8003e66:	085b      	lsrs	r3, r3, #1
 8003e68:	441a      	add	r2, r3
 8003e6a:	687b      	ldr	r3, [r7, #4]
 8003e6c:	685b      	ldr	r3, [r3, #4]
 8003e6e:	fbb2 f3f3 	udiv	r3, r2, r3
 8003e72:	b29b      	uxth	r3, r3
 8003e74:	617b      	str	r3, [r7, #20]
 8003e76:	e038      	b.n	8003eea <UART_SetConfig+0x642>
 8003e78:	f7fe ff10 	bl	8002c9c <HAL_RCC_GetPCLK2Freq>
 8003e7c:	4602      	mov	r2, r0
 8003e7e:	687b      	ldr	r3, [r7, #4]
 8003e80:	685b      	ldr	r3, [r3, #4]
 8003e82:	085b      	lsrs	r3, r3, #1
 8003e84:	441a      	add	r2, r3
 8003e86:	687b      	ldr	r3, [r7, #4]
 8003e88:	685b      	ldr	r3, [r3, #4]
 8003e8a:	fbb2 f3f3 	udiv	r3, r2, r3
 8003e8e:	b29b      	uxth	r3, r3
 8003e90:	617b      	str	r3, [r7, #20]
 8003e92:	e02a      	b.n	8003eea <UART_SetConfig+0x642>
 8003e94:	687b      	ldr	r3, [r7, #4]
 8003e96:	685b      	ldr	r3, [r3, #4]
 8003e98:	085b      	lsrs	r3, r3, #1
 8003e9a:	f503 0374 	add.w	r3, r3, #15990784	; 0xf40000
 8003e9e:	f503 5310 	add.w	r3, r3, #9216	; 0x2400
 8003ea2:	687a      	ldr	r2, [r7, #4]
 8003ea4:	6852      	ldr	r2, [r2, #4]
 8003ea6:	fbb3 f3f2 	udiv	r3, r3, r2
 8003eaa:	b29b      	uxth	r3, r3
 8003eac:	617b      	str	r3, [r7, #20]
 8003eae:	e01c      	b.n	8003eea <UART_SetConfig+0x642>
 8003eb0:	f7fe fe24 	bl	8002afc <HAL_RCC_GetSysClockFreq>
 8003eb4:	4602      	mov	r2, r0
 8003eb6:	687b      	ldr	r3, [r7, #4]
 8003eb8:	685b      	ldr	r3, [r3, #4]
 8003eba:	085b      	lsrs	r3, r3, #1
 8003ebc:	441a      	add	r2, r3
 8003ebe:	687b      	ldr	r3, [r7, #4]
 8003ec0:	685b      	ldr	r3, [r3, #4]
 8003ec2:	fbb2 f3f3 	udiv	r3, r2, r3
 8003ec6:	b29b      	uxth	r3, r3
 8003ec8:	617b      	str	r3, [r7, #20]
 8003eca:	e00e      	b.n	8003eea <UART_SetConfig+0x642>
 8003ecc:	687b      	ldr	r3, [r7, #4]
 8003ece:	685b      	ldr	r3, [r3, #4]
 8003ed0:	085b      	lsrs	r3, r3, #1
 8003ed2:	f503 4200 	add.w	r2, r3, #32768	; 0x8000
 8003ed6:	687b      	ldr	r3, [r7, #4]
 8003ed8:	685b      	ldr	r3, [r3, #4]
 8003eda:	fbb2 f3f3 	udiv	r3, r2, r3
 8003ede:	b29b      	uxth	r3, r3
 8003ee0:	617b      	str	r3, [r7, #20]
 8003ee2:	e002      	b.n	8003eea <UART_SetConfig+0x642>
 8003ee4:	2301      	movs	r3, #1
 8003ee6:	74fb      	strb	r3, [r7, #19]
 8003ee8:	bf00      	nop
 8003eea:	697b      	ldr	r3, [r7, #20]
 8003eec:	2b0f      	cmp	r3, #15
 8003eee:	d908      	bls.n	8003f02 <UART_SetConfig+0x65a>
 8003ef0:	697b      	ldr	r3, [r7, #20]
 8003ef2:	f5b3 3f80 	cmp.w	r3, #65536	; 0x10000
 8003ef6:	d204      	bcs.n	8003f02 <UART_SetConfig+0x65a>
 8003ef8:	687b      	ldr	r3, [r7, #4]
 8003efa:	681b      	ldr	r3, [r3, #0]
 8003efc:	697a      	ldr	r2, [r7, #20]
 8003efe:	60da      	str	r2, [r3, #12]
 8003f00:	e001      	b.n	8003f06 <UART_SetConfig+0x65e>
 8003f02:	2301      	movs	r3, #1
 8003f04:	74fb      	strb	r3, [r7, #19]
 8003f06:	687b      	ldr	r3, [r7, #4]
 8003f08:	2200      	movs	r2, #0
 8003f0a:	661a      	str	r2, [r3, #96]	; 0x60
 8003f0c:	687b      	ldr	r3, [r7, #4]
 8003f0e:	2200      	movs	r2, #0
 8003f10:	665a      	str	r2, [r3, #100]	; 0x64
 8003f12:	7cfb      	ldrb	r3, [r7, #19]
 8003f14:	4618      	mov	r0, r3
 8003f16:	3720      	adds	r7, #32
 8003f18:	46bd      	mov	sp, r7
 8003f1a:	e8bd 83b0 	ldmia.w	sp!, {r4, r5, r7, r8, r9, pc}
 8003f1e:	bf00      	nop
 8003f20:	f4240000 	.word	0xf4240000

08003f24 <UART_AdvFeatureConfig>:
 8003f24:	b480      	push	{r7}
 8003f26:	b083      	sub	sp, #12
 8003f28:	af00      	add	r7, sp, #0
 8003f2a:	6078      	str	r0, [r7, #4]
 8003f2c:	687b      	ldr	r3, [r7, #4]
 8003f2e:	6a5b      	ldr	r3, [r3, #36]	; 0x24
 8003f30:	f003 0301 	and.w	r3, r3, #1
 8003f34:	2b00      	cmp	r3, #0
 8003f36:	d00a      	beq.n	8003f4e <UART_AdvFeatureConfig+0x2a>
 8003f38:	687b      	ldr	r3, [r7, #4]
 8003f3a:	681b      	ldr	r3, [r3, #0]
 8003f3c:	687a      	ldr	r2, [r7, #4]
 8003f3e:	6812      	ldr	r2, [r2, #0]
 8003f40:	6852      	ldr	r2, [r2, #4]
 8003f42:	f422 3100 	bic.w	r1, r2, #131072	; 0x20000
 8003f46:	687a      	ldr	r2, [r7, #4]
 8003f48:	6a92      	ldr	r2, [r2, #40]	; 0x28
 8003f4a:	430a      	orrs	r2, r1
 8003f4c:	605a      	str	r2, [r3, #4]
 8003f4e:	687b      	ldr	r3, [r7, #4]
 8003f50:	6a5b      	ldr	r3, [r3, #36]	; 0x24
 8003f52:	f003 0302 	and.w	r3, r3, #2
 8003f56:	2b00      	cmp	r3, #0
 8003f58:	d00a      	beq.n	8003f70 <UART_AdvFeatureConfig+0x4c>
 8003f5a:	687b      	ldr	r3, [r7, #4]
 8003f5c:	681b      	ldr	r3, [r3, #0]
 8003f5e:	687a      	ldr	r2, [r7, #4]
 8003f60:	6812      	ldr	r2, [r2, #0]
 8003f62:	6852      	ldr	r2, [r2, #4]
 8003f64:	f422 3180 	bic.w	r1, r2, #65536	; 0x10000
 8003f68:	687a      	ldr	r2, [r7, #4]
 8003f6a:	6ad2      	ldr	r2, [r2, #44]	; 0x2c
 8003f6c:	430a      	orrs	r2, r1
 8003f6e:	605a      	str	r2, [r3, #4]
 8003f70:	687b      	ldr	r3, [r7, #4]
 8003f72:	6a5b      	ldr	r3, [r3, #36]	; 0x24
 8003f74:	f003 0304 	and.w	r3, r3, #4
 8003f78:	2b00      	cmp	r3, #0
 8003f7a:	d00a      	beq.n	8003f92 <UART_AdvFeatureConfig+0x6e>
 8003f7c:	687b      	ldr	r3, [r7, #4]
 8003f7e:	681b      	ldr	r3, [r3, #0]
 8003f80:	687a      	ldr	r2, [r7, #4]
 8003f82:	6812      	ldr	r2, [r2, #0]
 8003f84:	6852      	ldr	r2, [r2, #4]
 8003f86:	f422 2180 	bic.w	r1, r2, #262144	; 0x40000
 8003f8a:	687a      	ldr	r2, [r7, #4]
 8003f8c:	6b12      	ldr	r2, [r2, #48]	; 0x30
 8003f8e:	430a      	orrs	r2, r1
 8003f90:	605a      	str	r2, [r3, #4]
 8003f92:	687b      	ldr	r3, [r7, #4]
 8003f94:	6a5b      	ldr	r3, [r3, #36]	; 0x24
 8003f96:	f003 0308 	and.w	r3, r3, #8
 8003f9a:	2b00      	cmp	r3, #0
 8003f9c:	d00a      	beq.n	8003fb4 <UART_AdvFeatureConfig+0x90>
 8003f9e:	687b      	ldr	r3, [r7, #4]
 8003fa0:	681b      	ldr	r3, [r3, #0]
 8003fa2:	687a      	ldr	r2, [r7, #4]
 8003fa4:	6812      	ldr	r2, [r2, #0]
 8003fa6:	6852      	ldr	r2, [r2, #4]
 8003fa8:	f422 4100 	bic.w	r1, r2, #32768	; 0x8000
 8003fac:	687a      	ldr	r2, [r7, #4]
 8003fae:	6b52      	ldr	r2, [r2, #52]	; 0x34
 8003fb0:	430a      	orrs	r2, r1
 8003fb2:	605a      	str	r2, [r3, #4]
 8003fb4:	687b      	ldr	r3, [r7, #4]
 8003fb6:	6a5b      	ldr	r3, [r3, #36]	; 0x24
 8003fb8:	f003 0310 	and.w	r3, r3, #16
 8003fbc:	2b00      	cmp	r3, #0
 8003fbe:	d00a      	beq.n	8003fd6 <UART_AdvFeatureConfig+0xb2>
 8003fc0:	687b      	ldr	r3, [r7, #4]
 8003fc2:	681b      	ldr	r3, [r3, #0]
 8003fc4:	687a      	ldr	r2, [r7, #4]
 8003fc6:	6812      	ldr	r2, [r2, #0]
 8003fc8:	6892      	ldr	r2, [r2, #8]
 8003fca:	f422 5180 	bic.w	r1, r2, #4096	; 0x1000
 8003fce:	687a      	ldr	r2, [r7, #4]
 8003fd0:	6b92      	ldr	r2, [r2, #56]	; 0x38
 8003fd2:	430a      	orrs	r2, r1
 8003fd4:	609a      	str	r2, [r3, #8]
 8003fd6:	687b      	ldr	r3, [r7, #4]
 8003fd8:	6a5b      	ldr	r3, [r3, #36]	; 0x24
 8003fda:	f003 0320 	and.w	r3, r3, #32
 8003fde:	2b00      	cmp	r3, #0
 8003fe0:	d00a      	beq.n	8003ff8 <UART_AdvFeatureConfig+0xd4>
 8003fe2:	687b      	ldr	r3, [r7, #4]
 8003fe4:	681b      	ldr	r3, [r3, #0]
 8003fe6:	687a      	ldr	r2, [r7, #4]
 8003fe8:	6812      	ldr	r2, [r2, #0]
 8003fea:	6892      	ldr	r2, [r2, #8]
 8003fec:	f422 5100 	bic.w	r1, r2, #8192	; 0x2000
 8003ff0:	687a      	ldr	r2, [r7, #4]
 8003ff2:	6bd2      	ldr	r2, [r2, #60]	; 0x3c
 8003ff4:	430a      	orrs	r2, r1
 8003ff6:	609a      	str	r2, [r3, #8]
 8003ff8:	687b      	ldr	r3, [r7, #4]
 8003ffa:	6a5b      	ldr	r3, [r3, #36]	; 0x24
 8003ffc:	f003 0340 	and.w	r3, r3, #64	; 0x40
 8004000:	2b00      	cmp	r3, #0
 8004002:	d01a      	beq.n	800403a <UART_AdvFeatureConfig+0x116>
 8004004:	687b      	ldr	r3, [r7, #4]
 8004006:	681b      	ldr	r3, [r3, #0]
 8004008:	687a      	ldr	r2, [r7, #4]
 800400a:	6812      	ldr	r2, [r2, #0]
 800400c:	6852      	ldr	r2, [r2, #4]
 800400e:	f422 1180 	bic.w	r1, r2, #1048576	; 0x100000
 8004012:	687a      	ldr	r2, [r7, #4]
 8004014:	6c12      	ldr	r2, [r2, #64]	; 0x40
 8004016:	430a      	orrs	r2, r1
 8004018:	605a      	str	r2, [r3, #4]
 800401a:	687b      	ldr	r3, [r7, #4]
 800401c:	6c1b      	ldr	r3, [r3, #64]	; 0x40
 800401e:	f5b3 1f80 	cmp.w	r3, #1048576	; 0x100000
 8004022:	d10a      	bne.n	800403a <UART_AdvFeatureConfig+0x116>
 8004024:	687b      	ldr	r3, [r7, #4]
 8004026:	681b      	ldr	r3, [r3, #0]
 8004028:	687a      	ldr	r2, [r7, #4]
 800402a:	6812      	ldr	r2, [r2, #0]
 800402c:	6852      	ldr	r2, [r2, #4]
 800402e:	f422 01c0 	bic.w	r1, r2, #6291456	; 0x600000
 8004032:	687a      	ldr	r2, [r7, #4]
 8004034:	6c52      	ldr	r2, [r2, #68]	; 0x44
 8004036:	430a      	orrs	r2, r1
 8004038:	605a      	str	r2, [r3, #4]
 800403a:	687b      	ldr	r3, [r7, #4]
 800403c:	6a5b      	ldr	r3, [r3, #36]	; 0x24
 800403e:	f003 0380 	and.w	r3, r3, #128	; 0x80
 8004042:	2b00      	cmp	r3, #0
 8004044:	d00a      	beq.n	800405c <UART_AdvFeatureConfig+0x138>
 8004046:	687b      	ldr	r3, [r7, #4]
 8004048:	681b      	ldr	r3, [r3, #0]
 800404a:	687a      	ldr	r2, [r7, #4]
 800404c:	6812      	ldr	r2, [r2, #0]
 800404e:	6852      	ldr	r2, [r2, #4]
 8004050:	f422 2100 	bic.w	r1, r2, #524288	; 0x80000
 8004054:	687a      	ldr	r2, [r7, #4]
 8004056:	6c92      	ldr	r2, [r2, #72]	; 0x48
 8004058:	430a      	orrs	r2, r1
 800405a:	605a      	str	r2, [r3, #4]
 800405c:	bf00      	nop
 800405e:	370c      	adds	r7, #12
 8004060:	46bd      	mov	sp, r7
 8004062:	f85d 7b04 	ldr.w	r7, [sp], #4
 8004066:	4770      	bx	lr

08004068 <UART_CheckIdleState>:
 8004068:	b580      	push	{r7, lr}
 800406a:	b086      	sub	sp, #24
 800406c:	af02      	add	r7, sp, #8
 800406e:	6078      	str	r0, [r7, #4]
 8004070:	2300      	movs	r3, #0
 8004072:	60fb      	str	r3, [r7, #12]
 8004074:	687b      	ldr	r3, [r7, #4]
 8004076:	2200      	movs	r2, #0
 8004078:	675a      	str	r2, [r3, #116]	; 0x74
 800407a:	f7fd f809 	bl	8001090 <HAL_GetTick>
 800407e:	60f8      	str	r0, [r7, #12]
 8004080:	687b      	ldr	r3, [r7, #4]
 8004082:	681b      	ldr	r3, [r3, #0]
 8004084:	681b      	ldr	r3, [r3, #0]
 8004086:	f003 0308 	and.w	r3, r3, #8
 800408a:	2b08      	cmp	r3, #8
 800408c:	d10e      	bne.n	80040ac <UART_CheckIdleState+0x44>
 800408e:	f06f 437e 	mvn.w	r3, #4261412864	; 0xfe000000
 8004092:	9300      	str	r3, [sp, #0]
 8004094:	68fb      	ldr	r3, [r7, #12]
 8004096:	2200      	movs	r2, #0
 8004098:	f44f 1100 	mov.w	r1, #2097152	; 0x200000
 800409c:	6878      	ldr	r0, [r7, #4]
 800409e:	f000 f82c 	bl	80040fa <UART_WaitOnFlagUntilTimeout>
 80040a2:	4603      	mov	r3, r0
 80040a4:	2b00      	cmp	r3, #0
 80040a6:	d001      	beq.n	80040ac <UART_CheckIdleState+0x44>
 80040a8:	2303      	movs	r3, #3
 80040aa:	e022      	b.n	80040f2 <UART_CheckIdleState+0x8a>
 80040ac:	687b      	ldr	r3, [r7, #4]
 80040ae:	681b      	ldr	r3, [r3, #0]
 80040b0:	681b      	ldr	r3, [r3, #0]
 80040b2:	f003 0304 	and.w	r3, r3, #4
 80040b6:	2b04      	cmp	r3, #4
 80040b8:	d10e      	bne.n	80040d8 <UART_CheckIdleState+0x70>
 80040ba:	f06f 437e 	mvn.w	r3, #4261412864	; 0xfe000000
 80040be:	9300      	str	r3, [sp, #0]
 80040c0:	68fb      	ldr	r3, [r7, #12]
 80040c2:	2200      	movs	r2, #0
 80040c4:	f44f 0180 	mov.w	r1, #4194304	; 0x400000
 80040c8:	6878      	ldr	r0, [r7, #4]
 80040ca:	f000 f816 	bl	80040fa <UART_WaitOnFlagUntilTimeout>
 80040ce:	4603      	mov	r3, r0
 80040d0:	2b00      	cmp	r3, #0
 80040d2:	d001      	beq.n	80040d8 <UART_CheckIdleState+0x70>
 80040d4:	2303      	movs	r3, #3
 80040d6:	e00c      	b.n	80040f2 <UART_CheckIdleState+0x8a>
 80040d8:	687b      	ldr	r3, [r7, #4]
 80040da:	2220      	movs	r2, #32
 80040dc:	f883 2071 	strb.w	r2, [r3, #113]	; 0x71
 80040e0:	687b      	ldr	r3, [r7, #4]
 80040e2:	2220      	movs	r2, #32
 80040e4:	f883 2072 	strb.w	r2, [r3, #114]	; 0x72
 80040e8:	687b      	ldr	r3, [r7, #4]
 80040ea:	2200      	movs	r2, #0
 80040ec:	f883 2070 	strb.w	r2, [r3, #112]	; 0x70
 80040f0:	2300      	movs	r3, #0
 80040f2:	4618      	mov	r0, r3
 80040f4:	3710      	adds	r7, #16
 80040f6:	46bd      	mov	sp, r7
 80040f8:	bd80      	pop	{r7, pc}

080040fa <UART_WaitOnFlagUntilTimeout>:
 80040fa:	b580      	push	{r7, lr}
 80040fc:	b084      	sub	sp, #16
 80040fe:	af00      	add	r7, sp, #0
 8004100:	60f8      	str	r0, [r7, #12]
 8004102:	60b9      	str	r1, [r7, #8]
 8004104:	603b      	str	r3, [r7, #0]
 8004106:	4613      	mov	r3, r2
 8004108:	71fb      	strb	r3, [r7, #7]
 800410a:	e02c      	b.n	8004166 <UART_WaitOnFlagUntilTimeout+0x6c>
 800410c:	69bb      	ldr	r3, [r7, #24]
 800410e:	f1b3 3fff 	cmp.w	r3, #4294967295
 8004112:	d028      	beq.n	8004166 <UART_WaitOnFlagUntilTimeout+0x6c>
 8004114:	69bb      	ldr	r3, [r7, #24]
 8004116:	2b00      	cmp	r3, #0
 8004118:	d007      	beq.n	800412a <UART_WaitOnFlagUntilTimeout+0x30>
 800411a:	f7fc ffb9 	bl	8001090 <HAL_GetTick>
 800411e:	4602      	mov	r2, r0
 8004120:	683b      	ldr	r3, [r7, #0]
 8004122:	1ad2      	subs	r2, r2, r3
 8004124:	69bb      	ldr	r3, [r7, #24]
 8004126:	429a      	cmp	r2, r3
 8004128:	d91d      	bls.n	8004166 <UART_WaitOnFlagUntilTimeout+0x6c>
 800412a:	68fb      	ldr	r3, [r7, #12]
 800412c:	681b      	ldr	r3, [r3, #0]
 800412e:	68fa      	ldr	r2, [r7, #12]
 8004130:	6812      	ldr	r2, [r2, #0]
 8004132:	6812      	ldr	r2, [r2, #0]
 8004134:	f422 72d0 	bic.w	r2, r2, #416	; 0x1a0
 8004138:	601a      	str	r2, [r3, #0]
 800413a:	68fb      	ldr	r3, [r7, #12]
 800413c:	681b      	ldr	r3, [r3, #0]
 800413e:	68fa      	ldr	r2, [r7, #12]
 8004140:	6812      	ldr	r2, [r2, #0]
 8004142:	6892      	ldr	r2, [r2, #8]
 8004144:	f022 0201 	bic.w	r2, r2, #1
 8004148:	609a      	str	r2, [r3, #8]
 800414a:	68fb      	ldr	r3, [r7, #12]
 800414c:	2220      	movs	r2, #32
 800414e:	f883 2071 	strb.w	r2, [r3, #113]	; 0x71
 8004152:	68fb      	ldr	r3, [r7, #12]
 8004154:	2220      	movs	r2, #32
 8004156:	f883 2072 	strb.w	r2, [r3, #114]	; 0x72
 800415a:	68fb      	ldr	r3, [r7, #12]
 800415c:	2200      	movs	r2, #0
 800415e:	f883 2070 	strb.w	r2, [r3, #112]	; 0x70
 8004162:	2303      	movs	r3, #3
 8004164:	e00f      	b.n	8004186 <UART_WaitOnFlagUntilTimeout+0x8c>
 8004166:	68fb      	ldr	r3, [r7, #12]
 8004168:	681b      	ldr	r3, [r3, #0]
 800416a:	69da      	ldr	r2, [r3, #28]
 800416c:	68bb      	ldr	r3, [r7, #8]
 800416e:	401a      	ands	r2, r3
 8004170:	68bb      	ldr	r3, [r7, #8]
 8004172:	429a      	cmp	r2, r3
 8004174:	bf0c      	ite	eq
 8004176:	2301      	moveq	r3, #1
 8004178:	2300      	movne	r3, #0
 800417a:	b2db      	uxtb	r3, r3
 800417c:	461a      	mov	r2, r3
 800417e:	79fb      	ldrb	r3, [r7, #7]
 8004180:	429a      	cmp	r2, r3
 8004182:	d0c3      	beq.n	800410c <UART_WaitOnFlagUntilTimeout+0x12>
 8004184:	2300      	movs	r3, #0
 8004186:	4618      	mov	r0, r3
 8004188:	3710      	adds	r7, #16
 800418a:	46bd      	mov	sp, r7
 800418c:	bd80      	pop	{r7, pc}
	...

08004190 <MX_DFSDM1_Init>:
 8004190:	b580      	push	{r7, lr}
 8004192:	af00      	add	r7, sp, #0
 8004194:	4b2f      	ldr	r3, [pc, #188]	; (8004254 <MX_DFSDM1_Init+0xc4>)
 8004196:	4a30      	ldr	r2, [pc, #192]	; (8004258 <MX_DFSDM1_Init+0xc8>)
 8004198:	601a      	str	r2, [r3, #0]
 800419a:	4b2e      	ldr	r3, [pc, #184]	; (8004254 <MX_DFSDM1_Init+0xc4>)
 800419c:	2200      	movs	r2, #0
 800419e:	605a      	str	r2, [r3, #4]
 80041a0:	4b2c      	ldr	r3, [pc, #176]	; (8004254 <MX_DFSDM1_Init+0xc4>)
 80041a2:	2201      	movs	r2, #1
 80041a4:	721a      	strb	r2, [r3, #8]
 80041a6:	4b2b      	ldr	r3, [pc, #172]	; (8004254 <MX_DFSDM1_Init+0xc4>)
 80041a8:	2201      	movs	r2, #1
 80041aa:	725a      	strb	r2, [r3, #9]
 80041ac:	4b29      	ldr	r3, [pc, #164]	; (8004254 <MX_DFSDM1_Init+0xc4>)
 80041ae:	f04f 42c0 	mov.w	r2, #1610612736	; 0x60000000
 80041b2:	61da      	str	r2, [r3, #28]
 80041b4:	4b27      	ldr	r3, [pc, #156]	; (8004254 <MX_DFSDM1_Init+0xc4>)
 80041b6:	2220      	movs	r2, #32
 80041b8:	621a      	str	r2, [r3, #32]
 80041ba:	4b26      	ldr	r3, [pc, #152]	; (8004254 <MX_DFSDM1_Init+0xc4>)
 80041bc:	2201      	movs	r2, #1
 80041be:	625a      	str	r2, [r3, #36]	; 0x24
 80041c0:	4824      	ldr	r0, [pc, #144]	; (8004254 <MX_DFSDM1_Init+0xc4>)
 80041c2:	f7fd f985 	bl	80014d0 <HAL_DFSDM_FilterInit>
 80041c6:	4603      	mov	r3, r0
 80041c8:	2b00      	cmp	r3, #0
 80041ca:	d003      	beq.n	80041d4 <MX_DFSDM1_Init+0x44>
 80041cc:	2143      	movs	r1, #67	; 0x43
 80041ce:	4823      	ldr	r0, [pc, #140]	; (800425c <MX_DFSDM1_Init+0xcc>)
 80041d0:	f000 fc0a 	bl	80049e8 <_Error_Handler>
 80041d4:	4b22      	ldr	r3, [pc, #136]	; (8004260 <MX_DFSDM1_Init+0xd0>)
 80041d6:	4a23      	ldr	r2, [pc, #140]	; (8004264 <MX_DFSDM1_Init+0xd4>)
 80041d8:	601a      	str	r2, [r3, #0]
 80041da:	4b21      	ldr	r3, [pc, #132]	; (8004260 <MX_DFSDM1_Init+0xd0>)
 80041dc:	2201      	movs	r2, #1
 80041de:	711a      	strb	r2, [r3, #4]
 80041e0:	4b1f      	ldr	r3, [pc, #124]	; (8004260 <MX_DFSDM1_Init+0xd0>)
 80041e2:	2200      	movs	r2, #0
 80041e4:	609a      	str	r2, [r3, #8]
 80041e6:	4b1e      	ldr	r3, [pc, #120]	; (8004260 <MX_DFSDM1_Init+0xd0>)
 80041e8:	2211      	movs	r2, #17
 80041ea:	60da      	str	r2, [r3, #12]
 80041ec:	4b1c      	ldr	r3, [pc, #112]	; (8004260 <MX_DFSDM1_Init+0xd0>)
 80041ee:	2200      	movs	r2, #0
 80041f0:	611a      	str	r2, [r3, #16]
 80041f2:	4b1b      	ldr	r3, [pc, #108]	; (8004260 <MX_DFSDM1_Init+0xd0>)
 80041f4:	2200      	movs	r2, #0
 80041f6:	615a      	str	r2, [r3, #20]
 80041f8:	4b19      	ldr	r3, [pc, #100]	; (8004260 <MX_DFSDM1_Init+0xd0>)
 80041fa:	2200      	movs	r2, #0
 80041fc:	619a      	str	r2, [r3, #24]
 80041fe:	4b18      	ldr	r3, [pc, #96]	; (8004260 <MX_DFSDM1_Init+0xd0>)
 8004200:	2200      	movs	r2, #0
 8004202:	61da      	str	r2, [r3, #28]
 8004204:	4b16      	ldr	r3, [pc, #88]	; (8004260 <MX_DFSDM1_Init+0xd0>)
 8004206:	2204      	movs	r2, #4
 8004208:	621a      	str	r2, [r3, #32]
 800420a:	4b15      	ldr	r3, [pc, #84]	; (8004260 <MX_DFSDM1_Init+0xd0>)
 800420c:	2200      	movs	r2, #0
 800420e:	625a      	str	r2, [r3, #36]	; 0x24
 8004210:	4b13      	ldr	r3, [pc, #76]	; (8004260 <MX_DFSDM1_Init+0xd0>)
 8004212:	220a      	movs	r2, #10
 8004214:	629a      	str	r2, [r3, #40]	; 0x28
 8004216:	4b12      	ldr	r3, [pc, #72]	; (8004260 <MX_DFSDM1_Init+0xd0>)
 8004218:	2200      	movs	r2, #0
 800421a:	62da      	str	r2, [r3, #44]	; 0x2c
 800421c:	4b10      	ldr	r3, [pc, #64]	; (8004260 <MX_DFSDM1_Init+0xd0>)
 800421e:	2202      	movs	r2, #2
 8004220:	631a      	str	r2, [r3, #48]	; 0x30
 8004222:	480f      	ldr	r0, [pc, #60]	; (8004260 <MX_DFSDM1_Init+0xd0>)
 8004224:	f7fd f894 	bl	8001350 <HAL_DFSDM_ChannelInit>
 8004228:	4603      	mov	r3, r0
 800422a:	2b00      	cmp	r3, #0
 800422c:	d003      	beq.n	8004236 <MX_DFSDM1_Init+0xa6>
 800422e:	2155      	movs	r1, #85	; 0x55
 8004230:	480a      	ldr	r0, [pc, #40]	; (800425c <MX_DFSDM1_Init+0xcc>)
 8004232:	f000 fbd9 	bl	80049e8 <_Error_Handler>
 8004236:	2201      	movs	r2, #1
 8004238:	490b      	ldr	r1, [pc, #44]	; (8004268 <MX_DFSDM1_Init+0xd8>)
 800423a:	4806      	ldr	r0, [pc, #24]	; (8004254 <MX_DFSDM1_Init+0xc4>)
 800423c:	f7fd fa22 	bl	8001684 <HAL_DFSDM_FilterConfigRegChannel>
 8004240:	4603      	mov	r3, r0
 8004242:	2b00      	cmp	r3, #0
 8004244:	d003      	beq.n	800424e <MX_DFSDM1_Init+0xbe>
 8004246:	215a      	movs	r1, #90	; 0x5a
 8004248:	4804      	ldr	r0, [pc, #16]	; (800425c <MX_DFSDM1_Init+0xcc>)
 800424a:	f000 fbcd 	bl	80049e8 <_Error_Handler>
 800424e:	bf00      	nop
 8004250:	bd80      	pop	{r7, pc}
 8004252:	bf00      	nop
 8004254:	2000f238 	.word	0x2000f238
 8004258:	40016100 	.word	0x40016100
 800425c:	08008d20 	.word	0x08008d20
 8004260:	2000f2d4 	.word	0x2000f2d4
 8004264:	40016040 	.word	0x40016040
 8004268:	00020004 	.word	0x00020004

0800426c <HAL_DFSDM_FilterMspInit>:
 800426c:	b580      	push	{r7, lr}
 800426e:	b088      	sub	sp, #32
 8004270:	af00      	add	r7, sp, #0
 8004272:	6078      	str	r0, [r7, #4]
 8004274:	4b3d      	ldr	r3, [pc, #244]	; (800436c <HAL_DFSDM_FilterMspInit+0x100>)
 8004276:	681b      	ldr	r3, [r3, #0]
 8004278:	2b00      	cmp	r3, #0
 800427a:	d13a      	bne.n	80042f2 <HAL_DFSDM_FilterMspInit+0x86>
 800427c:	4b3c      	ldr	r3, [pc, #240]	; (8004370 <HAL_DFSDM_FilterMspInit+0x104>)
 800427e:	681b      	ldr	r3, [r3, #0]
 8004280:	3301      	adds	r3, #1
 8004282:	4a3b      	ldr	r2, [pc, #236]	; (8004370 <HAL_DFSDM_FilterMspInit+0x104>)
 8004284:	6013      	str	r3, [r2, #0]
 8004286:	4b3a      	ldr	r3, [pc, #232]	; (8004370 <HAL_DFSDM_FilterMspInit+0x104>)
 8004288:	681b      	ldr	r3, [r3, #0]
 800428a:	2b01      	cmp	r3, #1
 800428c:	d10b      	bne.n	80042a6 <HAL_DFSDM_FilterMspInit+0x3a>
 800428e:	4a39      	ldr	r2, [pc, #228]	; (8004374 <HAL_DFSDM_FilterMspInit+0x108>)
 8004290:	4b38      	ldr	r3, [pc, #224]	; (8004374 <HAL_DFSDM_FilterMspInit+0x108>)
 8004292:	6e1b      	ldr	r3, [r3, #96]	; 0x60
 8004294:	f043 7380 	orr.w	r3, r3, #16777216	; 0x1000000
 8004298:	6613      	str	r3, [r2, #96]	; 0x60
 800429a:	4b36      	ldr	r3, [pc, #216]	; (8004374 <HAL_DFSDM_FilterMspInit+0x108>)
 800429c:	6e1b      	ldr	r3, [r3, #96]	; 0x60
 800429e:	f003 7380 	and.w	r3, r3, #16777216	; 0x1000000
 80042a2:	60bb      	str	r3, [r7, #8]
 80042a4:	68bb      	ldr	r3, [r7, #8]
 80042a6:	2304      	movs	r3, #4
 80042a8:	60fb      	str	r3, [r7, #12]
 80042aa:	2302      	movs	r3, #2
 80042ac:	613b      	str	r3, [r7, #16]
 80042ae:	2300      	movs	r3, #0
 80042b0:	617b      	str	r3, [r7, #20]
 80042b2:	2300      	movs	r3, #0
 80042b4:	61bb      	str	r3, [r7, #24]
 80042b6:	2306      	movs	r3, #6
 80042b8:	61fb      	str	r3, [r7, #28]
 80042ba:	f107 030c 	add.w	r3, r7, #12
 80042be:	4619      	mov	r1, r3
 80042c0:	482d      	ldr	r0, [pc, #180]	; (8004378 <HAL_DFSDM_FilterMspInit+0x10c>)
 80042c2:	f7fd fd79 	bl	8001db8 <HAL_GPIO_Init>
 80042c6:	f44f 4380 	mov.w	r3, #16384	; 0x4000
 80042ca:	60fb      	str	r3, [r7, #12]
 80042cc:	2302      	movs	r3, #2
 80042ce:	613b      	str	r3, [r7, #16]
 80042d0:	2300      	movs	r3, #0
 80042d2:	617b      	str	r3, [r7, #20]
 80042d4:	2300      	movs	r3, #0
 80042d6:	61bb      	str	r3, [r7, #24]
 80042d8:	2306      	movs	r3, #6
 80042da:	61fb      	str	r3, [r7, #28]
 80042dc:	f107 030c 	add.w	r3, r7, #12
 80042e0:	4619      	mov	r1, r3
 80042e2:	4826      	ldr	r0, [pc, #152]	; (800437c <HAL_DFSDM_FilterMspInit+0x110>)
 80042e4:	f7fd fd68 	bl	8001db8 <HAL_GPIO_Init>
 80042e8:	4b20      	ldr	r3, [pc, #128]	; (800436c <HAL_DFSDM_FilterMspInit+0x100>)
 80042ea:	681b      	ldr	r3, [r3, #0]
 80042ec:	3301      	adds	r3, #1
 80042ee:	4a1f      	ldr	r2, [pc, #124]	; (800436c <HAL_DFSDM_FilterMspInit+0x100>)
 80042f0:	6013      	str	r3, [r2, #0]
 80042f2:	687b      	ldr	r3, [r7, #4]
 80042f4:	681b      	ldr	r3, [r3, #0]
 80042f6:	4a22      	ldr	r2, [pc, #136]	; (8004380 <HAL_DFSDM_FilterMspInit+0x114>)
 80042f8:	4293      	cmp	r3, r2
 80042fa:	d133      	bne.n	8004364 <HAL_DFSDM_FilterMspInit+0xf8>
 80042fc:	4b21      	ldr	r3, [pc, #132]	; (8004384 <HAL_DFSDM_FilterMspInit+0x118>)
 80042fe:	4a22      	ldr	r2, [pc, #136]	; (8004388 <HAL_DFSDM_FilterMspInit+0x11c>)
 8004300:	601a      	str	r2, [r3, #0]
 8004302:	4b20      	ldr	r3, [pc, #128]	; (8004384 <HAL_DFSDM_FilterMspInit+0x118>)
 8004304:	2200      	movs	r2, #0
 8004306:	605a      	str	r2, [r3, #4]
 8004308:	4b1e      	ldr	r3, [pc, #120]	; (8004384 <HAL_DFSDM_FilterMspInit+0x118>)
 800430a:	2200      	movs	r2, #0
 800430c:	609a      	str	r2, [r3, #8]
 800430e:	4b1d      	ldr	r3, [pc, #116]	; (8004384 <HAL_DFSDM_FilterMspInit+0x118>)
 8004310:	2200      	movs	r2, #0
 8004312:	60da      	str	r2, [r3, #12]
 8004314:	4b1b      	ldr	r3, [pc, #108]	; (8004384 <HAL_DFSDM_FilterMspInit+0x118>)
 8004316:	2280      	movs	r2, #128	; 0x80
 8004318:	611a      	str	r2, [r3, #16]
 800431a:	4b1a      	ldr	r3, [pc, #104]	; (8004384 <HAL_DFSDM_FilterMspInit+0x118>)
 800431c:	f44f 7200 	mov.w	r2, #512	; 0x200
 8004320:	615a      	str	r2, [r3, #20]
 8004322:	4b18      	ldr	r3, [pc, #96]	; (8004384 <HAL_DFSDM_FilterMspInit+0x118>)
 8004324:	f44f 6200 	mov.w	r2, #2048	; 0x800
 8004328:	619a      	str	r2, [r3, #24]
 800432a:	4b16      	ldr	r3, [pc, #88]	; (8004384 <HAL_DFSDM_FilterMspInit+0x118>)
 800432c:	2220      	movs	r2, #32
 800432e:	61da      	str	r2, [r3, #28]
 8004330:	4b14      	ldr	r3, [pc, #80]	; (8004384 <HAL_DFSDM_FilterMspInit+0x118>)
 8004332:	f44f 5280 	mov.w	r2, #4096	; 0x1000
 8004336:	621a      	str	r2, [r3, #32]
 8004338:	4812      	ldr	r0, [pc, #72]	; (8004384 <HAL_DFSDM_FilterMspInit+0x118>)
 800433a:	f7fd fb4d 	bl	80019d8 <HAL_DMA_Init>
 800433e:	4603      	mov	r3, r0
 8004340:	2b00      	cmp	r3, #0
 8004342:	d003      	beq.n	800434c <HAL_DFSDM_FilterMspInit+0xe0>
 8004344:	2198      	movs	r1, #152	; 0x98
 8004346:	4811      	ldr	r0, [pc, #68]	; (800438c <HAL_DFSDM_FilterMspInit+0x120>)
 8004348:	f000 fb4e 	bl	80049e8 <_Error_Handler>
 800434c:	687b      	ldr	r3, [r7, #4]
 800434e:	4a0d      	ldr	r2, [pc, #52]	; (8004384 <HAL_DFSDM_FilterMspInit+0x118>)
 8004350:	62da      	str	r2, [r3, #44]	; 0x2c
 8004352:	4a0c      	ldr	r2, [pc, #48]	; (8004384 <HAL_DFSDM_FilterMspInit+0x118>)
 8004354:	687b      	ldr	r3, [r7, #4]
 8004356:	6293      	str	r3, [r2, #40]	; 0x28
 8004358:	687b      	ldr	r3, [r7, #4]
 800435a:	4a0a      	ldr	r2, [pc, #40]	; (8004384 <HAL_DFSDM_FilterMspInit+0x118>)
 800435c:	629a      	str	r2, [r3, #40]	; 0x28
 800435e:	4a09      	ldr	r2, [pc, #36]	; (8004384 <HAL_DFSDM_FilterMspInit+0x118>)
 8004360:	687b      	ldr	r3, [r7, #4]
 8004362:	6293      	str	r3, [r2, #40]	; 0x28
 8004364:	bf00      	nop
 8004366:	3720      	adds	r7, #32
 8004368:	46bd      	mov	sp, r7
 800436a:	bd80      	pop	{r7, pc}
 800436c:	20000224 	.word	0x20000224
 8004370:	20000220 	.word	0x20000220
 8004374:	40021000 	.word	0x40021000
 8004378:	48000800 	.word	0x48000800
 800437c:	48000400 	.word	0x48000400
 8004380:	40016100 	.word	0x40016100
 8004384:	2000f28c 	.word	0x2000f28c
 8004388:	40020044 	.word	0x40020044
 800438c:	08008d20 	.word	0x08008d20

08004390 <HAL_DFSDM_ChannelMspInit>:
 8004390:	b580      	push	{r7, lr}
 8004392:	b088      	sub	sp, #32
 8004394:	af00      	add	r7, sp, #0
 8004396:	6078      	str	r0, [r7, #4]
 8004398:	4b21      	ldr	r3, [pc, #132]	; (8004420 <HAL_DFSDM_ChannelMspInit+0x90>)
 800439a:	681b      	ldr	r3, [r3, #0]
 800439c:	2b00      	cmp	r3, #0
 800439e:	d13a      	bne.n	8004416 <HAL_DFSDM_ChannelMspInit+0x86>
 80043a0:	4b20      	ldr	r3, [pc, #128]	; (8004424 <HAL_DFSDM_ChannelMspInit+0x94>)
 80043a2:	681b      	ldr	r3, [r3, #0]
 80043a4:	3301      	adds	r3, #1
 80043a6:	4a1f      	ldr	r2, [pc, #124]	; (8004424 <HAL_DFSDM_ChannelMspInit+0x94>)
 80043a8:	6013      	str	r3, [r2, #0]
 80043aa:	4b1e      	ldr	r3, [pc, #120]	; (8004424 <HAL_DFSDM_ChannelMspInit+0x94>)
 80043ac:	681b      	ldr	r3, [r3, #0]
 80043ae:	2b01      	cmp	r3, #1
 80043b0:	d10b      	bne.n	80043ca <HAL_DFSDM_ChannelMspInit+0x3a>
 80043b2:	4a1d      	ldr	r2, [pc, #116]	; (8004428 <HAL_DFSDM_ChannelMspInit+0x98>)
 80043b4:	4b1c      	ldr	r3, [pc, #112]	; (8004428 <HAL_DFSDM_ChannelMspInit+0x98>)
 80043b6:	6e1b      	ldr	r3, [r3, #96]	; 0x60
 80043b8:	f043 7380 	orr.w	r3, r3, #16777216	; 0x1000000
 80043bc:	6613      	str	r3, [r2, #96]	; 0x60
 80043be:	4b1a      	ldr	r3, [pc, #104]	; (8004428 <HAL_DFSDM_ChannelMspInit+0x98>)
 80043c0:	6e1b      	ldr	r3, [r3, #96]	; 0x60
 80043c2:	f003 7380 	and.w	r3, r3, #16777216	; 0x1000000
 80043c6:	60bb      	str	r3, [r7, #8]
 80043c8:	68bb      	ldr	r3, [r7, #8]
 80043ca:	2304      	movs	r3, #4
 80043cc:	60fb      	str	r3, [r7, #12]
 80043ce:	2302      	movs	r3, #2
 80043d0:	613b      	str	r3, [r7, #16]
 80043d2:	2300      	movs	r3, #0
 80043d4:	617b      	str	r3, [r7, #20]
 80043d6:	2300      	movs	r3, #0
 80043d8:	61bb      	str	r3, [r7, #24]
 80043da:	2306      	movs	r3, #6
 80043dc:	61fb      	str	r3, [r7, #28]
 80043de:	f107 030c 	add.w	r3, r7, #12
 80043e2:	4619      	mov	r1, r3
 80043e4:	4811      	ldr	r0, [pc, #68]	; (800442c <HAL_DFSDM_ChannelMspInit+0x9c>)
 80043e6:	f7fd fce7 	bl	8001db8 <HAL_GPIO_Init>
 80043ea:	f44f 4380 	mov.w	r3, #16384	; 0x4000
 80043ee:	60fb      	str	r3, [r7, #12]
 80043f0:	2302      	movs	r3, #2
 80043f2:	613b      	str	r3, [r7, #16]
 80043f4:	2300      	movs	r3, #0
 80043f6:	617b      	str	r3, [r7, #20]
 80043f8:	2300      	movs	r3, #0
 80043fa:	61bb      	str	r3, [r7, #24]
 80043fc:	2306      	movs	r3, #6
 80043fe:	61fb      	str	r3, [r7, #28]
 8004400:	f107 030c 	add.w	r3, r7, #12
 8004404:	4619      	mov	r1, r3
 8004406:	480a      	ldr	r0, [pc, #40]	; (8004430 <HAL_DFSDM_ChannelMspInit+0xa0>)
 8004408:	f7fd fcd6 	bl	8001db8 <HAL_GPIO_Init>
 800440c:	4b04      	ldr	r3, [pc, #16]	; (8004420 <HAL_DFSDM_ChannelMspInit+0x90>)
 800440e:	681b      	ldr	r3, [r3, #0]
 8004410:	3301      	adds	r3, #1
 8004412:	4a03      	ldr	r2, [pc, #12]	; (8004420 <HAL_DFSDM_ChannelMspInit+0x90>)
 8004414:	6013      	str	r3, [r2, #0]
 8004416:	bf00      	nop
 8004418:	3720      	adds	r7, #32
 800441a:	46bd      	mov	sp, r7
 800441c:	bd80      	pop	{r7, pc}
 800441e:	bf00      	nop
 8004420:	20000224 	.word	0x20000224
 8004424:	20000220 	.word	0x20000220
 8004428:	40021000 	.word	0x40021000
 800442c:	48000800 	.word	0x48000800
 8004430:	48000400 	.word	0x48000400

08004434 <MX_DMA_Init>:
 8004434:	b580      	push	{r7, lr}
 8004436:	b082      	sub	sp, #8
 8004438:	af00      	add	r7, sp, #0
 800443a:	4a0c      	ldr	r2, [pc, #48]	; (800446c <MX_DMA_Init+0x38>)
 800443c:	4b0b      	ldr	r3, [pc, #44]	; (800446c <MX_DMA_Init+0x38>)
 800443e:	6c9b      	ldr	r3, [r3, #72]	; 0x48
 8004440:	f043 0301 	orr.w	r3, r3, #1
 8004444:	6493      	str	r3, [r2, #72]	; 0x48
 8004446:	4b09      	ldr	r3, [pc, #36]	; (800446c <MX_DMA_Init+0x38>)
 8004448:	6c9b      	ldr	r3, [r3, #72]	; 0x48
 800444a:	f003 0301 	and.w	r3, r3, #1
 800444e:	607b      	str	r3, [r7, #4]
 8004450:	687b      	ldr	r3, [r7, #4]
 8004452:	2200      	movs	r2, #0
 8004454:	2100      	movs	r1, #0
 8004456:	200e      	movs	r0, #14
 8004458:	f7fc ff19 	bl	800128e <HAL_NVIC_SetPriority>
 800445c:	200e      	movs	r0, #14
 800445e:	f7fc ff32 	bl	80012c6 <HAL_NVIC_EnableIRQ>
 8004462:	bf00      	nop
 8004464:	3708      	adds	r7, #8
 8004466:	46bd      	mov	sp, r7
 8004468:	bd80      	pop	{r7, pc}
 800446a:	bf00      	nop
 800446c:	40021000 	.word	0x40021000

08004470 <MX_GPIO_Init>:
 8004470:	b580      	push	{r7, lr}
 8004472:	b08a      	sub	sp, #40	; 0x28
 8004474:	af00      	add	r7, sp, #0
 8004476:	4a2b      	ldr	r2, [pc, #172]	; (8004524 <MX_GPIO_Init+0xb4>)
 8004478:	4b2a      	ldr	r3, [pc, #168]	; (8004524 <MX_GPIO_Init+0xb4>)
 800447a:	6cdb      	ldr	r3, [r3, #76]	; 0x4c
 800447c:	f043 0304 	orr.w	r3, r3, #4
 8004480:	64d3      	str	r3, [r2, #76]	; 0x4c
 8004482:	4b28      	ldr	r3, [pc, #160]	; (8004524 <MX_GPIO_Init+0xb4>)
 8004484:	6cdb      	ldr	r3, [r3, #76]	; 0x4c
 8004486:	f003 0304 	and.w	r3, r3, #4
 800448a:	613b      	str	r3, [r7, #16]
 800448c:	693b      	ldr	r3, [r7, #16]
 800448e:	4a25      	ldr	r2, [pc, #148]	; (8004524 <MX_GPIO_Init+0xb4>)
 8004490:	4b24      	ldr	r3, [pc, #144]	; (8004524 <MX_GPIO_Init+0xb4>)
 8004492:	6cdb      	ldr	r3, [r3, #76]	; 0x4c
 8004494:	f043 0380 	orr.w	r3, r3, #128	; 0x80
 8004498:	64d3      	str	r3, [r2, #76]	; 0x4c
 800449a:	4b22      	ldr	r3, [pc, #136]	; (8004524 <MX_GPIO_Init+0xb4>)
 800449c:	6cdb      	ldr	r3, [r3, #76]	; 0x4c
 800449e:	f003 0380 	and.w	r3, r3, #128	; 0x80
 80044a2:	60fb      	str	r3, [r7, #12]
 80044a4:	68fb      	ldr	r3, [r7, #12]
 80044a6:	4a1f      	ldr	r2, [pc, #124]	; (8004524 <MX_GPIO_Init+0xb4>)
 80044a8:	4b1e      	ldr	r3, [pc, #120]	; (8004524 <MX_GPIO_Init+0xb4>)
 80044aa:	6cdb      	ldr	r3, [r3, #76]	; 0x4c
 80044ac:	f043 0301 	orr.w	r3, r3, #1
 80044b0:	64d3      	str	r3, [r2, #76]	; 0x4c
 80044b2:	4b1c      	ldr	r3, [pc, #112]	; (8004524 <MX_GPIO_Init+0xb4>)
 80044b4:	6cdb      	ldr	r3, [r3, #76]	; 0x4c
 80044b6:	f003 0301 	and.w	r3, r3, #1
 80044ba:	60bb      	str	r3, [r7, #8]
 80044bc:	68bb      	ldr	r3, [r7, #8]
 80044be:	4a19      	ldr	r2, [pc, #100]	; (8004524 <MX_GPIO_Init+0xb4>)
 80044c0:	4b18      	ldr	r3, [pc, #96]	; (8004524 <MX_GPIO_Init+0xb4>)
 80044c2:	6cdb      	ldr	r3, [r3, #76]	; 0x4c
 80044c4:	f043 0302 	orr.w	r3, r3, #2
 80044c8:	64d3      	str	r3, [r2, #76]	; 0x4c
 80044ca:	4b16      	ldr	r3, [pc, #88]	; (8004524 <MX_GPIO_Init+0xb4>)
 80044cc:	6cdb      	ldr	r3, [r3, #76]	; 0x4c
 80044ce:	f003 0302 	and.w	r3, r3, #2
 80044d2:	607b      	str	r3, [r7, #4]
 80044d4:	687b      	ldr	r3, [r7, #4]
 80044d6:	2200      	movs	r2, #0
 80044d8:	2120      	movs	r1, #32
 80044da:	f04f 4090 	mov.w	r0, #1207959552	; 0x48000000
 80044de:	f7fd fe17 	bl	8002110 <HAL_GPIO_WritePin>
 80044e2:	f44f 5300 	mov.w	r3, #8192	; 0x2000
 80044e6:	617b      	str	r3, [r7, #20]
 80044e8:	4b0f      	ldr	r3, [pc, #60]	; (8004528 <MX_GPIO_Init+0xb8>)
 80044ea:	61bb      	str	r3, [r7, #24]
 80044ec:	2300      	movs	r3, #0
 80044ee:	61fb      	str	r3, [r7, #28]
 80044f0:	f107 0314 	add.w	r3, r7, #20
 80044f4:	4619      	mov	r1, r3
 80044f6:	480d      	ldr	r0, [pc, #52]	; (800452c <MX_GPIO_Init+0xbc>)
 80044f8:	f7fd fc5e 	bl	8001db8 <HAL_GPIO_Init>
 80044fc:	2320      	movs	r3, #32
 80044fe:	617b      	str	r3, [r7, #20]
 8004500:	2301      	movs	r3, #1
 8004502:	61bb      	str	r3, [r7, #24]
 8004504:	2300      	movs	r3, #0
 8004506:	61fb      	str	r3, [r7, #28]
 8004508:	2300      	movs	r3, #0
 800450a:	623b      	str	r3, [r7, #32]
 800450c:	f107 0314 	add.w	r3, r7, #20
 8004510:	4619      	mov	r1, r3
 8004512:	f04f 4090 	mov.w	r0, #1207959552	; 0x48000000
 8004516:	f7fd fc4f 	bl	8001db8 <HAL_GPIO_Init>
 800451a:	bf00      	nop
 800451c:	3728      	adds	r7, #40	; 0x28
 800451e:	46bd      	mov	sp, r7
 8004520:	bd80      	pop	{r7, pc}
 8004522:	bf00      	nop
 8004524:	40021000 	.word	0x40021000
 8004528:	10210000 	.word	0x10210000
 800452c:	48000800 	.word	0x48000800

08004530 <main>:
 8004530:	e92d 43f0 	stmdb	sp!, {r4, r5, r6, r7, r8, r9, lr}
 8004534:	ed2d 8b02 	vpush	{d8}
 8004538:	b091      	sub	sp, #68	; 0x44
 800453a:	af04      	add	r7, sp, #16
 800453c:	f7fc fd68 	bl	8001010 <HAL_Init>
 8004540:	f000 f986 	bl	8004850 <SystemClock_Config>
 8004544:	f7ff ff94 	bl	8004470 <MX_GPIO_Init>
 8004548:	f7ff ff74 	bl	8004434 <MX_DMA_Init>
 800454c:	f000 faf6 	bl	8004b3c <MX_USART2_UART_Init>
 8004550:	f7ff fe1e 	bl	8004190 <MX_DFSDM1_Init>
 8004554:	48a8      	ldr	r0, [pc, #672]	; (80047f8 <main+0x2c8>)
 8004556:	f002 fccb 	bl	8006ef0 <puts>
 800455a:	2064      	movs	r0, #100	; 0x64
 800455c:	f7fc fda4 	bl	80010a8 <HAL_Delay>
 8004560:	f44f 6200 	mov.w	r2, #2048	; 0x800
 8004564:	49a5      	ldr	r1, [pc, #660]	; (80047fc <main+0x2cc>)
 8004566:	48a6      	ldr	r0, [pc, #664]	; (8004800 <main+0x2d0>)
 8004568:	f7fd f8d2 	bl	8001710 <HAL_DFSDM_FilterRegularStart_DMA>
 800456c:	4603      	mov	r3, r0
 800456e:	2b00      	cmp	r3, #0
 8004570:	d003      	beq.n	800457a <main+0x4a>
 8004572:	2178      	movs	r1, #120	; 0x78
 8004574:	48a3      	ldr	r0, [pc, #652]	; (8004804 <main+0x2d4>)
 8004576:	f000 fa37 	bl	80049e8 <_Error_Handler>
 800457a:	4ba3      	ldr	r3, [pc, #652]	; (8004808 <main+0x2d8>)
 800457c:	681a      	ldr	r2, [r3, #0]
 800457e:	4ba3      	ldr	r3, [pc, #652]	; (800480c <main+0x2dc>)
 8004580:	68db      	ldr	r3, [r3, #12]
 8004582:	fbb2 f2f3 	udiv	r2, r2, r3
 8004586:	4b9e      	ldr	r3, [pc, #632]	; (8004800 <main+0x2d0>)
 8004588:	6a1b      	ldr	r3, [r3, #32]
 800458a:	fbb2 f2f3 	udiv	r2, r2, r3
 800458e:	4b9c      	ldr	r3, [pc, #624]	; (8004800 <main+0x2d0>)
 8004590:	6a5b      	ldr	r3, [r3, #36]	; 0x24
 8004592:	fbb2 f3f3 	udiv	r3, r2, r3
 8004596:	ee07 3a90 	vmov	s15, r3
 800459a:	eef8 7a67 	vcvt.f32.u32	s15, s15
 800459e:	4b9c      	ldr	r3, [pc, #624]	; (8004810 <main+0x2e0>)
 80045a0:	edc3 7a00 	vstr	s15, [r3]
 80045a4:	4b9b      	ldr	r3, [pc, #620]	; (8004814 <main+0x2e4>)
 80045a6:	617b      	str	r3, [r7, #20]
 80045a8:	2300      	movs	r3, #0
 80045aa:	62fb      	str	r3, [r7, #44]	; 0x2c
 80045ac:	e01f      	b.n	80045ee <main+0xbe>
 80045ae:	6afb      	ldr	r3, [r7, #44]	; 0x2c
 80045b0:	009b      	lsls	r3, r3, #2
 80045b2:	4a99      	ldr	r2, [pc, #612]	; (8004818 <main+0x2e8>)
 80045b4:	189c      	adds	r4, r3, r2
 80045b6:	6afb      	ldr	r3, [r7, #44]	; 0x2c
 80045b8:	ee07 3a90 	vmov	s15, r3
 80045bc:	eeb8 7a67 	vcvt.f32.u32	s14, s15
 80045c0:	edd7 7a05 	vldr	s15, [r7, #20]
 80045c4:	ee67 7a27 	vmul.f32	s15, s14, s15
 80045c8:	eeb0 0a67 	vmov.f32	s0, s15
 80045cc:	f001 f984 	bl	80058d8 <arm_cos_f32>
 80045d0:	eeb0 7a40 	vmov.f32	s14, s0
 80045d4:	eef6 7a00 	vmov.f32	s15, #96	; 0x3f000000  0.5
 80045d8:	ee67 7a27 	vmul.f32	s15, s14, s15
 80045dc:	eeb6 7a00 	vmov.f32	s14, #96	; 0x3f000000  0.5
 80045e0:	ee77 7a67 	vsub.f32	s15, s14, s15
 80045e4:	edc4 7a00 	vstr	s15, [r4]
 80045e8:	6afb      	ldr	r3, [r7, #44]	; 0x2c
 80045ea:	3301      	adds	r3, #1
 80045ec:	62fb      	str	r3, [r7, #44]	; 0x2c
 80045ee:	6afb      	ldr	r3, [r7, #44]	; 0x2c
 80045f0:	f5b3 6f00 	cmp.w	r3, #2048	; 0x800
 80045f4:	d3db      	bcc.n	80045ae <main+0x7e>
 80045f6:	2300      	movs	r3, #0
 80045f8:	62bb      	str	r3, [r7, #40]	; 0x28
 80045fa:	e016      	b.n	800462a <main+0xfa>
 80045fc:	6abb      	ldr	r3, [r7, #40]	; 0x28
 80045fe:	009b      	lsls	r3, r3, #2
 8004600:	4a86      	ldr	r2, [pc, #536]	; (800481c <main+0x2ec>)
 8004602:	4413      	add	r3, r2
 8004604:	6aba      	ldr	r2, [r7, #40]	; 0x28
 8004606:	ee07 2a90 	vmov	s15, r2
 800460a:	eeb8 7a67 	vcvt.f32.u32	s14, s15
 800460e:	4a80      	ldr	r2, [pc, #512]	; (8004810 <main+0x2e0>)
 8004610:	edd2 7a00 	vldr	s15, [r2]
 8004614:	ee27 7a27 	vmul.f32	s14, s14, s15
 8004618:	eddf 6a81 	vldr	s13, [pc, #516]	; 8004820 <main+0x2f0>
 800461c:	eec7 7a26 	vdiv.f32	s15, s14, s13
 8004620:	edc3 7a00 	vstr	s15, [r3]
 8004624:	6abb      	ldr	r3, [r7, #40]	; 0x28
 8004626:	3301      	adds	r3, #1
 8004628:	62bb      	str	r3, [r7, #40]	; 0x28
 800462a:	6abb      	ldr	r3, [r7, #40]	; 0x28
 800462c:	f5b3 6f80 	cmp.w	r3, #1024	; 0x400
 8004630:	d3e4      	bcc.n	80045fc <main+0xcc>
 8004632:	f44f 6100 	mov.w	r1, #2048	; 0x800
 8004636:	487b      	ldr	r0, [pc, #492]	; (8004824 <main+0x2f4>)
 8004638:	f000 fb74 	bl	8004d24 <arm_rfft_fast_init_f32>
 800463c:	bf00      	nop
 800463e:	4b7a      	ldr	r3, [pc, #488]	; (8004828 <main+0x2f8>)
 8004640:	781b      	ldrb	r3, [r3, #0]
 8004642:	2b00      	cmp	r3, #0
 8004644:	d1fb      	bne.n	800463e <main+0x10e>
 8004646:	2300      	movs	r3, #0
 8004648:	627b      	str	r3, [r7, #36]	; 0x24
 800464a:	e010      	b.n	800466e <main+0x13e>
 800464c:	4a77      	ldr	r2, [pc, #476]	; (800482c <main+0x2fc>)
 800464e:	6a7b      	ldr	r3, [r7, #36]	; 0x24
 8004650:	f852 3023 	ldr.w	r3, [r2, r3, lsl #2]
 8004654:	ee07 3a90 	vmov	s15, r3
 8004658:	eef8 7ae7 	vcvt.f32.s32	s15, s15
 800465c:	4a74      	ldr	r2, [pc, #464]	; (8004830 <main+0x300>)
 800465e:	6a7b      	ldr	r3, [r7, #36]	; 0x24
 8004660:	009b      	lsls	r3, r3, #2
 8004662:	4413      	add	r3, r2
 8004664:	edc3 7a00 	vstr	s15, [r3]
 8004668:	6a7b      	ldr	r3, [r7, #36]	; 0x24
 800466a:	3301      	adds	r3, #1
 800466c:	627b      	str	r3, [r7, #36]	; 0x24
 800466e:	6a7b      	ldr	r3, [r7, #36]	; 0x24
 8004670:	f5b3 6f00 	cmp.w	r3, #2048	; 0x800
 8004674:	d3ea      	bcc.n	800464c <main+0x11c>
 8004676:	f44f 6300 	mov.w	r3, #2048	; 0x800
 800467a:	4a6d      	ldr	r2, [pc, #436]	; (8004830 <main+0x300>)
 800467c:	4966      	ldr	r1, [pc, #408]	; (8004818 <main+0x2e8>)
 800467e:	486c      	ldr	r0, [pc, #432]	; (8004830 <main+0x300>)
 8004680:	f001 f9a0 	bl	80059c4 <arm_mult_f32>
 8004684:	2300      	movs	r3, #0
 8004686:	4a6b      	ldr	r2, [pc, #428]	; (8004834 <main+0x304>)
 8004688:	4969      	ldr	r1, [pc, #420]	; (8004830 <main+0x300>)
 800468a:	4866      	ldr	r0, [pc, #408]	; (8004824 <main+0x2f4>)
 800468c:	f000 fbce 	bl	8004e2c <arm_rfft_fast_f32>
 8004690:	f44f 6280 	mov.w	r2, #1024	; 0x400
 8004694:	4968      	ldr	r1, [pc, #416]	; (8004838 <main+0x308>)
 8004696:	4867      	ldr	r0, [pc, #412]	; (8004834 <main+0x304>)
 8004698:	f001 f836 	bl	8005708 <arm_cmplx_mag_f32>
 800469c:	f44f 6280 	mov.w	r2, #1024	; 0x400
 80046a0:	4965      	ldr	r1, [pc, #404]	; (8004838 <main+0x308>)
 80046a2:	ed9f 0a66 	vldr	s0, [pc, #408]	; 800483c <main+0x30c>
 80046a6:	4864      	ldr	r0, [pc, #400]	; (8004838 <main+0x308>)
 80046a8:	f001 f956 	bl	8005958 <arm_scale_f32>
 80046ac:	2300      	movs	r3, #0
 80046ae:	623b      	str	r3, [r7, #32]
 80046b0:	e017      	b.n	80046e2 <main+0x1b2>
 80046b2:	6a3b      	ldr	r3, [r7, #32]
 80046b4:	009b      	lsls	r3, r3, #2
 80046b6:	4a59      	ldr	r2, [pc, #356]	; (800481c <main+0x2ec>)
 80046b8:	4413      	add	r3, r2
 80046ba:	edd3 7a00 	vldr	s15, [r3]
 80046be:	ed9f 7a60 	vldr	s14, [pc, #384]	; 8004840 <main+0x310>
 80046c2:	eef4 7ac7 	vcmpe.f32	s15, s14
 80046c6:	eef1 fa10 	vmrs	APSR_nzcv, fpscr
 80046ca:	d400      	bmi.n	80046ce <main+0x19e>
 80046cc:	e00d      	b.n	80046ea <main+0x1ba>
 80046ce:	4a5a      	ldr	r2, [pc, #360]	; (8004838 <main+0x308>)
 80046d0:	6a3b      	ldr	r3, [r7, #32]
 80046d2:	009b      	lsls	r3, r3, #2
 80046d4:	4413      	add	r3, r2
 80046d6:	f04f 527e 	mov.w	r2, #1065353216	; 0x3f800000
 80046da:	601a      	str	r2, [r3, #0]
 80046dc:	6a3b      	ldr	r3, [r7, #32]
 80046de:	3301      	adds	r3, #1
 80046e0:	623b      	str	r3, [r7, #32]
 80046e2:	6a3b      	ldr	r3, [r7, #32]
 80046e4:	f5b3 6f80 	cmp.w	r3, #1024	; 0x400
 80046e8:	d3e3      	bcc.n	80046b2 <main+0x182>
 80046ea:	f04f 537e 	mov.w	r3, #1065353216	; 0x3f800000
 80046ee:	613b      	str	r3, [r7, #16]
 80046f0:	2300      	movs	r3, #0
 80046f2:	61fb      	str	r3, [r7, #28]
 80046f4:	e01c      	b.n	8004730 <main+0x200>
 80046f6:	4a50      	ldr	r2, [pc, #320]	; (8004838 <main+0x308>)
 80046f8:	69fb      	ldr	r3, [r7, #28]
 80046fa:	009b      	lsls	r3, r3, #2
 80046fc:	4413      	add	r3, r2
 80046fe:	ed93 7a00 	vldr	s14, [r3]
 8004702:	edd7 7a04 	vldr	s15, [r7, #16]
 8004706:	ee67 7a27 	vmul.f32	s15, s14, s15
 800470a:	eeb0 0a67 	vmov.f32	s0, s15
 800470e:	f001 fc81 	bl	8006014 <log10f>
 8004712:	eeb0 7a40 	vmov.f32	s14, s0
 8004716:	eef2 7a04 	vmov.f32	s15, #36	; 0x41200000  10.0
 800471a:	ee67 7a27 	vmul.f32	s15, s14, s15
 800471e:	4a49      	ldr	r2, [pc, #292]	; (8004844 <main+0x314>)
 8004720:	69fb      	ldr	r3, [r7, #28]
 8004722:	009b      	lsls	r3, r3, #2
 8004724:	4413      	add	r3, r2
 8004726:	edc3 7a00 	vstr	s15, [r3]
 800472a:	69fb      	ldr	r3, [r7, #28]
 800472c:	3301      	adds	r3, #1
 800472e:	61fb      	str	r3, [r7, #28]
 8004730:	69fb      	ldr	r3, [r7, #28]
 8004732:	f5b3 6f80 	cmp.w	r3, #1024	; 0x400
 8004736:	d3de      	bcc.n	80046f6 <main+0x1c6>
 8004738:	1d3b      	adds	r3, r7, #4
 800473a:	f107 0208 	add.w	r2, r7, #8
 800473e:	f44f 6180 	mov.w	r1, #1024	; 0x400
 8004742:	483d      	ldr	r0, [pc, #244]	; (8004838 <main+0x308>)
 8004744:	f000 fa86 	bl	8004c54 <arm_max_f32>
 8004748:	687b      	ldr	r3, [r7, #4]
 800474a:	009b      	lsls	r3, r3, #2
 800474c:	4a33      	ldr	r2, [pc, #204]	; (800481c <main+0x2ec>)
 800474e:	4413      	add	r3, r2
 8004750:	681b      	ldr	r3, [r3, #0]
 8004752:	60fb      	str	r3, [r7, #12]
 8004754:	4b2e      	ldr	r3, [pc, #184]	; (8004810 <main+0x2e0>)
 8004756:	edd3 7a00 	vldr	s15, [r3]
 800475a:	eebd 8ae7 	vcvt.s32.f32	s16, s15
 800475e:	68f8      	ldr	r0, [r7, #12]
 8004760:	f7fb ff52 	bl	8000608 <__aeabi_f2d>
 8004764:	4605      	mov	r5, r0
 8004766:	460e      	mov	r6, r1
 8004768:	68bb      	ldr	r3, [r7, #8]
 800476a:	4618      	mov	r0, r3
 800476c:	f7fb ff4c 	bl	8000608 <__aeabi_f2d>
 8004770:	4603      	mov	r3, r0
 8004772:	460c      	mov	r4, r1
 8004774:	e88d 0018 	stmia.w	sp, {r3, r4}
 8004778:	462a      	mov	r2, r5
 800477a:	4633      	mov	r3, r6
 800477c:	ee18 1a10 	vmov	r1, s16
 8004780:	4831      	ldr	r0, [pc, #196]	; (8004848 <main+0x318>)
 8004782:	f002 fb41 	bl	8006e08 <iprintf>
 8004786:	2300      	movs	r3, #0
 8004788:	61bb      	str	r3, [r7, #24]
 800478a:	e029      	b.n	80047e0 <main+0x2b0>
 800478c:	4a23      	ldr	r2, [pc, #140]	; (800481c <main+0x2ec>)
 800478e:	69bb      	ldr	r3, [r7, #24]
 8004790:	009b      	lsls	r3, r3, #2
 8004792:	4413      	add	r3, r2
 8004794:	681b      	ldr	r3, [r3, #0]
 8004796:	4618      	mov	r0, r3
 8004798:	f7fb ff36 	bl	8000608 <__aeabi_f2d>
 800479c:	4680      	mov	r8, r0
 800479e:	4689      	mov	r9, r1
 80047a0:	4a25      	ldr	r2, [pc, #148]	; (8004838 <main+0x308>)
 80047a2:	69bb      	ldr	r3, [r7, #24]
 80047a4:	009b      	lsls	r3, r3, #2
 80047a6:	4413      	add	r3, r2
 80047a8:	681b      	ldr	r3, [r3, #0]
 80047aa:	4618      	mov	r0, r3
 80047ac:	f7fb ff2c 	bl	8000608 <__aeabi_f2d>
 80047b0:	4604      	mov	r4, r0
 80047b2:	460d      	mov	r5, r1
 80047b4:	4a23      	ldr	r2, [pc, #140]	; (8004844 <main+0x314>)
 80047b6:	69bb      	ldr	r3, [r7, #24]
 80047b8:	009b      	lsls	r3, r3, #2
 80047ba:	4413      	add	r3, r2
 80047bc:	681b      	ldr	r3, [r3, #0]
 80047be:	4618      	mov	r0, r3
 80047c0:	f7fb ff22 	bl	8000608 <__aeabi_f2d>
 80047c4:	4602      	mov	r2, r0
 80047c6:	460b      	mov	r3, r1
 80047c8:	e9cd 2302 	strd	r2, r3, [sp, #8]
 80047cc:	e9cd 4500 	strd	r4, r5, [sp]
 80047d0:	4642      	mov	r2, r8
 80047d2:	464b      	mov	r3, r9
 80047d4:	481d      	ldr	r0, [pc, #116]	; (800484c <main+0x31c>)
 80047d6:	f002 fb17 	bl	8006e08 <iprintf>
 80047da:	69bb      	ldr	r3, [r7, #24]
 80047dc:	3301      	adds	r3, #1
 80047de:	61bb      	str	r3, [r7, #24]
 80047e0:	69bb      	ldr	r3, [r7, #24]
 80047e2:	f5b3 6f80 	cmp.w	r3, #1024	; 0x400
 80047e6:	d3d1      	bcc.n	800478c <main+0x25c>
 80047e8:	f44f 60fa 	mov.w	r0, #2000	; 0x7d0
 80047ec:	f7fc fc5c 	bl	80010a8 <HAL_Delay>
 80047f0:	4b0d      	ldr	r3, [pc, #52]	; (8004828 <main+0x2f8>)
 80047f2:	2201      	movs	r2, #1
 80047f4:	701a      	strb	r2, [r3, #0]
 80047f6:	e721      	b.n	800463c <main+0x10c>
 80047f8:	08008d30 	.word	0x08008d30
 80047fc:	20000228 	.word	0x20000228
 8004800:	2000f238 	.word	0x2000f238
 8004804:	08008d50 	.word	0x08008d50
 8004808:	20000004 	.word	0x20000004
 800480c:	2000f2d4 	.word	0x2000f2d4
 8004810:	2000f30c 	.word	0x2000f30c
 8004814:	3b490fdb 	.word	0x3b490fdb
 8004818:	2000d228 	.word	0x2000d228
 800481c:	2000c228 	.word	0x2000c228
 8004820:	45000000 	.word	0x45000000
 8004824:	2000f310 	.word	0x2000f310
 8004828:	20000000 	.word	0x20000000
 800482c:	20004228 	.word	0x20004228
 8004830:	20006228 	.word	0x20006228
 8004834:	20008228 	.word	0x20008228
 8004838:	2000a228 	.word	0x2000a228
 800483c:	3cb504f3 	.word	0x3cb504f3
 8004840:	447a0000 	.word	0x447a0000
 8004844:	2000b228 	.word	0x2000b228
 8004848:	08008d60 	.word	0x08008d60
 800484c:	08008d90 	.word	0x08008d90

08004850 <SystemClock_Config>:
 8004850:	b580      	push	{r7, lr}
 8004852:	b0b8      	sub	sp, #224	; 0xe0
 8004854:	af00      	add	r7, sp, #0
 8004856:	2302      	movs	r3, #2
 8004858:	f8c7 309c 	str.w	r3, [r7, #156]	; 0x9c
 800485c:	f44f 7380 	mov.w	r3, #256	; 0x100
 8004860:	f8c7 30a8 	str.w	r3, [r7, #168]	; 0xa8
 8004864:	2310      	movs	r3, #16
 8004866:	f8c7 30ac 	str.w	r3, [r7, #172]	; 0xac
 800486a:	2302      	movs	r3, #2
 800486c:	f8c7 30c4 	str.w	r3, [r7, #196]	; 0xc4
 8004870:	2302      	movs	r3, #2
 8004872:	f8c7 30c8 	str.w	r3, [r7, #200]	; 0xc8
 8004876:	2314      	movs	r3, #20
 8004878:	f8c7 30d0 	str.w	r3, [r7, #208]	; 0xd0
 800487c:	2307      	movs	r3, #7
 800487e:	f8c7 30d4 	str.w	r3, [r7, #212]	; 0xd4
 8004882:	2302      	movs	r3, #2
 8004884:	f8c7 30d8 	str.w	r3, [r7, #216]	; 0xd8
 8004888:	2302      	movs	r3, #2
 800488a:	f8c7 30dc 	str.w	r3, [r7, #220]	; 0xdc
 800488e:	f107 039c 	add.w	r3, r7, #156	; 0x9c
 8004892:	4618      	mov	r0, r3
 8004894:	f7fd fcb8 	bl	8002208 <HAL_RCC_OscConfig>
 8004898:	4603      	mov	r3, r0
 800489a:	2b00      	cmp	r3, #0
 800489c:	d003      	beq.n	80048a6 <SystemClock_Config+0x56>
 800489e:	21e3      	movs	r1, #227	; 0xe3
 80048a0:	4829      	ldr	r0, [pc, #164]	; (8004948 <SystemClock_Config+0xf8>)
 80048a2:	f000 f8a1 	bl	80049e8 <_Error_Handler>
 80048a6:	230f      	movs	r3, #15
 80048a8:	f8c7 3088 	str.w	r3, [r7, #136]	; 0x88
 80048ac:	2303      	movs	r3, #3
 80048ae:	f8c7 308c 	str.w	r3, [r7, #140]	; 0x8c
 80048b2:	2300      	movs	r3, #0
 80048b4:	f8c7 3090 	str.w	r3, [r7, #144]	; 0x90
 80048b8:	2300      	movs	r3, #0
 80048ba:	f8c7 3094 	str.w	r3, [r7, #148]	; 0x94
 80048be:	2300      	movs	r3, #0
 80048c0:	f8c7 3098 	str.w	r3, [r7, #152]	; 0x98
 80048c4:	f107 0388 	add.w	r3, r7, #136	; 0x88
 80048c8:	2104      	movs	r1, #4
 80048ca:	4618      	mov	r0, r3
 80048cc:	f7fd fffe 	bl	80028cc <HAL_RCC_ClockConfig>
 80048d0:	4603      	mov	r3, r0
 80048d2:	2b00      	cmp	r3, #0
 80048d4:	d003      	beq.n	80048de <SystemClock_Config+0x8e>
 80048d6:	21f1      	movs	r1, #241	; 0xf1
 80048d8:	481b      	ldr	r0, [pc, #108]	; (8004948 <SystemClock_Config+0xf8>)
 80048da:	f000 f885 	bl	80049e8 <_Error_Handler>
 80048de:	4b1b      	ldr	r3, [pc, #108]	; (800494c <SystemClock_Config+0xfc>)
 80048e0:	603b      	str	r3, [r7, #0]
 80048e2:	2300      	movs	r3, #0
 80048e4:	63fb      	str	r3, [r7, #60]	; 0x3c
 80048e6:	2300      	movs	r3, #0
 80048e8:	f8c7 3080 	str.w	r3, [r7, #128]	; 0x80
 80048ec:	463b      	mov	r3, r7
 80048ee:	4618      	mov	r0, r3
 80048f0:	f7fe fa4a 	bl	8002d88 <HAL_RCCEx_PeriphCLKConfig>
 80048f4:	4603      	mov	r3, r0
 80048f6:	2b00      	cmp	r3, #0
 80048f8:	d003      	beq.n	8004902 <SystemClock_Config+0xb2>
 80048fa:	21f9      	movs	r1, #249	; 0xf9
 80048fc:	4812      	ldr	r0, [pc, #72]	; (8004948 <SystemClock_Config+0xf8>)
 80048fe:	f000 f873 	bl	80049e8 <_Error_Handler>
 8004902:	f44f 7000 	mov.w	r0, #512	; 0x200
 8004906:	f7fd fc29 	bl	800215c <HAL_PWREx_ControlVoltageScaling>
 800490a:	4603      	mov	r3, r0
 800490c:	2b00      	cmp	r3, #0
 800490e:	d004      	beq.n	800491a <SystemClock_Config+0xca>
 8004910:	f44f 7180 	mov.w	r1, #256	; 0x100
 8004914:	480c      	ldr	r0, [pc, #48]	; (8004948 <SystemClock_Config+0xf8>)
 8004916:	f000 f867 	bl	80049e8 <_Error_Handler>
 800491a:	f7fe f99f 	bl	8002c5c <HAL_RCC_GetHCLKFreq>
 800491e:	4602      	mov	r2, r0
 8004920:	4b0b      	ldr	r3, [pc, #44]	; (8004950 <SystemClock_Config+0x100>)
 8004922:	fba3 2302 	umull	r2, r3, r3, r2
 8004926:	099b      	lsrs	r3, r3, #6
 8004928:	4618      	mov	r0, r3
 800492a:	f7fc fcda 	bl	80012e2 <HAL_SYSTICK_Config>
 800492e:	2004      	movs	r0, #4
 8004930:	f7fc fce4 	bl	80012fc <HAL_SYSTICK_CLKSourceConfig>
 8004934:	2200      	movs	r2, #0
 8004936:	2100      	movs	r1, #0
 8004938:	f04f 30ff 	mov.w	r0, #4294967295
 800493c:	f7fc fca7 	bl	800128e <HAL_NVIC_SetPriority>
 8004940:	bf00      	nop
 8004942:	37e0      	adds	r7, #224	; 0xe0
 8004944:	46bd      	mov	sp, r7
 8004946:	bd80      	pop	{r7, pc}
 8004948:	08008d50 	.word	0x08008d50
 800494c:	00010002 	.word	0x00010002
 8004950:	10624dd3 	.word	0x10624dd3

08004954 <HAL_DFSDM_FilterRegConvHalfCpltCallback>:
 8004954:	b480      	push	{r7}
 8004956:	b083      	sub	sp, #12
 8004958:	af00      	add	r7, sp, #0
 800495a:	6078      	str	r0, [r7, #4]
 800495c:	bf00      	nop
 800495e:	370c      	adds	r7, #12
 8004960:	46bd      	mov	sp, r7
 8004962:	f85d 7b04 	ldr.w	r7, [sp], #4
 8004966:	4770      	bx	lr

08004968 <HAL_DFSDM_FilterRegConvCpltCallback>:
 8004968:	b480      	push	{r7}
 800496a:	b085      	sub	sp, #20
 800496c:	af00      	add	r7, sp, #0
 800496e:	6078      	str	r0, [r7, #4]
 8004970:	4b0f      	ldr	r3, [pc, #60]	; (80049b0 <HAL_DFSDM_FilterRegConvCpltCallback+0x48>)
 8004972:	781b      	ldrb	r3, [r3, #0]
 8004974:	2b00      	cmp	r3, #0
 8004976:	d014      	beq.n	80049a2 <HAL_DFSDM_FilterRegConvCpltCallback+0x3a>
 8004978:	2300      	movs	r3, #0
 800497a:	60fb      	str	r3, [r7, #12]
 800497c:	e00a      	b.n	8004994 <HAL_DFSDM_FilterRegConvCpltCallback+0x2c>
 800497e:	4a0d      	ldr	r2, [pc, #52]	; (80049b4 <HAL_DFSDM_FilterRegConvCpltCallback+0x4c>)
 8004980:	68fb      	ldr	r3, [r7, #12]
 8004982:	f852 2023 	ldr.w	r2, [r2, r3, lsl #2]
 8004986:	490c      	ldr	r1, [pc, #48]	; (80049b8 <HAL_DFSDM_FilterRegConvCpltCallback+0x50>)
 8004988:	68fb      	ldr	r3, [r7, #12]
 800498a:	f841 2023 	str.w	r2, [r1, r3, lsl #2]
 800498e:	68fb      	ldr	r3, [r7, #12]
 8004990:	3301      	adds	r3, #1
 8004992:	60fb      	str	r3, [r7, #12]
 8004994:	68fb      	ldr	r3, [r7, #12]
 8004996:	f5b3 6f00 	cmp.w	r3, #2048	; 0x800
 800499a:	d3f0      	bcc.n	800497e <HAL_DFSDM_FilterRegConvCpltCallback+0x16>
 800499c:	4b04      	ldr	r3, [pc, #16]	; (80049b0 <HAL_DFSDM_FilterRegConvCpltCallback+0x48>)
 800499e:	2200      	movs	r2, #0
 80049a0:	701a      	strb	r2, [r3, #0]
 80049a2:	bf00      	nop
 80049a4:	3714      	adds	r7, #20
 80049a6:	46bd      	mov	sp, r7
 80049a8:	f85d 7b04 	ldr.w	r7, [sp], #4
 80049ac:	4770      	bx	lr
 80049ae:	bf00      	nop
 80049b0:	20000000 	.word	0x20000000
 80049b4:	20000228 	.word	0x20000228
 80049b8:	20004228 	.word	0x20004228

080049bc <_write>:
 80049bc:	b580      	push	{r7, lr}
 80049be:	b084      	sub	sp, #16
 80049c0:	af00      	add	r7, sp, #0
 80049c2:	60f8      	str	r0, [r7, #12]
 80049c4:	60b9      	str	r1, [r7, #8]
 80049c6:	607a      	str	r2, [r7, #4]
 80049c8:	687b      	ldr	r3, [r7, #4]
 80049ca:	b29a      	uxth	r2, r3
 80049cc:	f04f 33ff 	mov.w	r3, #4294967295
 80049d0:	68b9      	ldr	r1, [r7, #8]
 80049d2:	4804      	ldr	r0, [pc, #16]	; (80049e4 <_write+0x28>)
 80049d4:	f7fe fedb 	bl	800378e <HAL_UART_Transmit>
 80049d8:	687b      	ldr	r3, [r7, #4]
 80049da:	4618      	mov	r0, r3
 80049dc:	3710      	adds	r7, #16
 80049de:	46bd      	mov	sp, r7
 80049e0:	bd80      	pop	{r7, pc}
 80049e2:	bf00      	nop
 80049e4:	2000f328 	.word	0x2000f328

080049e8 <_Error_Handler>:
 80049e8:	b480      	push	{r7}
 80049ea:	b083      	sub	sp, #12
 80049ec:	af00      	add	r7, sp, #0
 80049ee:	6078      	str	r0, [r7, #4]
 80049f0:	6039      	str	r1, [r7, #0]
 80049f2:	e7fe      	b.n	80049f2 <_Error_Handler+0xa>

080049f4 <HAL_MspInit>:
 80049f4:	b580      	push	{r7, lr}
 80049f6:	b082      	sub	sp, #8
 80049f8:	af00      	add	r7, sp, #0
 80049fa:	4a24      	ldr	r2, [pc, #144]	; (8004a8c <HAL_MspInit+0x98>)
 80049fc:	4b23      	ldr	r3, [pc, #140]	; (8004a8c <HAL_MspInit+0x98>)
 80049fe:	6e1b      	ldr	r3, [r3, #96]	; 0x60
 8004a00:	f043 0301 	orr.w	r3, r3, #1
 8004a04:	6613      	str	r3, [r2, #96]	; 0x60
 8004a06:	4b21      	ldr	r3, [pc, #132]	; (8004a8c <HAL_MspInit+0x98>)
 8004a08:	6e1b      	ldr	r3, [r3, #96]	; 0x60
 8004a0a:	f003 0301 	and.w	r3, r3, #1
 8004a0e:	607b      	str	r3, [r7, #4]
 8004a10:	687b      	ldr	r3, [r7, #4]
 8004a12:	4a1e      	ldr	r2, [pc, #120]	; (8004a8c <HAL_MspInit+0x98>)
 8004a14:	4b1d      	ldr	r3, [pc, #116]	; (8004a8c <HAL_MspInit+0x98>)
 8004a16:	6d9b      	ldr	r3, [r3, #88]	; 0x58
 8004a18:	f043 5380 	orr.w	r3, r3, #268435456	; 0x10000000
 8004a1c:	6593      	str	r3, [r2, #88]	; 0x58
 8004a1e:	4b1b      	ldr	r3, [pc, #108]	; (8004a8c <HAL_MspInit+0x98>)
 8004a20:	6d9b      	ldr	r3, [r3, #88]	; 0x58
 8004a22:	f003 5380 	and.w	r3, r3, #268435456	; 0x10000000
 8004a26:	603b      	str	r3, [r7, #0]
 8004a28:	683b      	ldr	r3, [r7, #0]
 8004a2a:	2003      	movs	r0, #3
 8004a2c:	f7fc fc24 	bl	8001278 <HAL_NVIC_SetPriorityGrouping>
 8004a30:	2200      	movs	r2, #0
 8004a32:	2100      	movs	r1, #0
 8004a34:	f06f 000b 	mvn.w	r0, #11
 8004a38:	f7fc fc29 	bl	800128e <HAL_NVIC_SetPriority>
 8004a3c:	2200      	movs	r2, #0
 8004a3e:	2100      	movs	r1, #0
 8004a40:	f06f 000a 	mvn.w	r0, #10
 8004a44:	f7fc fc23 	bl	800128e <HAL_NVIC_SetPriority>
 8004a48:	2200      	movs	r2, #0
 8004a4a:	2100      	movs	r1, #0
 8004a4c:	f06f 0009 	mvn.w	r0, #9
 8004a50:	f7fc fc1d 	bl	800128e <HAL_NVIC_SetPriority>
 8004a54:	2200      	movs	r2, #0
 8004a56:	2100      	movs	r1, #0
 8004a58:	f06f 0004 	mvn.w	r0, #4
 8004a5c:	f7fc fc17 	bl	800128e <HAL_NVIC_SetPriority>
 8004a60:	2200      	movs	r2, #0
 8004a62:	2100      	movs	r1, #0
 8004a64:	f06f 0003 	mvn.w	r0, #3
 8004a68:	f7fc fc11 	bl	800128e <HAL_NVIC_SetPriority>
 8004a6c:	2200      	movs	r2, #0
 8004a6e:	2100      	movs	r1, #0
 8004a70:	f06f 0001 	mvn.w	r0, #1
 8004a74:	f7fc fc0b 	bl	800128e <HAL_NVIC_SetPriority>
 8004a78:	2200      	movs	r2, #0
 8004a7a:	2100      	movs	r1, #0
 8004a7c:	f04f 30ff 	mov.w	r0, #4294967295
 8004a80:	f7fc fc05 	bl	800128e <HAL_NVIC_SetPriority>
 8004a84:	bf00      	nop
 8004a86:	3708      	adds	r7, #8
 8004a88:	46bd      	mov	sp, r7
 8004a8a:	bd80      	pop	{r7, pc}
 8004a8c:	40021000 	.word	0x40021000

08004a90 <SVC_Handler>:
 8004a90:	b480      	push	{r7}
 8004a92:	af00      	add	r7, sp, #0
 8004a94:	bf00      	nop
 8004a96:	46bd      	mov	sp, r7
 8004a98:	f85d 7b04 	ldr.w	r7, [sp], #4
 8004a9c:	4770      	bx	lr

08004a9e <PendSV_Handler>:
 8004a9e:	b480      	push	{r7}
 8004aa0:	af00      	add	r7, sp, #0
 8004aa2:	bf00      	nop
 8004aa4:	46bd      	mov	sp, r7
 8004aa6:	f85d 7b04 	ldr.w	r7, [sp], #4
 8004aaa:	4770      	bx	lr

08004aac <SysTick_Handler>:
 8004aac:	b580      	push	{r7, lr}
 8004aae:	af00      	add	r7, sp, #0
 8004ab0:	f7fc fae0 	bl	8001074 <HAL_IncTick>
 8004ab4:	f7fc fc3e 	bl	8001334 <HAL_SYSTICK_IRQHandler>
 8004ab8:	bf00      	nop
 8004aba:	bd80      	pop	{r7, pc}

08004abc <DMA1_Channel4_IRQHandler>:
 8004abc:	b580      	push	{r7, lr}
 8004abe:	af00      	add	r7, sp, #0
 8004ac0:	4802      	ldr	r0, [pc, #8]	; (8004acc <DMA1_Channel4_IRQHandler+0x10>)
 8004ac2:	f7fd f8a7 	bl	8001c14 <HAL_DMA_IRQHandler>
 8004ac6:	bf00      	nop
 8004ac8:	bd80      	pop	{r7, pc}
 8004aca:	bf00      	nop
 8004acc:	2000f28c 	.word	0x2000f28c

08004ad0 <SystemInit>:
 8004ad0:	b480      	push	{r7}
 8004ad2:	af00      	add	r7, sp, #0
 8004ad4:	4a17      	ldr	r2, [pc, #92]	; (8004b34 <SystemInit+0x64>)
 8004ad6:	4b17      	ldr	r3, [pc, #92]	; (8004b34 <SystemInit+0x64>)
 8004ad8:	f8d3 3088 	ldr.w	r3, [r3, #136]	; 0x88
 8004adc:	f443 0370 	orr.w	r3, r3, #15728640	; 0xf00000
 8004ae0:	f8c2 3088 	str.w	r3, [r2, #136]	; 0x88
 8004ae4:	4a14      	ldr	r2, [pc, #80]	; (8004b38 <SystemInit+0x68>)
 8004ae6:	4b14      	ldr	r3, [pc, #80]	; (8004b38 <SystemInit+0x68>)
 8004ae8:	681b      	ldr	r3, [r3, #0]
 8004aea:	f043 0301 	orr.w	r3, r3, #1
 8004aee:	6013      	str	r3, [r2, #0]
 8004af0:	4b11      	ldr	r3, [pc, #68]	; (8004b38 <SystemInit+0x68>)
 8004af2:	2200      	movs	r2, #0
 8004af4:	609a      	str	r2, [r3, #8]
 8004af6:	4a10      	ldr	r2, [pc, #64]	; (8004b38 <SystemInit+0x68>)
 8004af8:	4b0f      	ldr	r3, [pc, #60]	; (8004b38 <SystemInit+0x68>)
 8004afa:	681b      	ldr	r3, [r3, #0]
 8004afc:	f023 53a8 	bic.w	r3, r3, #352321536	; 0x15000000
 8004b00:	f423 2310 	bic.w	r3, r3, #589824	; 0x90000
 8004b04:	6013      	str	r3, [r2, #0]
 8004b06:	4b0c      	ldr	r3, [pc, #48]	; (8004b38 <SystemInit+0x68>)
 8004b08:	f44f 5280 	mov.w	r2, #4096	; 0x1000
 8004b0c:	60da      	str	r2, [r3, #12]
 8004b0e:	4a0a      	ldr	r2, [pc, #40]	; (8004b38 <SystemInit+0x68>)
 8004b10:	4b09      	ldr	r3, [pc, #36]	; (8004b38 <SystemInit+0x68>)
 8004b12:	681b      	ldr	r3, [r3, #0]
 8004b14:	f423 2380 	bic.w	r3, r3, #262144	; 0x40000
 8004b18:	6013      	str	r3, [r2, #0]
 8004b1a:	4b07      	ldr	r3, [pc, #28]	; (8004b38 <SystemInit+0x68>)
 8004b1c:	2200      	movs	r2, #0
 8004b1e:	619a      	str	r2, [r3, #24]
 8004b20:	4b04      	ldr	r3, [pc, #16]	; (8004b34 <SystemInit+0x64>)
 8004b22:	f04f 6200 	mov.w	r2, #134217728	; 0x8000000
 8004b26:	609a      	str	r2, [r3, #8]
 8004b28:	bf00      	nop
 8004b2a:	46bd      	mov	sp, r7
 8004b2c:	f85d 7b04 	ldr.w	r7, [sp], #4
 8004b30:	4770      	bx	lr
 8004b32:	bf00      	nop
 8004b34:	e000ed00 	.word	0xe000ed00
 8004b38:	40021000 	.word	0x40021000

08004b3c <MX_USART2_UART_Init>:
 8004b3c:	b580      	push	{r7, lr}
 8004b3e:	af00      	add	r7, sp, #0
 8004b40:	4b15      	ldr	r3, [pc, #84]	; (8004b98 <MX_USART2_UART_Init+0x5c>)
 8004b42:	4a16      	ldr	r2, [pc, #88]	; (8004b9c <MX_USART2_UART_Init+0x60>)
 8004b44:	601a      	str	r2, [r3, #0]
 8004b46:	4b14      	ldr	r3, [pc, #80]	; (8004b98 <MX_USART2_UART_Init+0x5c>)
 8004b48:	f44f 32e1 	mov.w	r2, #115200	; 0x1c200
 8004b4c:	605a      	str	r2, [r3, #4]
 8004b4e:	4b12      	ldr	r3, [pc, #72]	; (8004b98 <MX_USART2_UART_Init+0x5c>)
 8004b50:	2200      	movs	r2, #0
 8004b52:	609a      	str	r2, [r3, #8]
 8004b54:	4b10      	ldr	r3, [pc, #64]	; (8004b98 <MX_USART2_UART_Init+0x5c>)
 8004b56:	2200      	movs	r2, #0
 8004b58:	60da      	str	r2, [r3, #12]
 8004b5a:	4b0f      	ldr	r3, [pc, #60]	; (8004b98 <MX_USART2_UART_Init+0x5c>)
 8004b5c:	2200      	movs	r2, #0
 8004b5e:	611a      	str	r2, [r3, #16]
 8004b60:	4b0d      	ldr	r3, [pc, #52]	; (8004b98 <MX_USART2_UART_Init+0x5c>)
 8004b62:	220c      	movs	r2, #12
 8004b64:	615a      	str	r2, [r3, #20]
 8004b66:	4b0c      	ldr	r3, [pc, #48]	; (8004b98 <MX_USART2_UART_Init+0x5c>)
 8004b68:	2200      	movs	r2, #0
 8004b6a:	619a      	str	r2, [r3, #24]
 8004b6c:	4b0a      	ldr	r3, [pc, #40]	; (8004b98 <MX_USART2_UART_Init+0x5c>)
 8004b6e:	2200      	movs	r2, #0
 8004b70:	61da      	str	r2, [r3, #28]
 8004b72:	4b09      	ldr	r3, [pc, #36]	; (8004b98 <MX_USART2_UART_Init+0x5c>)
 8004b74:	2200      	movs	r2, #0
 8004b76:	621a      	str	r2, [r3, #32]
 8004b78:	4b07      	ldr	r3, [pc, #28]	; (8004b98 <MX_USART2_UART_Init+0x5c>)
 8004b7a:	2200      	movs	r2, #0
 8004b7c:	625a      	str	r2, [r3, #36]	; 0x24
 8004b7e:	4806      	ldr	r0, [pc, #24]	; (8004b98 <MX_USART2_UART_Init+0x5c>)
 8004b80:	f7fe fdb4 	bl	80036ec <HAL_UART_Init>
 8004b84:	4603      	mov	r3, r0
 8004b86:	2b00      	cmp	r3, #0
 8004b88:	d003      	beq.n	8004b92 <MX_USART2_UART_Init+0x56>
 8004b8a:	2144      	movs	r1, #68	; 0x44
 8004b8c:	4804      	ldr	r0, [pc, #16]	; (8004ba0 <MX_USART2_UART_Init+0x64>)
 8004b8e:	f7ff ff2b 	bl	80049e8 <_Error_Handler>
 8004b92:	bf00      	nop
 8004b94:	bd80      	pop	{r7, pc}
 8004b96:	bf00      	nop
 8004b98:	2000f328 	.word	0x2000f328
 8004b9c:	40004400 	.word	0x40004400
 8004ba0:	08008da0 	.word	0x08008da0

08004ba4 <HAL_UART_MspInit>:
 8004ba4:	b580      	push	{r7, lr}
 8004ba6:	b088      	sub	sp, #32
 8004ba8:	af00      	add	r7, sp, #0
 8004baa:	6078      	str	r0, [r7, #4]
 8004bac:	687b      	ldr	r3, [r7, #4]
 8004bae:	681b      	ldr	r3, [r3, #0]
 8004bb0:	4a11      	ldr	r2, [pc, #68]	; (8004bf8 <HAL_UART_MspInit+0x54>)
 8004bb2:	4293      	cmp	r3, r2
 8004bb4:	d11c      	bne.n	8004bf0 <HAL_UART_MspInit+0x4c>
 8004bb6:	4a11      	ldr	r2, [pc, #68]	; (8004bfc <HAL_UART_MspInit+0x58>)
 8004bb8:	4b10      	ldr	r3, [pc, #64]	; (8004bfc <HAL_UART_MspInit+0x58>)
 8004bba:	6d9b      	ldr	r3, [r3, #88]	; 0x58
 8004bbc:	f443 3300 	orr.w	r3, r3, #131072	; 0x20000
 8004bc0:	6593      	str	r3, [r2, #88]	; 0x58
 8004bc2:	4b0e      	ldr	r3, [pc, #56]	; (8004bfc <HAL_UART_MspInit+0x58>)
 8004bc4:	6d9b      	ldr	r3, [r3, #88]	; 0x58
 8004bc6:	f403 3300 	and.w	r3, r3, #131072	; 0x20000
 8004bca:	60bb      	str	r3, [r7, #8]
 8004bcc:	68bb      	ldr	r3, [r7, #8]
 8004bce:	230c      	movs	r3, #12
 8004bd0:	60fb      	str	r3, [r7, #12]
 8004bd2:	2302      	movs	r3, #2
 8004bd4:	613b      	str	r3, [r7, #16]
 8004bd6:	2300      	movs	r3, #0
 8004bd8:	617b      	str	r3, [r7, #20]
 8004bda:	2303      	movs	r3, #3
 8004bdc:	61bb      	str	r3, [r7, #24]
 8004bde:	2307      	movs	r3, #7
 8004be0:	61fb      	str	r3, [r7, #28]
 8004be2:	f107 030c 	add.w	r3, r7, #12
 8004be6:	4619      	mov	r1, r3
 8004be8:	f04f 4090 	mov.w	r0, #1207959552	; 0x48000000
 8004bec:	f7fd f8e4 	bl	8001db8 <HAL_GPIO_Init>
 8004bf0:	bf00      	nop
 8004bf2:	3720      	adds	r7, #32
 8004bf4:	46bd      	mov	sp, r7
 8004bf6:	bd80      	pop	{r7, pc}
 8004bf8:	40004400 	.word	0x40004400
 8004bfc:	40021000 	.word	0x40021000

08004c00 <Reset_Handler>:

    .section	.text.Reset_Handler
	.weak	Reset_Handler
	.type	Reset_Handler, %function
Reset_Handler:
  ldr   sp, =_estack    /* Atollic update: set stack pointer */
 8004c00:	f8df d034 	ldr.w	sp, [pc, #52]	; 8004c38 <LoopForever+0x2>

/* Copy the data segment initializers from flash to SRAM */
  movs	r1, #0
 8004c04:	2100      	movs	r1, #0
  b	LoopCopyDataInit
 8004c06:	e003      	b.n	8004c10 <LoopCopyDataInit>

08004c08 <CopyDataInit>:

CopyDataInit:
	ldr	r3, =_sidata
 8004c08:	4b0c      	ldr	r3, [pc, #48]	; (8004c3c <LoopForever+0x6>)
	ldr	r3, [r3, r1]
 8004c0a:	585b      	ldr	r3, [r3, r1]
	str	r3, [r0, r1]
 8004c0c:	5043      	str	r3, [r0, r1]
	adds	r1, r1, #4
 8004c0e:	3104      	adds	r1, #4

08004c10 <LoopCopyDataInit>:

LoopCopyDataInit:
	ldr	r0, =_sdata
 8004c10:	480b      	ldr	r0, [pc, #44]	; (8004c40 <LoopForever+0xa>)
	ldr	r3, =_edata
 8004c12:	4b0c      	ldr	r3, [pc, #48]	; (8004c44 <LoopForever+0xe>)
	adds	r2, r0, r1
 8004c14:	1842      	adds	r2, r0, r1
	cmp	r2, r3
 8004c16:	429a      	cmp	r2, r3
	bcc	CopyDataInit
 8004c18:	d3f6      	bcc.n	8004c08 <CopyDataInit>
	ldr	r2, =_sbss
 8004c1a:	4a0b      	ldr	r2, [pc, #44]	; (8004c48 <LoopForever+0x12>)
	b	LoopFillZerobss
 8004c1c:	e002      	b.n	8004c24 <LoopFillZerobss>

08004c1e <FillZerobss>:
/* Zero fill the bss segment. */
FillZerobss:
	movs	r3, #0
 8004c1e:	2300      	movs	r3, #0
	str	r3, [r2], #4
 8004c20:	f842 3b04 	str.w	r3, [r2], #4

08004c24 <LoopFillZerobss>:

LoopFillZerobss:
	ldr	r3, = _ebss
 8004c24:	4b09      	ldr	r3, [pc, #36]	; (8004c4c <LoopForever+0x16>)
	cmp	r2, r3
 8004c26:	429a      	cmp	r2, r3
	bcc	FillZerobss
 8004c28:	d3f9      	bcc.n	8004c1e <FillZerobss>

/* Call the clock system intitialization function.*/
    bl  SystemInit
 8004c2a:	f7ff ff51 	bl	8004ad0 <SystemInit>
/* Call static constructors */
    bl __libc_init_array
 8004c2e:	f001 fc5b 	bl	80064e8 <__libc_init_array>
/* Call the application's entry point.*/
	bl	main
 8004c32:	f7ff fc7d 	bl	8004530 <main>

08004c36 <LoopForever>:

LoopForever:
    b LoopForever
 8004c36:	e7fe      	b.n	8004c36 <LoopForever>
  ldr   sp, =_estack    /* Atollic update: set stack pointer */
 8004c38:	20018000 	.word	0x20018000
	ldr	r3, =_sidata
 8004c3c:	0801cd40 	.word	0x0801cd40
	ldr	r0, =_sdata
 8004c40:	20000000 	.word	0x20000000
	ldr	r3, =_edata
 8004c44:	200001e0 	.word	0x200001e0
	ldr	r2, =_sbss
 8004c48:	200001e0 	.word	0x200001e0
	ldr	r3, = _ebss
 8004c4c:	2000f3a4 	.word	0x2000f3a4

08004c50 <ADC1_2_IRQHandler>:
 * @retval : None
*/
    .section	.text.Default_Handler,"ax",%progbits
Default_Handler:
Infinite_Loop:
	b	Infinite_Loop
 8004c50:	e7fe      	b.n	8004c50 <ADC1_2_IRQHandler>
	...

08004c54 <arm_max_f32>:
 8004c54:	e92d 41f0 	stmdb	sp!, {r4, r5, r6, r7, r8, lr}
 8004c58:	1e4f      	subs	r7, r1, #1
 8004c5a:	ea5f 0897 	movs.w	r8, r7, lsr #2
 8004c5e:	f100 0e04 	add.w	lr, r0, #4
 8004c62:	edd0 7a00 	vldr	s15, [r0]
 8004c66:	d058      	beq.n	8004d1a <arm_max_f32+0xc6>
 8004c68:	3014      	adds	r0, #20
 8004c6a:	46c4      	mov	ip, r8
 8004c6c:	2604      	movs	r6, #4
 8004c6e:	2400      	movs	r4, #0
 8004c70:	ed10 6a04 	vldr	s12, [r0, #-16]
 8004c74:	ed50 6a03 	vldr	s13, [r0, #-12]
 8004c78:	ed10 7a02 	vldr	s14, [r0, #-8]
 8004c7c:	ed50 5a01 	vldr	s11, [r0, #-4]
 8004c80:	eeb4 6ae7 	vcmpe.f32	s12, s15
 8004c84:	eef1 fa10 	vmrs	APSR_nzcv, fpscr
 8004c88:	bfc8      	it	gt
 8004c8a:	eef0 7a46 	vmovgt.f32	s15, s12
 8004c8e:	f1a6 0503 	sub.w	r5, r6, #3
 8004c92:	eef4 7ae6 	vcmpe.f32	s15, s13
 8004c96:	bfc8      	it	gt
 8004c98:	462c      	movgt	r4, r5
 8004c9a:	eef1 fa10 	vmrs	APSR_nzcv, fpscr
 8004c9e:	bf48      	it	mi
 8004ca0:	eef0 7a66 	vmovmi.f32	s15, s13
 8004ca4:	f1a6 0502 	sub.w	r5, r6, #2
 8004ca8:	eef4 7ac7 	vcmpe.f32	s15, s14
 8004cac:	bf48      	it	mi
 8004cae:	462c      	movmi	r4, r5
 8004cb0:	eef1 fa10 	vmrs	APSR_nzcv, fpscr
 8004cb4:	bf48      	it	mi
 8004cb6:	eef0 7a47 	vmovmi.f32	s15, s14
 8004cba:	f106 35ff 	add.w	r5, r6, #4294967295
 8004cbe:	eef4 7ae5 	vcmpe.f32	s15, s11
 8004cc2:	bf48      	it	mi
 8004cc4:	462c      	movmi	r4, r5
 8004cc6:	eef1 fa10 	vmrs	APSR_nzcv, fpscr
 8004cca:	bf48      	it	mi
 8004ccc:	4634      	movmi	r4, r6
 8004cce:	bf48      	it	mi
 8004cd0:	eef0 7a65 	vmovmi.f32	s15, s11
 8004cd4:	f1bc 0c01 	subs.w	ip, ip, #1
 8004cd8:	f106 0604 	add.w	r6, r6, #4
 8004cdc:	f100 0010 	add.w	r0, r0, #16
 8004ce0:	d1c6      	bne.n	8004c70 <arm_max_f32+0x1c>
 8004ce2:	eb0e 1e08 	add.w	lr, lr, r8, lsl #4
 8004ce6:	f017 0003 	ands.w	r0, r7, #3
 8004cea:	d018      	beq.n	8004d1e <arm_max_f32+0xca>
 8004cec:	1a08      	subs	r0, r1, r0
 8004cee:	ecbe 7a01 	vldmia	lr!, {s14}
 8004cf2:	eeb4 7ae7 	vcmpe.f32	s14, s15
 8004cf6:	eef1 fa10 	vmrs	APSR_nzcv, fpscr
 8004cfa:	bfc8      	it	gt
 8004cfc:	4604      	movgt	r4, r0
 8004cfe:	f100 0001 	add.w	r0, r0, #1
 8004d02:	bfd8      	it	le
 8004d04:	eeb0 7a67 	vmovle.f32	s14, s15
 8004d08:	4288      	cmp	r0, r1
 8004d0a:	eef0 7a47 	vmov.f32	s15, s14
 8004d0e:	d1ee      	bne.n	8004cee <arm_max_f32+0x9a>
 8004d10:	ed82 7a00 	vstr	s14, [r2]
 8004d14:	601c      	str	r4, [r3, #0]
 8004d16:	e8bd 81f0 	ldmia.w	sp!, {r4, r5, r6, r7, r8, pc}
 8004d1a:	4644      	mov	r4, r8
 8004d1c:	e7e3      	b.n	8004ce6 <arm_max_f32+0x92>
 8004d1e:	eeb0 7a67 	vmov.f32	s14, s15
 8004d22:	e7f5      	b.n	8004d10 <arm_max_f32+0xbc>

08004d24 <arm_rfft_fast_init_f32>:
 8004d24:	084b      	lsrs	r3, r1, #1
 8004d26:	2b80      	cmp	r3, #128	; 0x80
 8004d28:	b410      	push	{r4}
 8004d2a:	8201      	strh	r1, [r0, #16]
 8004d2c:	8003      	strh	r3, [r0, #0]
 8004d2e:	d047      	beq.n	8004dc0 <arm_rfft_fast_init_f32+0x9c>
 8004d30:	d917      	bls.n	8004d62 <arm_rfft_fast_init_f32+0x3e>
 8004d32:	f5b3 7f00 	cmp.w	r3, #512	; 0x200
 8004d36:	d03d      	beq.n	8004db4 <arm_rfft_fast_init_f32+0x90>
 8004d38:	d929      	bls.n	8004d8e <arm_rfft_fast_init_f32+0x6a>
 8004d3a:	f5b3 6f80 	cmp.w	r3, #1024	; 0x400
 8004d3e:	d020      	beq.n	8004d82 <arm_rfft_fast_init_f32+0x5e>
 8004d40:	f5b3 6f00 	cmp.w	r3, #2048	; 0x800
 8004d44:	d113      	bne.n	8004d6e <arm_rfft_fast_init_f32+0x4a>
 8004d46:	4921      	ldr	r1, [pc, #132]	; (8004dcc <arm_rfft_fast_init_f32+0xa8>)
 8004d48:	4a21      	ldr	r2, [pc, #132]	; (8004dd0 <arm_rfft_fast_init_f32+0xac>)
 8004d4a:	4b22      	ldr	r3, [pc, #136]	; (8004dd4 <arm_rfft_fast_init_f32+0xb0>)
 8004d4c:	f44f 646e 	mov.w	r4, #3808	; 0xee0
 8004d50:	8184      	strh	r4, [r0, #12]
 8004d52:	6081      	str	r1, [r0, #8]
 8004d54:	6042      	str	r2, [r0, #4]
 8004d56:	6143      	str	r3, [r0, #20]
 8004d58:	2000      	movs	r0, #0
 8004d5a:	b240      	sxtb	r0, r0
 8004d5c:	f85d 4b04 	ldr.w	r4, [sp], #4
 8004d60:	4770      	bx	lr
 8004d62:	2b20      	cmp	r3, #32
 8004d64:	d01c      	beq.n	8004da0 <arm_rfft_fast_init_f32+0x7c>
 8004d66:	2b40      	cmp	r3, #64	; 0x40
 8004d68:	d006      	beq.n	8004d78 <arm_rfft_fast_init_f32+0x54>
 8004d6a:	2b10      	cmp	r3, #16
 8004d6c:	d01d      	beq.n	8004daa <arm_rfft_fast_init_f32+0x86>
 8004d6e:	20ff      	movs	r0, #255	; 0xff
 8004d70:	b240      	sxtb	r0, r0
 8004d72:	f85d 4b04 	ldr.w	r4, [sp], #4
 8004d76:	4770      	bx	lr
 8004d78:	2438      	movs	r4, #56	; 0x38
 8004d7a:	4917      	ldr	r1, [pc, #92]	; (8004dd8 <arm_rfft_fast_init_f32+0xb4>)
 8004d7c:	4a17      	ldr	r2, [pc, #92]	; (8004ddc <arm_rfft_fast_init_f32+0xb8>)
 8004d7e:	4b18      	ldr	r3, [pc, #96]	; (8004de0 <arm_rfft_fast_init_f32+0xbc>)
 8004d80:	e7e6      	b.n	8004d50 <arm_rfft_fast_init_f32+0x2c>
 8004d82:	f44f 64e1 	mov.w	r4, #1800	; 0x708
 8004d86:	4917      	ldr	r1, [pc, #92]	; (8004de4 <arm_rfft_fast_init_f32+0xc0>)
 8004d88:	4a17      	ldr	r2, [pc, #92]	; (8004de8 <arm_rfft_fast_init_f32+0xc4>)
 8004d8a:	4b18      	ldr	r3, [pc, #96]	; (8004dec <arm_rfft_fast_init_f32+0xc8>)
 8004d8c:	e7e0      	b.n	8004d50 <arm_rfft_fast_init_f32+0x2c>
 8004d8e:	f5b3 7f80 	cmp.w	r3, #256	; 0x100
 8004d92:	d1ec      	bne.n	8004d6e <arm_rfft_fast_init_f32+0x4a>
 8004d94:	f44f 74dc 	mov.w	r4, #440	; 0x1b8
 8004d98:	4915      	ldr	r1, [pc, #84]	; (8004df0 <arm_rfft_fast_init_f32+0xcc>)
 8004d9a:	4a16      	ldr	r2, [pc, #88]	; (8004df4 <arm_rfft_fast_init_f32+0xd0>)
 8004d9c:	4b16      	ldr	r3, [pc, #88]	; (8004df8 <arm_rfft_fast_init_f32+0xd4>)
 8004d9e:	e7d7      	b.n	8004d50 <arm_rfft_fast_init_f32+0x2c>
 8004da0:	2430      	movs	r4, #48	; 0x30
 8004da2:	4916      	ldr	r1, [pc, #88]	; (8004dfc <arm_rfft_fast_init_f32+0xd8>)
 8004da4:	4a16      	ldr	r2, [pc, #88]	; (8004e00 <arm_rfft_fast_init_f32+0xdc>)
 8004da6:	4b17      	ldr	r3, [pc, #92]	; (8004e04 <arm_rfft_fast_init_f32+0xe0>)
 8004da8:	e7d2      	b.n	8004d50 <arm_rfft_fast_init_f32+0x2c>
 8004daa:	2414      	movs	r4, #20
 8004dac:	4916      	ldr	r1, [pc, #88]	; (8004e08 <arm_rfft_fast_init_f32+0xe4>)
 8004dae:	4a17      	ldr	r2, [pc, #92]	; (8004e0c <arm_rfft_fast_init_f32+0xe8>)
 8004db0:	4b17      	ldr	r3, [pc, #92]	; (8004e10 <arm_rfft_fast_init_f32+0xec>)
 8004db2:	e7cd      	b.n	8004d50 <arm_rfft_fast_init_f32+0x2c>
 8004db4:	f44f 74e0 	mov.w	r4, #448	; 0x1c0
 8004db8:	4916      	ldr	r1, [pc, #88]	; (8004e14 <arm_rfft_fast_init_f32+0xf0>)
 8004dba:	4a17      	ldr	r2, [pc, #92]	; (8004e18 <arm_rfft_fast_init_f32+0xf4>)
 8004dbc:	4b17      	ldr	r3, [pc, #92]	; (8004e1c <arm_rfft_fast_init_f32+0xf8>)
 8004dbe:	e7c7      	b.n	8004d50 <arm_rfft_fast_init_f32+0x2c>
 8004dc0:	24d0      	movs	r4, #208	; 0xd0
 8004dc2:	4917      	ldr	r1, [pc, #92]	; (8004e20 <arm_rfft_fast_init_f32+0xfc>)
 8004dc4:	4a17      	ldr	r2, [pc, #92]	; (8004e24 <arm_rfft_fast_init_f32+0x100>)
 8004dc6:	4b18      	ldr	r3, [pc, #96]	; (8004e28 <arm_rfft_fast_init_f32+0x104>)
 8004dc8:	e7c2      	b.n	8004d50 <arm_rfft_fast_init_f32+0x2c>
 8004dca:	bf00      	nop
 8004dcc:	08018404 	.word	0x08018404
 8004dd0:	08008df8 	.word	0x08008df8
 8004dd4:	0800ef68 	.word	0x0800ef68
 8004dd8:	0800cef8 	.word	0x0800cef8
 8004ddc:	0801a1c4 	.word	0x0801a1c4
 8004de0:	0801c6b4 	.word	0x0801c6b4
 8004de4:	080158e8 	.word	0x080158e8
 8004de8:	080137e8 	.word	0x080137e8
 8004dec:	0800cf68 	.word	0x0800cf68
 8004df0:	0801c344 	.word	0x0801c344
 8004df4:	08012f68 	.word	0x08012f68
 8004df8:	0801a3c4 	.word	0x0801a3c4
 8004dfc:	080167a0 	.word	0x080167a0
 8004e00:	080157e8 	.word	0x080157e8
 8004e04:	0800cdf8 	.word	0x0800cdf8
 8004e08:	080166f8 	.word	0x080166f8
 8004e0c:	08013768 	.word	0x08013768
 8004e10:	08016720 	.word	0x08016720
 8004e14:	0801abc4 	.word	0x0801abc4
 8004e18:	08017404 	.word	0x08017404
 8004e1c:	0801af44 	.word	0x0801af44
 8004e20:	0801c8b4 	.word	0x0801c8b4
 8004e24:	08017004 	.word	0x08017004
 8004e28:	0801bf44 	.word	0x0801bf44

08004e2c <arm_rfft_fast_f32>:
 8004e2c:	e92d 41f0 	stmdb	sp!, {r4, r5, r6, r7, r8, lr}
 8004e30:	8a06      	ldrh	r6, [r0, #16]
 8004e32:	0876      	lsrs	r6, r6, #1
 8004e34:	4607      	mov	r7, r0
 8004e36:	4615      	mov	r5, r2
 8004e38:	8006      	strh	r6, [r0, #0]
 8004e3a:	460c      	mov	r4, r1
 8004e3c:	2b00      	cmp	r3, #0
 8004e3e:	d15c      	bne.n	8004efa <arm_rfft_fast_f32+0xce>
 8004e40:	461a      	mov	r2, r3
 8004e42:	2301      	movs	r3, #1
 8004e44:	f000 fbe6 	bl	8005614 <arm_cfft_f32>
 8004e48:	edd4 7a00 	vldr	s15, [r4]
 8004e4c:	ed94 7a01 	vldr	s14, [r4, #4]
 8004e50:	883e      	ldrh	r6, [r7, #0]
 8004e52:	6978      	ldr	r0, [r7, #20]
 8004e54:	ee37 7a07 	vadd.f32	s14, s14, s14
 8004e58:	ee77 7aa7 	vadd.f32	s15, s15, s15
 8004e5c:	eef6 3a00 	vmov.f32	s7, #96	; 0x3f000000  0.5
 8004e60:	ee77 6a87 	vadd.f32	s13, s15, s14
 8004e64:	ee77 7ac7 	vsub.f32	s15, s15, s14
 8004e68:	3e01      	subs	r6, #1
 8004e6a:	ee26 7aa3 	vmul.f32	s14, s13, s7
 8004e6e:	ee67 7aa3 	vmul.f32	s15, s15, s7
 8004e72:	eb04 03c6 	add.w	r3, r4, r6, lsl #3
 8004e76:	ed85 7a00 	vstr	s14, [r5]
 8004e7a:	edc5 7a01 	vstr	s15, [r5, #4]
 8004e7e:	3010      	adds	r0, #16
 8004e80:	f105 0210 	add.w	r2, r5, #16
 8004e84:	3b08      	subs	r3, #8
 8004e86:	f104 0110 	add.w	r1, r4, #16
 8004e8a:	ed51 4a02 	vldr	s9, [r1, #-8]
 8004e8e:	ed93 5a02 	vldr	s10, [r3, #8]
 8004e92:	ed11 7a01 	vldr	s14, [r1, #-4]
 8004e96:	ed10 6a02 	vldr	s12, [r0, #-8]
 8004e9a:	edd3 5a03 	vldr	s11, [r3, #12]
 8004e9e:	ed50 6a01 	vldr	s13, [r0, #-4]
 8004ea2:	ee75 7a64 	vsub.f32	s15, s10, s9
 8004ea6:	ee35 4a87 	vadd.f32	s8, s11, s14
 8004eaa:	ee35 5a24 	vadd.f32	s10, s10, s9
 8004eae:	ee77 5a65 	vsub.f32	s11, s14, s11
 8004eb2:	ee66 4a27 	vmul.f32	s9, s12, s15
 8004eb6:	ee26 7aa7 	vmul.f32	s14, s13, s15
 8004eba:	ee34 5a85 	vadd.f32	s10, s9, s10
 8004ebe:	ee26 6a04 	vmul.f32	s12, s12, s8
 8004ec2:	ee66 6a84 	vmul.f32	s13, s13, s8
 8004ec6:	ee77 7a25 	vadd.f32	s15, s14, s11
 8004eca:	ee76 6a85 	vadd.f32	s13, s13, s10
 8004ece:	ee77 7ac6 	vsub.f32	s15, s15, s12
 8004ed2:	ee66 6aa3 	vmul.f32	s13, s13, s7
 8004ed6:	ee67 7aa3 	vmul.f32	s15, s15, s7
 8004eda:	3e01      	subs	r6, #1
 8004edc:	ed42 6a02 	vstr	s13, [r2, #-8]
 8004ee0:	ed42 7a01 	vstr	s15, [r2, #-4]
 8004ee4:	f1a3 0308 	sub.w	r3, r3, #8
 8004ee8:	f101 0108 	add.w	r1, r1, #8
 8004eec:	f100 0008 	add.w	r0, r0, #8
 8004ef0:	f102 0208 	add.w	r2, r2, #8
 8004ef4:	d1c9      	bne.n	8004e8a <arm_rfft_fast_f32+0x5e>
 8004ef6:	e8bd 81f0 	ldmia.w	sp!, {r4, r5, r6, r7, r8, pc}
 8004efa:	edd1 7a00 	vldr	s15, [r1]
 8004efe:	edd1 6a01 	vldr	s13, [r1, #4]
 8004f02:	6941      	ldr	r1, [r0, #20]
 8004f04:	ee37 7aa6 	vadd.f32	s14, s15, s13
 8004f08:	ee77 7ae6 	vsub.f32	s15, s15, s13
 8004f0c:	eef6 3a00 	vmov.f32	s7, #96	; 0x3f000000  0.5
 8004f10:	ee27 7a23 	vmul.f32	s14, s14, s7
 8004f14:	ee67 7aa3 	vmul.f32	s15, s15, s7
 8004f18:	3e01      	subs	r6, #1
 8004f1a:	ed82 7a00 	vstr	s14, [r2]
 8004f1e:	edc2 7a01 	vstr	s15, [r2, #4]
 8004f22:	00f0      	lsls	r0, r6, #3
 8004f24:	b3ee      	cbz	r6, 8004fa2 <arm_rfft_fast_f32+0x176>
 8004f26:	3808      	subs	r0, #8
 8004f28:	f101 0e10 	add.w	lr, r1, #16
 8004f2c:	4420      	add	r0, r4
 8004f2e:	f104 0110 	add.w	r1, r4, #16
 8004f32:	f102 0c10 	add.w	ip, r2, #16
 8004f36:	ed90 7a02 	vldr	s14, [r0, #8]
 8004f3a:	ed51 6a02 	vldr	s13, [r1, #-8]
 8004f3e:	ed1e 6a02 	vldr	s12, [lr, #-8]
 8004f42:	ed90 4a03 	vldr	s8, [r0, #12]
 8004f46:	ed11 5a01 	vldr	s10, [r1, #-4]
 8004f4a:	ed5e 5a01 	vldr	s11, [lr, #-4]
 8004f4e:	ee76 7ac7 	vsub.f32	s15, s13, s14
 8004f52:	ee74 4a05 	vadd.f32	s9, s8, s10
 8004f56:	ee26 3a27 	vmul.f32	s6, s12, s15
 8004f5a:	ee77 6a26 	vadd.f32	s13, s14, s13
 8004f5e:	ee35 5a44 	vsub.f32	s10, s10, s8
 8004f62:	ee25 7aa7 	vmul.f32	s14, s11, s15
 8004f66:	ee76 6ac3 	vsub.f32	s13, s13, s6
 8004f6a:	ee77 7a05 	vadd.f32	s15, s14, s10
 8004f6e:	ee26 6a24 	vmul.f32	s12, s12, s9
 8004f72:	ee65 5aa4 	vmul.f32	s11, s11, s9
 8004f76:	ee77 7ac6 	vsub.f32	s15, s15, s12
 8004f7a:	ee36 7ae5 	vsub.f32	s14, s13, s11
 8004f7e:	ee67 7aa3 	vmul.f32	s15, s15, s7
 8004f82:	ee27 7a23 	vmul.f32	s14, s14, s7
 8004f86:	3e01      	subs	r6, #1
 8004f88:	ed0c 7a02 	vstr	s14, [ip, #-8]
 8004f8c:	ed4c 7a01 	vstr	s15, [ip, #-4]
 8004f90:	f1a0 0008 	sub.w	r0, r0, #8
 8004f94:	f101 0108 	add.w	r1, r1, #8
 8004f98:	f10e 0e08 	add.w	lr, lr, #8
 8004f9c:	f10c 0c08 	add.w	ip, ip, #8
 8004fa0:	d1c9      	bne.n	8004f36 <arm_rfft_fast_f32+0x10a>
 8004fa2:	4638      	mov	r0, r7
 8004fa4:	4629      	mov	r1, r5
 8004fa6:	461a      	mov	r2, r3
 8004fa8:	e8bd 41f0 	ldmia.w	sp!, {r4, r5, r6, r7, r8, lr}
 8004fac:	2301      	movs	r3, #1
 8004fae:	f000 bb31 	b.w	8005614 <arm_cfft_f32>
 8004fb2:	bf00      	nop

08004fb4 <arm_cfft_radix8by2_f32>:
 8004fb4:	e92d 41f0 	stmdb	sp!, {r4, r5, r6, r7, r8, lr}
 8004fb8:	ed2d 8b08 	vpush	{d8-d11}
 8004fbc:	f8b0 e000 	ldrh.w	lr, [r0]
 8004fc0:	6842      	ldr	r2, [r0, #4]
 8004fc2:	ea4f 0c5e 	mov.w	ip, lr, lsr #1
 8004fc6:	eb01 088e 	add.w	r8, r1, lr, lsl #2
 8004fca:	ea5f 0ede 	movs.w	lr, lr, lsr #3
 8004fce:	4607      	mov	r7, r0
 8004fd0:	ea4f 038c 	mov.w	r3, ip, lsl #2
 8004fd4:	f000 80af 	beq.w	8005136 <arm_cfft_radix8by2_f32+0x182>
 8004fd8:	3310      	adds	r3, #16
 8004fda:	18ce      	adds	r6, r1, r3
 8004fdc:	3210      	adds	r2, #16
 8004fde:	4443      	add	r3, r8
 8004fe0:	f101 0510 	add.w	r5, r1, #16
 8004fe4:	f108 0410 	add.w	r4, r8, #16
 8004fe8:	ed54 1a04 	vldr	s3, [r4, #-16]
 8004fec:	ed13 4a04 	vldr	s8, [r3, #-16]
 8004ff0:	ed53 3a03 	vldr	s7, [r3, #-12]
 8004ff4:	ed53 5a02 	vldr	s11, [r3, #-8]
 8004ff8:	ed13 5a01 	vldr	s10, [r3, #-4]
 8004ffc:	ed54 6a03 	vldr	s13, [r4, #-12]
 8005000:	ed14 0a02 	vldr	s0, [r4, #-8]
 8005004:	ed16 2a04 	vldr	s4, [r6, #-16]
 8005008:	ed56 2a03 	vldr	s5, [r6, #-12]
 800500c:	ed15 6a03 	vldr	s12, [r5, #-12]
 8005010:	ed15 7a01 	vldr	s14, [r5, #-4]
 8005014:	ed15 3a04 	vldr	s6, [r5, #-16]
 8005018:	ed54 7a01 	vldr	s15, [r4, #-4]
 800501c:	ed56 0a02 	vldr	s1, [r6, #-8]
 8005020:	ed16 1a01 	vldr	s2, [r6, #-4]
 8005024:	ed55 4a02 	vldr	s9, [r5, #-8]
 8005028:	ee73 ba21 	vadd.f32	s23, s6, s3
 800502c:	ee36 ba26 	vadd.f32	s22, s12, s13
 8005030:	ee37 aa27 	vadd.f32	s20, s14, s15
 8005034:	ee72 9a04 	vadd.f32	s19, s4, s8
 8005038:	ee32 9aa3 	vadd.f32	s18, s5, s7
 800503c:	ee31 8a05 	vadd.f32	s16, s2, s10
 8005040:	ee74 aa80 	vadd.f32	s21, s9, s0
 8005044:	ee70 8aa5 	vadd.f32	s17, s1, s11
 8005048:	ed45 ba04 	vstr	s23, [r5, #-16]
 800504c:	ed05 ba03 	vstr	s22, [r5, #-12]
 8005050:	ed45 aa02 	vstr	s21, [r5, #-8]
 8005054:	ed05 aa01 	vstr	s20, [r5, #-4]
 8005058:	ed06 8a01 	vstr	s16, [r6, #-4]
 800505c:	ed46 9a04 	vstr	s19, [r6, #-16]
 8005060:	ed06 9a03 	vstr	s18, [r6, #-12]
 8005064:	ed46 8a02 	vstr	s17, [r6, #-8]
 8005068:	ee76 6a66 	vsub.f32	s13, s12, s13
 800506c:	ee73 3ae2 	vsub.f32	s7, s7, s5
 8005070:	ed12 6a03 	vldr	s12, [r2, #-12]
 8005074:	ed52 2a04 	vldr	s5, [r2, #-16]
 8005078:	ee33 3a61 	vsub.f32	s6, s6, s3
 800507c:	ee34 4a42 	vsub.f32	s8, s8, s4
 8005080:	ee26 8a86 	vmul.f32	s16, s13, s12
 8005084:	ee24 2a06 	vmul.f32	s4, s8, s12
 8005088:	ee63 1a22 	vmul.f32	s3, s6, s5
 800508c:	ee24 4a22 	vmul.f32	s8, s8, s5
 8005090:	ee23 3a06 	vmul.f32	s6, s6, s12
 8005094:	ee66 6aa2 	vmul.f32	s13, s13, s5
 8005098:	ee23 6a86 	vmul.f32	s12, s7, s12
 800509c:	ee63 3aa2 	vmul.f32	s7, s7, s5
 80050a0:	ee36 6a04 	vadd.f32	s12, s12, s8
 80050a4:	ee76 6ac3 	vsub.f32	s13, s13, s6
 80050a8:	ee72 3a63 	vsub.f32	s7, s4, s7
 80050ac:	ee71 2a88 	vadd.f32	s5, s3, s16
 80050b0:	ed44 6a03 	vstr	s13, [r4, #-12]
 80050b4:	ed44 2a04 	vstr	s5, [r4, #-16]
 80050b8:	ed43 3a04 	vstr	s7, [r3, #-16]
 80050bc:	ed03 6a03 	vstr	s12, [r3, #-12]
 80050c0:	ee77 7a67 	vsub.f32	s15, s14, s15
 80050c4:	ee75 6ae0 	vsub.f32	s13, s11, s1
 80050c8:	ed12 7a01 	vldr	s14, [r2, #-4]
 80050cc:	ed52 5a02 	vldr	s11, [r2, #-8]
 80050d0:	ee35 6a41 	vsub.f32	s12, s10, s2
 80050d4:	ee74 4ac0 	vsub.f32	s9, s9, s0
 80050d8:	ee67 3a87 	vmul.f32	s7, s15, s14
 80050dc:	ee26 5a87 	vmul.f32	s10, s13, s14
 80050e0:	ee24 4aa5 	vmul.f32	s8, s9, s11
 80050e4:	ee67 7aa5 	vmul.f32	s15, s15, s11
 80050e8:	ee64 4a87 	vmul.f32	s9, s9, s14
 80050ec:	ee66 6aa5 	vmul.f32	s13, s13, s11
 80050f0:	ee26 7a07 	vmul.f32	s14, s12, s14
 80050f4:	ee26 6a25 	vmul.f32	s12, s12, s11
 80050f8:	ee77 7ae4 	vsub.f32	s15, s15, s9
 80050fc:	ee74 5a23 	vadd.f32	s11, s8, s7
 8005100:	ee35 6a46 	vsub.f32	s12, s10, s12
 8005104:	ee37 7a26 	vadd.f32	s14, s14, s13
 8005108:	f1be 0e01 	subs.w	lr, lr, #1
 800510c:	ed44 5a02 	vstr	s11, [r4, #-8]
 8005110:	f105 0510 	add.w	r5, r5, #16
 8005114:	ed44 7a01 	vstr	s15, [r4, #-4]
 8005118:	f106 0610 	add.w	r6, r6, #16
 800511c:	ed03 6a02 	vstr	s12, [r3, #-8]
 8005120:	ed03 7a01 	vstr	s14, [r3, #-4]
 8005124:	f102 0210 	add.w	r2, r2, #16
 8005128:	f104 0410 	add.w	r4, r4, #16
 800512c:	f103 0310 	add.w	r3, r3, #16
 8005130:	f47f af5a 	bne.w	8004fe8 <arm_cfft_radix8by2_f32+0x34>
 8005134:	687a      	ldr	r2, [r7, #4]
 8005136:	fa1f f48c 	uxth.w	r4, ip
 800513a:	4608      	mov	r0, r1
 800513c:	2302      	movs	r3, #2
 800513e:	4621      	mov	r1, r4
 8005140:	f000 fc86 	bl	8005a50 <arm_radix8_butterfly_f32>
 8005144:	ecbd 8b08 	vpop	{d8-d11}
 8005148:	4640      	mov	r0, r8
 800514a:	4621      	mov	r1, r4
 800514c:	687a      	ldr	r2, [r7, #4]
 800514e:	2302      	movs	r3, #2
 8005150:	e8bd 41f0 	ldmia.w	sp!, {r4, r5, r6, r7, r8, lr}
 8005154:	f000 bc7c 	b.w	8005a50 <arm_radix8_butterfly_f32>

08005158 <arm_cfft_radix8by4_f32>:
 8005158:	e92d 4ff0 	stmdb	sp!, {r4, r5, r6, r7, r8, r9, sl, fp, lr}
 800515c:	ed2d 8b0a 	vpush	{d8-d12}
 8005160:	8802      	ldrh	r2, [r0, #0]
 8005162:	ed91 6a00 	vldr	s12, [r1]
 8005166:	b08f      	sub	sp, #60	; 0x3c
 8005168:	460f      	mov	r7, r1
 800516a:	0852      	lsrs	r2, r2, #1
 800516c:	0093      	lsls	r3, r2, #2
 800516e:	900c      	str	r0, [sp, #48]	; 0x30
 8005170:	9103      	str	r1, [sp, #12]
 8005172:	6841      	ldr	r1, [r0, #4]
 8005174:	ed97 7a01 	vldr	s14, [r7, #4]
 8005178:	4638      	mov	r0, r7
 800517a:	4418      	add	r0, r3
 800517c:	4606      	mov	r6, r0
 800517e:	9009      	str	r0, [sp, #36]	; 0x24
 8005180:	4418      	add	r0, r3
 8005182:	edd0 6a00 	vldr	s13, [r0]
 8005186:	edd6 3a00 	vldr	s7, [r6]
 800518a:	edd6 2a01 	vldr	s5, [r6, #4]
 800518e:	edd0 7a01 	vldr	s15, [r0, #4]
 8005192:	900a      	str	r0, [sp, #40]	; 0x28
 8005194:	ee76 5a26 	vadd.f32	s11, s12, s13
 8005198:	4604      	mov	r4, r0
 800519a:	4625      	mov	r5, r4
 800519c:	441c      	add	r4, r3
 800519e:	ed94 4a00 	vldr	s8, [r4]
 80051a2:	ed94 5a01 	vldr	s10, [r4, #4]
 80051a6:	9401      	str	r4, [sp, #4]
 80051a8:	ee75 4aa3 	vadd.f32	s9, s11, s7
 80051ac:	4630      	mov	r0, r6
 80051ae:	ee74 4a24 	vadd.f32	s9, s8, s9
 80051b2:	463e      	mov	r6, r7
 80051b4:	ee14 ea90 	vmov	lr, s9
 80051b8:	ee76 6a66 	vsub.f32	s13, s12, s13
 80051bc:	f846 eb08 	str.w	lr, [r6], #8
 80051c0:	ee37 6a27 	vadd.f32	s12, s14, s15
 80051c4:	edd0 4a01 	vldr	s9, [r0, #4]
 80051c8:	9604      	str	r6, [sp, #16]
 80051ca:	ee77 7a67 	vsub.f32	s15, s14, s15
 80051ce:	9e01      	ldr	r6, [sp, #4]
 80051d0:	ee32 3aa6 	vadd.f32	s6, s5, s13
 80051d4:	ed96 2a01 	vldr	s4, [r6, #4]
 80051d8:	ee36 7a24 	vadd.f32	s14, s12, s9
 80051dc:	ee75 5ae3 	vsub.f32	s11, s11, s7
 80051e0:	ee77 4ae3 	vsub.f32	s9, s15, s7
 80051e4:	ee36 6a62 	vsub.f32	s12, s12, s5
 80051e8:	ee77 7aa3 	vadd.f32	s15, s15, s7
 80051ec:	ee76 6ae2 	vsub.f32	s13, s13, s5
 80051f0:	ee73 3a45 	vsub.f32	s7, s6, s10
 80051f4:	4604      	mov	r4, r0
 80051f6:	ee36 6a45 	vsub.f32	s12, s12, s10
 80051fa:	ee75 6a26 	vadd.f32	s13, s10, s13
 80051fe:	46a3      	mov	fp, r4
 8005200:	ee37 7a02 	vadd.f32	s14, s14, s4
 8005204:	ee34 5a84 	vadd.f32	s10, s9, s8
 8005208:	ee13 8a90 	vmov	r8, s7
 800520c:	46a4      	mov	ip, r4
 800520e:	ee75 5ac4 	vsub.f32	s11, s11, s8
 8005212:	ed87 7a01 	vstr	s14, [r7, #4]
 8005216:	f84b 8b08 	str.w	r8, [fp], #8
 800521a:	f1ac 0704 	sub.w	r7, ip, #4
 800521e:	ed8c 5a01 	vstr	s10, [ip, #4]
 8005222:	f101 0c08 	add.w	ip, r1, #8
 8005226:	462c      	mov	r4, r5
 8005228:	f8cd c014 	str.w	ip, [sp, #20]
 800522c:	ee15 ca90 	vmov	ip, s11
 8005230:	f844 cb08 	str.w	ip, [r4], #8
 8005234:	9407      	str	r4, [sp, #28]
 8005236:	f101 0410 	add.w	r4, r1, #16
 800523a:	ed85 6a01 	vstr	s12, [r5, #4]
 800523e:	0852      	lsrs	r2, r2, #1
 8005240:	9402      	str	r4, [sp, #8]
 8005242:	462c      	mov	r4, r5
 8005244:	f101 0518 	add.w	r5, r1, #24
 8005248:	920b      	str	r2, [sp, #44]	; 0x2c
 800524a:	46b2      	mov	sl, r6
 800524c:	9506      	str	r5, [sp, #24]
 800524e:	ee77 7ac4 	vsub.f32	s15, s15, s8
 8005252:	3a02      	subs	r2, #2
 8005254:	ee16 5a90 	vmov	r5, s13
 8005258:	46b6      	mov	lr, r6
 800525a:	4630      	mov	r0, r6
 800525c:	0852      	lsrs	r2, r2, #1
 800525e:	f84a 5b08 	str.w	r5, [sl], #8
 8005262:	f1a0 0604 	sub.w	r6, r0, #4
 8005266:	edce 7a01 	vstr	s15, [lr, #4]
 800526a:	9208      	str	r2, [sp, #32]
 800526c:	f000 8130 	beq.w	80054d0 <arm_cfft_radix8by4_f32+0x378>
 8005270:	4691      	mov	r9, r2
 8005272:	9a03      	ldr	r2, [sp, #12]
 8005274:	f8dd 8008 	ldr.w	r8, [sp, #8]
 8005278:	f8cd a034 	str.w	sl, [sp, #52]	; 0x34
 800527c:	3b08      	subs	r3, #8
 800527e:	f102 0510 	add.w	r5, r2, #16
 8005282:	f101 0c20 	add.w	ip, r1, #32
 8005286:	f1a4 020c 	sub.w	r2, r4, #12
 800528a:	f101 0e30 	add.w	lr, r1, #48	; 0x30
 800528e:	4433      	add	r3, r6
 8005290:	3410      	adds	r4, #16
 8005292:	4650      	mov	r0, sl
 8005294:	4659      	mov	r1, fp
 8005296:	ed55 3a02 	vldr	s7, [r5, #-8]
 800529a:	ed14 5a02 	vldr	s10, [r4, #-8]
 800529e:	ed91 7a00 	vldr	s14, [r1]
 80052a2:	edd0 7a00 	vldr	s15, [r0]
 80052a6:	ed15 4a01 	vldr	s8, [r5, #-4]
 80052aa:	ed54 5a01 	vldr	s11, [r4, #-4]
 80052ae:	edd0 6a01 	vldr	s13, [r0, #4]
 80052b2:	ed91 6a01 	vldr	s12, [r1, #4]
 80052b6:	ee33 8a85 	vadd.f32	s16, s7, s10
 80052ba:	ee34 0a25 	vadd.f32	s0, s8, s11
 80052be:	ee78 4a07 	vadd.f32	s9, s16, s14
 80052c2:	ee74 5a65 	vsub.f32	s11, s8, s11
 80052c6:	ee77 4aa4 	vadd.f32	s9, s15, s9
 80052ca:	ee33 5ac5 	vsub.f32	s10, s7, s10
 80052ce:	ed45 4a02 	vstr	s9, [r5, #-8]
 80052d2:	edd1 4a01 	vldr	s9, [r1, #4]
 80052d6:	ed90 4a01 	vldr	s8, [r0, #4]
 80052da:	ee70 4a24 	vadd.f32	s9, s0, s9
 80052de:	ee76 aa05 	vadd.f32	s21, s12, s10
 80052e2:	ee74 4a84 	vadd.f32	s9, s9, s8
 80052e6:	ee35 aac7 	vsub.f32	s20, s11, s14
 80052ea:	ed45 4a01 	vstr	s9, [r5, #-4]
 80052ee:	edd6 1a00 	vldr	s3, [r6]
 80052f2:	edd7 0a00 	vldr	s1, [r7]
 80052f6:	ed92 4a02 	vldr	s8, [r2, #8]
 80052fa:	edd3 3a02 	vldr	s7, [r3, #8]
 80052fe:	ed93 2a01 	vldr	s4, [r3, #4]
 8005302:	ed16 1a01 	vldr	s2, [r6, #-4]
 8005306:	edd2 2a01 	vldr	s5, [r2, #4]
 800530a:	ed57 9a01 	vldr	s19, [r7, #-4]
 800530e:	ee70 4aa1 	vadd.f32	s9, s1, s3
 8005312:	ee39 3a81 	vadd.f32	s6, s19, s2
 8005316:	ee74 8a84 	vadd.f32	s17, s9, s8
 800531a:	ee70 1ae1 	vsub.f32	s3, s1, s3
 800531e:	ee73 8aa8 	vadd.f32	s17, s7, s17
 8005322:	ee7a aae6 	vsub.f32	s21, s21, s13
 8005326:	ee18 aa90 	vmov	sl, s17
 800532a:	f847 a908 	str.w	sl, [r7], #-8
 800532e:	edd2 8a01 	vldr	s17, [r2, #4]
 8005332:	ed93 9a01 	vldr	s18, [r3, #4]
 8005336:	ee73 8a28 	vadd.f32	s17, s6, s17
 800533a:	ee3a aa27 	vadd.f32	s20, s20, s15
 800533e:	ee78 8a89 	vadd.f32	s17, s17, s18
 8005342:	ee74 0a63 	vsub.f32	s1, s8, s7
 8005346:	edc7 8a01 	vstr	s17, [r7, #4]
 800534a:	ed18 ba02 	vldr	s22, [r8, #-8]
 800534e:	ed58 8a01 	vldr	s17, [r8, #-4]
 8005352:	ee39 1ac1 	vsub.f32	s2, s19, s2
 8005356:	ee6a ba28 	vmul.f32	s23, s20, s17
 800535a:	ee2a ca8b 	vmul.f32	s24, s21, s22
 800535e:	ee71 9ae2 	vsub.f32	s19, s3, s5
 8005362:	ee30 9a81 	vadd.f32	s18, s1, s2
 8005366:	ee79 9a82 	vadd.f32	s19, s19, s4
 800536a:	ee3c ca2b 	vadd.f32	s24, s24, s23
 800536e:	ee6a aaa8 	vmul.f32	s21, s21, s17
 8005372:	ee69 baa8 	vmul.f32	s23, s19, s17
 8005376:	ee2a aa0b 	vmul.f32	s20, s20, s22
 800537a:	ee69 9a8b 	vmul.f32	s19, s19, s22
 800537e:	ee69 8a28 	vmul.f32	s17, s18, s17
 8005382:	ee29 ba0b 	vmul.f32	s22, s18, s22
 8005386:	ee1c aa10 	vmov	sl, s24
 800538a:	ee78 8aa9 	vadd.f32	s17, s17, s19
 800538e:	f841 ab08 	str.w	sl, [r1], #8
 8005392:	ee3a aa6a 	vsub.f32	s20, s20, s21
 8005396:	ee3b bacb 	vsub.f32	s22, s23, s22
 800539a:	ee34 4ac4 	vsub.f32	s8, s9, s8
 800539e:	ee33 3a62 	vsub.f32	s6, s6, s5
 80053a2:	ed01 aa01 	vstr	s20, [r1, #-4]
 80053a6:	edc2 8a01 	vstr	s17, [r2, #4]
 80053aa:	ed82 ba02 	vstr	s22, [r2, #8]
 80053ae:	ed5c 4a04 	vldr	s9, [ip, #-16]
 80053b2:	ee74 3a63 	vsub.f32	s7, s8, s7
 80053b6:	ee38 8a47 	vsub.f32	s16, s16, s14
 80053ba:	ed1c 4a03 	vldr	s8, [ip, #-12]
 80053be:	ee30 0a46 	vsub.f32	s0, s0, s12
 80053c2:	ee33 3a42 	vsub.f32	s6, s6, s4
 80053c6:	ee38 8a67 	vsub.f32	s16, s16, s15
 80053ca:	ee30 0a66 	vsub.f32	s0, s0, s13
 80053ce:	ee23 9ae4 	vnmul.f32	s18, s7, s9
 80053d2:	ee63 8a04 	vmul.f32	s17, s6, s8
 80053d6:	ee28 aa24 	vmul.f32	s20, s16, s9
 80053da:	ee60 9a04 	vmul.f32	s19, s0, s8
 80053de:	ee28 8a04 	vmul.f32	s16, s16, s8
 80053e2:	ee20 0a24 	vmul.f32	s0, s0, s9
 80053e6:	ee63 3a84 	vmul.f32	s7, s7, s8
 80053ea:	ee39 4a68 	vsub.f32	s8, s18, s17
 80053ee:	ee7a 9a29 	vadd.f32	s19, s20, s19
 80053f2:	ee14 aa10 	vmov	sl, s8
 80053f6:	ee30 0a48 	vsub.f32	s0, s0, s16
 80053fa:	ee63 4a24 	vmul.f32	s9, s6, s9
 80053fe:	ed44 9a02 	vstr	s19, [r4, #-8]
 8005402:	ee73 3ae4 	vsub.f32	s7, s7, s9
 8005406:	ed04 0a01 	vstr	s0, [r4, #-4]
 800540a:	f846 a908 	str.w	sl, [r6], #-8
 800540e:	ee35 6a46 	vsub.f32	s12, s10, s12
 8005412:	ee35 7a87 	vadd.f32	s14, s11, s14
 8005416:	edc6 3a01 	vstr	s7, [r6, #4]
 800541a:	ee76 6a86 	vadd.f32	s13, s13, s12
 800541e:	ee77 7a67 	vsub.f32	s15, s14, s15
 8005422:	ed1e 6a05 	vldr	s12, [lr, #-20]	; 0xffffffec
 8005426:	ed1e 7a06 	vldr	s14, [lr, #-24]	; 0xffffffe8
 800542a:	ee67 5a86 	vmul.f32	s11, s15, s12
 800542e:	ee26 5a87 	vmul.f32	s10, s13, s14
 8005432:	ee72 2a62 	vsub.f32	s5, s4, s5
 8005436:	ee30 1ac1 	vsub.f32	s2, s1, s2
 800543a:	ee72 2ae1 	vsub.f32	s5, s5, s3
 800543e:	ee75 5a25 	vadd.f32	s11, s10, s11
 8005442:	ee62 0a86 	vmul.f32	s1, s5, s12
 8005446:	ee66 6a86 	vmul.f32	s13, s13, s12
 800544a:	ee67 7a87 	vmul.f32	s15, s15, s14
 800544e:	ee21 6a06 	vmul.f32	s12, s2, s12
 8005452:	ee62 2a87 	vmul.f32	s5, s5, s14
 8005456:	ee21 1a07 	vmul.f32	s2, s2, s14
 800545a:	ee15 aa90 	vmov	sl, s11
 800545e:	ee77 7ae6 	vsub.f32	s15, s15, s13
 8005462:	f840 ab08 	str.w	sl, [r0], #8
 8005466:	ee30 1ac1 	vsub.f32	s2, s1, s2
 800546a:	ee76 2a22 	vadd.f32	s5, s12, s5
 800546e:	f1b9 0901 	subs.w	r9, r9, #1
 8005472:	ed40 7a01 	vstr	s15, [r0, #-4]
 8005476:	f105 0508 	add.w	r5, r5, #8
 800547a:	ed83 1a02 	vstr	s2, [r3, #8]
 800547e:	edc3 2a01 	vstr	s5, [r3, #4]
 8005482:	f108 0808 	add.w	r8, r8, #8
 8005486:	f1a2 0208 	sub.w	r2, r2, #8
 800548a:	f10c 0c10 	add.w	ip, ip, #16
 800548e:	f104 0408 	add.w	r4, r4, #8
 8005492:	f10e 0e18 	add.w	lr, lr, #24
 8005496:	f1a3 0308 	sub.w	r3, r3, #8
 800549a:	f47f aefc 	bne.w	8005296 <arm_cfft_radix8by4_f32+0x13e>
 800549e:	9908      	ldr	r1, [sp, #32]
 80054a0:	9802      	ldr	r0, [sp, #8]
 80054a2:	f8dd a034 	ldr.w	sl, [sp, #52]	; 0x34
 80054a6:	00cb      	lsls	r3, r1, #3
 80054a8:	eb01 0241 	add.w	r2, r1, r1, lsl #1
 80054ac:	eb00 1101 	add.w	r1, r0, r1, lsl #4
 80054b0:	9102      	str	r1, [sp, #8]
 80054b2:	9904      	ldr	r1, [sp, #16]
 80054b4:	4419      	add	r1, r3
 80054b6:	9104      	str	r1, [sp, #16]
 80054b8:	9905      	ldr	r1, [sp, #20]
 80054ba:	4419      	add	r1, r3
 80054bc:	9105      	str	r1, [sp, #20]
 80054be:	9907      	ldr	r1, [sp, #28]
 80054c0:	449b      	add	fp, r3
 80054c2:	4419      	add	r1, r3
 80054c4:	449a      	add	sl, r3
 80054c6:	9b06      	ldr	r3, [sp, #24]
 80054c8:	9107      	str	r1, [sp, #28]
 80054ca:	eb03 03c2 	add.w	r3, r3, r2, lsl #3
 80054ce:	9306      	str	r3, [sp, #24]
 80054d0:	9a04      	ldr	r2, [sp, #16]
 80054d2:	9807      	ldr	r0, [sp, #28]
 80054d4:	edd2 3a00 	vldr	s7, [r2]
 80054d8:	ed90 4a00 	vldr	s8, [r0]
 80054dc:	eddb 7a00 	vldr	s15, [fp]
 80054e0:	ed9a 3a00 	vldr	s6, [sl]
 80054e4:	edd2 4a01 	vldr	s9, [r2, #4]
 80054e8:	ed90 7a01 	vldr	s14, [r0, #4]
 80054ec:	ed9b 2a01 	vldr	s4, [fp, #4]
 80054f0:	edda 5a01 	vldr	s11, [sl, #4]
 80054f4:	f8bd 402c 	ldrh.w	r4, [sp, #44]	; 0x2c
 80054f8:	9e0c      	ldr	r6, [sp, #48]	; 0x30
 80054fa:	ee73 6a84 	vadd.f32	s13, s7, s8
 80054fe:	ee34 6a87 	vadd.f32	s12, s9, s14
 8005502:	ee36 5aa7 	vadd.f32	s10, s13, s15
 8005506:	ee34 7ac7 	vsub.f32	s14, s9, s14
 800550a:	ee33 5a05 	vadd.f32	s10, s6, s10
 800550e:	ee33 4ac4 	vsub.f32	s8, s7, s8
 8005512:	ed82 5a00 	vstr	s10, [r2]
 8005516:	ed9b 5a01 	vldr	s10, [fp, #4]
 800551a:	edda 4a01 	vldr	s9, [sl, #4]
 800551e:	ee36 5a05 	vadd.f32	s10, s12, s10
 8005522:	ee72 3a04 	vadd.f32	s7, s4, s8
 8005526:	ee35 5a24 	vadd.f32	s10, s10, s9
 800552a:	ee77 4a67 	vsub.f32	s9, s14, s15
 800552e:	ed82 5a01 	vstr	s10, [r2, #4]
 8005532:	9a05      	ldr	r2, [sp, #20]
 8005534:	ee34 5a83 	vadd.f32	s10, s9, s6
 8005538:	edd2 1a00 	vldr	s3, [r2]
 800553c:	edd2 2a01 	vldr	s5, [r2, #4]
 8005540:	9a02      	ldr	r2, [sp, #8]
 8005542:	ee73 3ae5 	vsub.f32	s7, s7, s11
 8005546:	ee36 6a42 	vsub.f32	s12, s12, s4
 800554a:	ee63 4aa1 	vmul.f32	s9, s7, s3
 800554e:	ee63 3aa2 	vmul.f32	s7, s7, s5
 8005552:	ee65 2a22 	vmul.f32	s5, s10, s5
 8005556:	ee25 5a21 	vmul.f32	s10, s10, s3
 800555a:	ee74 2aa2 	vadd.f32	s5, s9, s5
 800555e:	ee35 5a63 	vsub.f32	s10, s10, s7
 8005562:	ee76 6ae7 	vsub.f32	s13, s13, s15
 8005566:	edcb 2a00 	vstr	s5, [fp]
 800556a:	ed8b 5a01 	vstr	s10, [fp, #4]
 800556e:	edd2 3a01 	vldr	s7, [r2, #4]
 8005572:	ed92 5a00 	vldr	s10, [r2]
 8005576:	9a06      	ldr	r2, [sp, #24]
 8005578:	ee76 6ac3 	vsub.f32	s13, s13, s6
 800557c:	ee36 6a65 	vsub.f32	s12, s12, s11
 8005580:	ee66 4a85 	vmul.f32	s9, s13, s10
 8005584:	ee26 5a05 	vmul.f32	s10, s12, s10
 8005588:	ee66 6aa3 	vmul.f32	s13, s13, s7
 800558c:	ee26 6a23 	vmul.f32	s12, s12, s7
 8005590:	ee75 6a66 	vsub.f32	s13, s10, s13
 8005594:	ee34 6a86 	vadd.f32	s12, s9, s12
 8005598:	ee34 4a42 	vsub.f32	s8, s8, s4
 800559c:	ee37 7a27 	vadd.f32	s14, s14, s15
 80055a0:	edc0 6a01 	vstr	s13, [r0, #4]
 80055a4:	ed80 6a00 	vstr	s12, [r0]
 80055a8:	ed92 6a01 	vldr	s12, [r2, #4]
 80055ac:	9803      	ldr	r0, [sp, #12]
 80055ae:	ee77 7a43 	vsub.f32	s15, s14, s6
 80055b2:	ee75 5a84 	vadd.f32	s11, s11, s8
 80055b6:	ed92 7a00 	vldr	s14, [r2]
 80055ba:	ee65 6a87 	vmul.f32	s13, s11, s14
 80055be:	ee27 7a87 	vmul.f32	s14, s15, s14
 80055c2:	ee65 5a86 	vmul.f32	s11, s11, s12
 80055c6:	ee67 7a86 	vmul.f32	s15, s15, s12
 80055ca:	ee77 5a65 	vsub.f32	s11, s14, s11
 80055ce:	ee76 7aa7 	vadd.f32	s15, s13, s15
 80055d2:	edca 5a01 	vstr	s11, [sl, #4]
 80055d6:	edca 7a00 	vstr	s15, [sl]
 80055da:	6872      	ldr	r2, [r6, #4]
 80055dc:	4621      	mov	r1, r4
 80055de:	2304      	movs	r3, #4
 80055e0:	f000 fa36 	bl	8005a50 <arm_radix8_butterfly_f32>
 80055e4:	9809      	ldr	r0, [sp, #36]	; 0x24
 80055e6:	6872      	ldr	r2, [r6, #4]
 80055e8:	4621      	mov	r1, r4
 80055ea:	2304      	movs	r3, #4
 80055ec:	f000 fa30 	bl	8005a50 <arm_radix8_butterfly_f32>
 80055f0:	980a      	ldr	r0, [sp, #40]	; 0x28
 80055f2:	6872      	ldr	r2, [r6, #4]
 80055f4:	4621      	mov	r1, r4
 80055f6:	2304      	movs	r3, #4
 80055f8:	f000 fa2a 	bl	8005a50 <arm_radix8_butterfly_f32>
 80055fc:	9801      	ldr	r0, [sp, #4]
 80055fe:	6872      	ldr	r2, [r6, #4]
 8005600:	4621      	mov	r1, r4
 8005602:	2304      	movs	r3, #4
 8005604:	b00f      	add	sp, #60	; 0x3c
 8005606:	ecbd 8b0a 	vpop	{d8-d12}
 800560a:	e8bd 4ff0 	ldmia.w	sp!, {r4, r5, r6, r7, r8, r9, sl, fp, lr}
 800560e:	f000 ba1f 	b.w	8005a50 <arm_radix8_butterfly_f32>
 8005612:	bf00      	nop

08005614 <arm_cfft_f32>:
 8005614:	e92d 41f0 	stmdb	sp!, {r4, r5, r6, r7, r8, lr}
 8005618:	2a01      	cmp	r2, #1
 800561a:	4606      	mov	r6, r0
 800561c:	4617      	mov	r7, r2
 800561e:	460c      	mov	r4, r1
 8005620:	4698      	mov	r8, r3
 8005622:	8805      	ldrh	r5, [r0, #0]
 8005624:	d054      	beq.n	80056d0 <arm_cfft_f32+0xbc>
 8005626:	f5b5 7f80 	cmp.w	r5, #256	; 0x100
 800562a:	d04c      	beq.n	80056c6 <arm_cfft_f32+0xb2>
 800562c:	d916      	bls.n	800565c <arm_cfft_f32+0x48>
 800562e:	f5b5 6f80 	cmp.w	r5, #1024	; 0x400
 8005632:	d01a      	beq.n	800566a <arm_cfft_f32+0x56>
 8005634:	d95c      	bls.n	80056f0 <arm_cfft_f32+0xdc>
 8005636:	f5b5 6f00 	cmp.w	r5, #2048	; 0x800
 800563a:	d044      	beq.n	80056c6 <arm_cfft_f32+0xb2>
 800563c:	f5b5 5f80 	cmp.w	r5, #4096	; 0x1000
 8005640:	d105      	bne.n	800564e <arm_cfft_f32+0x3a>
 8005642:	4620      	mov	r0, r4
 8005644:	4629      	mov	r1, r5
 8005646:	6872      	ldr	r2, [r6, #4]
 8005648:	2301      	movs	r3, #1
 800564a:	f000 fa01 	bl	8005a50 <arm_radix8_butterfly_f32>
 800564e:	f1b8 0f00 	cmp.w	r8, #0
 8005652:	d111      	bne.n	8005678 <arm_cfft_f32+0x64>
 8005654:	2f01      	cmp	r7, #1
 8005656:	d016      	beq.n	8005686 <arm_cfft_f32+0x72>
 8005658:	e8bd 81f0 	ldmia.w	sp!, {r4, r5, r6, r7, r8, pc}
 800565c:	2d20      	cmp	r5, #32
 800565e:	d032      	beq.n	80056c6 <arm_cfft_f32+0xb2>
 8005660:	d94a      	bls.n	80056f8 <arm_cfft_f32+0xe4>
 8005662:	2d40      	cmp	r5, #64	; 0x40
 8005664:	d0ed      	beq.n	8005642 <arm_cfft_f32+0x2e>
 8005666:	2d80      	cmp	r5, #128	; 0x80
 8005668:	d1f1      	bne.n	800564e <arm_cfft_f32+0x3a>
 800566a:	4630      	mov	r0, r6
 800566c:	4621      	mov	r1, r4
 800566e:	f7ff fca1 	bl	8004fb4 <arm_cfft_radix8by2_f32>
 8005672:	f1b8 0f00 	cmp.w	r8, #0
 8005676:	d0ed      	beq.n	8005654 <arm_cfft_f32+0x40>
 8005678:	4620      	mov	r0, r4
 800567a:	89b1      	ldrh	r1, [r6, #12]
 800567c:	68b2      	ldr	r2, [r6, #8]
 800567e:	f7fa fda7 	bl	80001d0 <arm_bitreversal_32>
 8005682:	2f01      	cmp	r7, #1
 8005684:	d1e8      	bne.n	8005658 <arm_cfft_f32+0x44>
 8005686:	ee07 5a90 	vmov	s15, r5
 800568a:	eef8 6a67 	vcvt.f32.u32	s13, s15
 800568e:	eef7 7a00 	vmov.f32	s15, #112	; 0x3f800000  1.0
 8005692:	eec7 6aa6 	vdiv.f32	s13, s15, s13
 8005696:	2d00      	cmp	r5, #0
 8005698:	d0de      	beq.n	8005658 <arm_cfft_f32+0x44>
 800569a:	f104 0108 	add.w	r1, r4, #8
 800569e:	2300      	movs	r3, #0
 80056a0:	3301      	adds	r3, #1
 80056a2:	429d      	cmp	r5, r3
 80056a4:	f101 0108 	add.w	r1, r1, #8
 80056a8:	ed11 7a04 	vldr	s14, [r1, #-16]
 80056ac:	ed51 7a03 	vldr	s15, [r1, #-12]
 80056b0:	ee27 7a26 	vmul.f32	s14, s14, s13
 80056b4:	ee67 7ae6 	vnmul.f32	s15, s15, s13
 80056b8:	ed01 7a04 	vstr	s14, [r1, #-16]
 80056bc:	ed41 7a03 	vstr	s15, [r1, #-12]
 80056c0:	d1ee      	bne.n	80056a0 <arm_cfft_f32+0x8c>
 80056c2:	e8bd 81f0 	ldmia.w	sp!, {r4, r5, r6, r7, r8, pc}
 80056c6:	4630      	mov	r0, r6
 80056c8:	4621      	mov	r1, r4
 80056ca:	f7ff fd45 	bl	8005158 <arm_cfft_radix8by4_f32>
 80056ce:	e7be      	b.n	800564e <arm_cfft_f32+0x3a>
 80056d0:	b1ad      	cbz	r5, 80056fe <arm_cfft_f32+0xea>
 80056d2:	f101 030c 	add.w	r3, r1, #12
 80056d6:	2200      	movs	r2, #0
 80056d8:	ed53 7a02 	vldr	s15, [r3, #-8]
 80056dc:	3201      	adds	r2, #1
 80056de:	eef1 7a67 	vneg.f32	s15, s15
 80056e2:	4295      	cmp	r5, r2
 80056e4:	ed43 7a02 	vstr	s15, [r3, #-8]
 80056e8:	f103 0308 	add.w	r3, r3, #8
 80056ec:	d1f4      	bne.n	80056d8 <arm_cfft_f32+0xc4>
 80056ee:	e79a      	b.n	8005626 <arm_cfft_f32+0x12>
 80056f0:	f5b5 7f00 	cmp.w	r5, #512	; 0x200
 80056f4:	d0a5      	beq.n	8005642 <arm_cfft_f32+0x2e>
 80056f6:	e7aa      	b.n	800564e <arm_cfft_f32+0x3a>
 80056f8:	2d10      	cmp	r5, #16
 80056fa:	d0b6      	beq.n	800566a <arm_cfft_f32+0x56>
 80056fc:	e7a7      	b.n	800564e <arm_cfft_f32+0x3a>
 80056fe:	f5b5 7f80 	cmp.w	r5, #256	; 0x100
 8005702:	d894      	bhi.n	800562e <arm_cfft_f32+0x1a>
 8005704:	e7aa      	b.n	800565c <arm_cfft_f32+0x48>
 8005706:	bf00      	nop

08005708 <arm_cmplx_mag_f32>:
 8005708:	e92d 41f0 	stmdb	sp!, {r4, r5, r6, r7, r8, lr}
 800570c:	ea5f 0892 	movs.w	r8, r2, lsr #2
 8005710:	b084      	sub	sp, #16
 8005712:	d07f      	beq.n	8005814 <arm_cmplx_mag_f32+0x10c>
 8005714:	2700      	movs	r7, #0
 8005716:	f100 0420 	add.w	r4, r0, #32
 800571a:	f101 0510 	add.w	r5, r1, #16
 800571e:	4646      	mov	r6, r8
 8005720:	e05a      	b.n	80057d8 <arm_cmplx_mag_f32+0xd0>
 8005722:	eeb1 0ae7 	vsqrt.f32	s0, s15
 8005726:	eeb4 0a40 	vcmp.f32	s0, s0
 800572a:	eef1 fa10 	vmrs	APSR_nzcv, fpscr
 800572e:	f040 80a4 	bne.w	800587a <arm_cmplx_mag_f32+0x172>
 8005732:	ed05 0a04 	vstr	s0, [r5, #-16]
 8005736:	ed54 7a06 	vldr	s15, [r4, #-24]	; 0xffffffe8
 800573a:	ed14 0a05 	vldr	s0, [r4, #-20]	; 0xffffffec
 800573e:	ee67 7aa7 	vmul.f32	s15, s15, s15
 8005742:	ee20 0a00 	vmul.f32	s0, s0, s0
 8005746:	ee77 7a80 	vadd.f32	s15, s15, s0
 800574a:	eef5 7ac0 	vcmpe.f32	s15, #0.0
 800574e:	eef1 fa10 	vmrs	APSR_nzcv, fpscr
 8005752:	f2c0 808f 	blt.w	8005874 <arm_cmplx_mag_f32+0x16c>
 8005756:	eeb1 0ae7 	vsqrt.f32	s0, s15
 800575a:	eeb4 0a40 	vcmp.f32	s0, s0
 800575e:	eef1 fa10 	vmrs	APSR_nzcv, fpscr
 8005762:	f040 80af 	bne.w	80058c4 <arm_cmplx_mag_f32+0x1bc>
 8005766:	ed05 0a03 	vstr	s0, [r5, #-12]
 800576a:	ed54 7a04 	vldr	s15, [r4, #-16]
 800576e:	ed14 0a03 	vldr	s0, [r4, #-12]
 8005772:	ee67 7aa7 	vmul.f32	s15, s15, s15
 8005776:	ee20 0a00 	vmul.f32	s0, s0, s0
 800577a:	ee77 7a80 	vadd.f32	s15, s15, s0
 800577e:	eef5 7ac0 	vcmpe.f32	s15, #0.0
 8005782:	eef1 fa10 	vmrs	APSR_nzcv, fpscr
 8005786:	db72      	blt.n	800586e <arm_cmplx_mag_f32+0x166>
 8005788:	eeb1 0ae7 	vsqrt.f32	s0, s15
 800578c:	eeb4 0a40 	vcmp.f32	s0, s0
 8005790:	eef1 fa10 	vmrs	APSR_nzcv, fpscr
 8005794:	f040 808c 	bne.w	80058b0 <arm_cmplx_mag_f32+0x1a8>
 8005798:	ed05 0a02 	vstr	s0, [r5, #-8]
 800579c:	ed54 7a02 	vldr	s15, [r4, #-8]
 80057a0:	ed14 0a01 	vldr	s0, [r4, #-4]
 80057a4:	ee67 7aa7 	vmul.f32	s15, s15, s15
 80057a8:	ee20 0a00 	vmul.f32	s0, s0, s0
 80057ac:	ee77 7a80 	vadd.f32	s15, s15, s0
 80057b0:	eef5 7ac0 	vcmpe.f32	s15, #0.0
 80057b4:	eef1 fa10 	vmrs	APSR_nzcv, fpscr
 80057b8:	db20      	blt.n	80057fc <arm_cmplx_mag_f32+0xf4>
 80057ba:	eeb1 0ae7 	vsqrt.f32	s0, s15
 80057be:	eeb4 0a40 	vcmp.f32	s0, s0
 80057c2:	eef1 fa10 	vmrs	APSR_nzcv, fpscr
 80057c6:	d169      	bne.n	800589c <arm_cmplx_mag_f32+0x194>
 80057c8:	3e01      	subs	r6, #1
 80057ca:	ed05 0a01 	vstr	s0, [r5, #-4]
 80057ce:	f104 0420 	add.w	r4, r4, #32
 80057d2:	f105 0510 	add.w	r5, r5, #16
 80057d6:	d019      	beq.n	800580c <arm_cmplx_mag_f32+0x104>
 80057d8:	ed54 7a08 	vldr	s15, [r4, #-32]	; 0xffffffe0
 80057dc:	ed14 0a07 	vldr	s0, [r4, #-28]	; 0xffffffe4
 80057e0:	ee67 7aa7 	vmul.f32	s15, s15, s15
 80057e4:	ee20 0a00 	vmul.f32	s0, s0, s0
 80057e8:	ee77 7a80 	vadd.f32	s15, s15, s0
 80057ec:	eef5 7ac0 	vcmpe.f32	s15, #0.0
 80057f0:	eef1 fa10 	vmrs	APSR_nzcv, fpscr
 80057f4:	da95      	bge.n	8005722 <arm_cmplx_mag_f32+0x1a>
 80057f6:	f845 7c10 	str.w	r7, [r5, #-16]
 80057fa:	e79c      	b.n	8005736 <arm_cmplx_mag_f32+0x2e>
 80057fc:	3e01      	subs	r6, #1
 80057fe:	f845 7c04 	str.w	r7, [r5, #-4]
 8005802:	f104 0420 	add.w	r4, r4, #32
 8005806:	f105 0510 	add.w	r5, r5, #16
 800580a:	d1e5      	bne.n	80057d8 <arm_cmplx_mag_f32+0xd0>
 800580c:	eb00 1048 	add.w	r0, r0, r8, lsl #5
 8005810:	eb01 1108 	add.w	r1, r1, r8, lsl #4
 8005814:	f012 0503 	ands.w	r5, r2, #3
 8005818:	d026      	beq.n	8005868 <arm_cmplx_mag_f32+0x160>
 800581a:	2600      	movs	r6, #0
 800581c:	f100 0408 	add.w	r4, r0, #8
 8005820:	e00c      	b.n	800583c <arm_cmplx_mag_f32+0x134>
 8005822:	eeb1 0ae7 	vsqrt.f32	s0, s15
 8005826:	eeb4 0a40 	vcmp.f32	s0, s0
 800582a:	eef1 fa10 	vmrs	APSR_nzcv, fpscr
 800582e:	d12e      	bne.n	800588e <arm_cmplx_mag_f32+0x186>
 8005830:	3d01      	subs	r5, #1
 8005832:	ed01 0a01 	vstr	s0, [r1, #-4]
 8005836:	f104 0408 	add.w	r4, r4, #8
 800583a:	d015      	beq.n	8005868 <arm_cmplx_mag_f32+0x160>
 800583c:	ed54 7a02 	vldr	s15, [r4, #-8]
 8005840:	ed14 0a01 	vldr	s0, [r4, #-4]
 8005844:	ee67 7aa7 	vmul.f32	s15, s15, s15
 8005848:	ee20 0a00 	vmul.f32	s0, s0, s0
 800584c:	3104      	adds	r1, #4
 800584e:	ee77 7a80 	vadd.f32	s15, s15, s0
 8005852:	eef5 7ac0 	vcmpe.f32	s15, #0.0
 8005856:	eef1 fa10 	vmrs	APSR_nzcv, fpscr
 800585a:	dae2      	bge.n	8005822 <arm_cmplx_mag_f32+0x11a>
 800585c:	3d01      	subs	r5, #1
 800585e:	f841 6c04 	str.w	r6, [r1, #-4]
 8005862:	f104 0408 	add.w	r4, r4, #8
 8005866:	d1e9      	bne.n	800583c <arm_cmplx_mag_f32+0x134>
 8005868:	b004      	add	sp, #16
 800586a:	e8bd 81f0 	ldmia.w	sp!, {r4, r5, r6, r7, r8, pc}
 800586e:	f845 7c08 	str.w	r7, [r5, #-8]
 8005872:	e793      	b.n	800579c <arm_cmplx_mag_f32+0x94>
 8005874:	f845 7c0c 	str.w	r7, [r5, #-12]
 8005878:	e777      	b.n	800576a <arm_cmplx_mag_f32+0x62>
 800587a:	eeb0 0a67 	vmov.f32	s0, s15
 800587e:	9203      	str	r2, [sp, #12]
 8005880:	9102      	str	r1, [sp, #8]
 8005882:	9001      	str	r0, [sp, #4]
 8005884:	f000 fc3c 	bl	8006100 <sqrtf>
 8005888:	a801      	add	r0, sp, #4
 800588a:	c807      	ldmia	r0, {r0, r1, r2}
 800588c:	e751      	b.n	8005732 <arm_cmplx_mag_f32+0x2a>
 800588e:	eeb0 0a67 	vmov.f32	s0, s15
 8005892:	9101      	str	r1, [sp, #4]
 8005894:	f000 fc34 	bl	8006100 <sqrtf>
 8005898:	9901      	ldr	r1, [sp, #4]
 800589a:	e7c9      	b.n	8005830 <arm_cmplx_mag_f32+0x128>
 800589c:	eeb0 0a67 	vmov.f32	s0, s15
 80058a0:	9203      	str	r2, [sp, #12]
 80058a2:	9102      	str	r1, [sp, #8]
 80058a4:	9001      	str	r0, [sp, #4]
 80058a6:	f000 fc2b 	bl	8006100 <sqrtf>
 80058aa:	a801      	add	r0, sp, #4
 80058ac:	c807      	ldmia	r0, {r0, r1, r2}
 80058ae:	e78b      	b.n	80057c8 <arm_cmplx_mag_f32+0xc0>
 80058b0:	eeb0 0a67 	vmov.f32	s0, s15
 80058b4:	9203      	str	r2, [sp, #12]
 80058b6:	9102      	str	r1, [sp, #8]
 80058b8:	9001      	str	r0, [sp, #4]
 80058ba:	f000 fc21 	bl	8006100 <sqrtf>
 80058be:	a801      	add	r0, sp, #4
 80058c0:	c807      	ldmia	r0, {r0, r1, r2}
 80058c2:	e769      	b.n	8005798 <arm_cmplx_mag_f32+0x90>
 80058c4:	eeb0 0a67 	vmov.f32	s0, s15
 80058c8:	9203      	str	r2, [sp, #12]
 80058ca:	9102      	str	r1, [sp, #8]
 80058cc:	9001      	str	r0, [sp, #4]
 80058ce:	f000 fc17 	bl	8006100 <sqrtf>
 80058d2:	a801      	add	r0, sp, #4
 80058d4:	c807      	ldmia	r0, {r0, r1, r2}
 80058d6:	e746      	b.n	8005766 <arm_cmplx_mag_f32+0x5e>

080058d8 <arm_cos_f32>:
 80058d8:	eddf 7a1c 	vldr	s15, [pc, #112]	; 800594c <arm_cos_f32+0x74>
 80058dc:	ee20 0a27 	vmul.f32	s0, s0, s15
 80058e0:	eef5 7a00 	vmov.f32	s15, #80	; 0x3e800000  0.250
 80058e4:	ee30 0a27 	vadd.f32	s0, s0, s15
 80058e8:	eeb5 0ac0 	vcmpe.f32	s0, #0.0
 80058ec:	eef1 fa10 	vmrs	APSR_nzcv, fpscr
 80058f0:	eefd 7ac0 	vcvt.s32.f32	s15, s0
 80058f4:	d504      	bpl.n	8005900 <arm_cos_f32+0x28>
 80058f6:	ee17 3a90 	vmov	r3, s15
 80058fa:	3b01      	subs	r3, #1
 80058fc:	ee07 3a90 	vmov	s15, r3
 8005900:	eef8 7ae7 	vcvt.f32.s32	s15, s15
 8005904:	eddf 6a12 	vldr	s13, [pc, #72]	; 8005950 <arm_cos_f32+0x78>
 8005908:	4a12      	ldr	r2, [pc, #72]	; (8005954 <arm_cos_f32+0x7c>)
 800590a:	ee30 0a67 	vsub.f32	s0, s0, s15
 800590e:	eeb7 7a00 	vmov.f32	s14, #112	; 0x3f800000  1.0
 8005912:	ee20 0a26 	vmul.f32	s0, s0, s13
 8005916:	eefc 7ac0 	vcvt.u32.f32	s15, s0
 800591a:	ee17 3a90 	vmov	r3, s15
 800591e:	f3c3 0308 	ubfx	r3, r3, #0, #9
 8005922:	ee07 3a90 	vmov	s15, r3
 8005926:	eef8 7a67 	vcvt.f32.u32	s15, s15
 800592a:	eb02 0183 	add.w	r1, r2, r3, lsl #2
 800592e:	ee70 7a67 	vsub.f32	s15, s0, s15
 8005932:	edd1 6a01 	vldr	s13, [r1, #4]
 8005936:	ed91 0a00 	vldr	s0, [r1]
 800593a:	ee37 7a67 	vsub.f32	s14, s14, s15
 800593e:	ee67 7aa6 	vmul.f32	s15, s15, s13
 8005942:	ee27 0a00 	vmul.f32	s0, s14, s0
 8005946:	ee30 0a27 	vadd.f32	s0, s0, s15
 800594a:	4770      	bx	lr
 800594c:	3e22f983 	.word	0x3e22f983
 8005950:	44000000 	.word	0x44000000
 8005954:	08016800 	.word	0x08016800

08005958 <arm_scale_f32>:
 8005958:	b470      	push	{r4, r5, r6}
 800595a:	0896      	lsrs	r6, r2, #2
 800595c:	d025      	beq.n	80059aa <arm_scale_f32+0x52>
 800595e:	f100 0410 	add.w	r4, r0, #16
 8005962:	f101 0310 	add.w	r3, r1, #16
 8005966:	4635      	mov	r5, r6
 8005968:	ed14 6a04 	vldr	s12, [r4, #-16]
 800596c:	ed54 6a03 	vldr	s13, [r4, #-12]
 8005970:	ed14 7a02 	vldr	s14, [r4, #-8]
 8005974:	ed54 7a01 	vldr	s15, [r4, #-4]
 8005978:	ee26 6a00 	vmul.f32	s12, s12, s0
 800597c:	ee66 6a80 	vmul.f32	s13, s13, s0
 8005980:	ee27 7a00 	vmul.f32	s14, s14, s0
 8005984:	ee67 7a80 	vmul.f32	s15, s15, s0
 8005988:	3d01      	subs	r5, #1
 800598a:	ed03 6a04 	vstr	s12, [r3, #-16]
 800598e:	ed43 6a03 	vstr	s13, [r3, #-12]
 8005992:	ed03 7a02 	vstr	s14, [r3, #-8]
 8005996:	ed43 7a01 	vstr	s15, [r3, #-4]
 800599a:	f104 0410 	add.w	r4, r4, #16
 800599e:	f103 0310 	add.w	r3, r3, #16
 80059a2:	d1e1      	bne.n	8005968 <arm_scale_f32+0x10>
 80059a4:	0136      	lsls	r6, r6, #4
 80059a6:	4430      	add	r0, r6
 80059a8:	4431      	add	r1, r6
 80059aa:	f012 0203 	ands.w	r2, r2, #3
 80059ae:	d007      	beq.n	80059c0 <arm_scale_f32+0x68>
 80059b0:	ecf0 7a01 	vldmia	r0!, {s15}
 80059b4:	ee67 7a80 	vmul.f32	s15, s15, s0
 80059b8:	3a01      	subs	r2, #1
 80059ba:	ece1 7a01 	vstmia	r1!, {s15}
 80059be:	d1f7      	bne.n	80059b0 <arm_scale_f32+0x58>
 80059c0:	bc70      	pop	{r4, r5, r6}
 80059c2:	4770      	bx	lr

080059c4 <arm_mult_f32>:
 80059c4:	b5f0      	push	{r4, r5, r6, r7, lr}
 80059c6:	ea5f 0e93 	movs.w	lr, r3, lsr #2
 80059ca:	d033      	beq.n	8005a34 <arm_mult_f32+0x70>
 80059cc:	f100 0610 	add.w	r6, r0, #16
 80059d0:	f101 0510 	add.w	r5, r1, #16
 80059d4:	f102 0410 	add.w	r4, r2, #16
 80059d8:	4677      	mov	r7, lr
 80059da:	ed16 6a04 	vldr	s12, [r6, #-16]
 80059de:	ed55 4a04 	vldr	s9, [r5, #-16]
 80059e2:	ed56 6a02 	vldr	s13, [r6, #-8]
 80059e6:	ed15 5a02 	vldr	s10, [r5, #-8]
 80059ea:	ed16 7a03 	vldr	s14, [r6, #-12]
 80059ee:	ed55 5a03 	vldr	s11, [r5, #-12]
 80059f2:	ed56 7a01 	vldr	s15, [r6, #-4]
 80059f6:	ee26 6a24 	vmul.f32	s12, s12, s9
 80059fa:	ee66 6a85 	vmul.f32	s13, s13, s10
 80059fe:	ed04 6a04 	vstr	s12, [r4, #-16]
 8005a02:	ed15 6a01 	vldr	s12, [r5, #-4]
 8005a06:	ed44 6a02 	vstr	s13, [r4, #-8]
 8005a0a:	ee27 7a25 	vmul.f32	s14, s14, s11
 8005a0e:	ee67 7a86 	vmul.f32	s15, s15, s12
 8005a12:	3f01      	subs	r7, #1
 8005a14:	ed04 7a03 	vstr	s14, [r4, #-12]
 8005a18:	ed44 7a01 	vstr	s15, [r4, #-4]
 8005a1c:	f106 0610 	add.w	r6, r6, #16
 8005a20:	f105 0510 	add.w	r5, r5, #16
 8005a24:	f104 0410 	add.w	r4, r4, #16
 8005a28:	d1d7      	bne.n	80059da <arm_mult_f32+0x16>
 8005a2a:	ea4f 140e 	mov.w	r4, lr, lsl #4
 8005a2e:	4420      	add	r0, r4
 8005a30:	4421      	add	r1, r4
 8005a32:	4422      	add	r2, r4
 8005a34:	f013 0303 	ands.w	r3, r3, #3
 8005a38:	d009      	beq.n	8005a4e <arm_mult_f32+0x8a>
 8005a3a:	ecf0 7a01 	vldmia	r0!, {s15}
 8005a3e:	ecb1 7a01 	vldmia	r1!, {s14}
 8005a42:	ee67 7a87 	vmul.f32	s15, s15, s14
 8005a46:	3b01      	subs	r3, #1
 8005a48:	ece2 7a01 	vstmia	r2!, {s15}
 8005a4c:	d1f5      	bne.n	8005a3a <arm_mult_f32+0x76>
 8005a4e:	bdf0      	pop	{r4, r5, r6, r7, pc}

08005a50 <arm_radix8_butterfly_f32>:
 8005a50:	e92d 4ff0 	stmdb	sp!, {r4, r5, r6, r7, r8, r9, sl, fp, lr}
 8005a54:	ed2d 8b10 	vpush	{d8-d15}
 8005a58:	b09d      	sub	sp, #116	; 0x74
 8005a5a:	461c      	mov	r4, r3
 8005a5c:	ed9f bac8 	vldr	s22, [pc, #800]	; 8005d80 <arm_radix8_butterfly_f32+0x330>
 8005a60:	921a      	str	r2, [sp, #104]	; 0x68
 8005a62:	1d03      	adds	r3, r0, #4
 8005a64:	4682      	mov	sl, r0
 8005a66:	4689      	mov	r9, r1
 8005a68:	468b      	mov	fp, r1
 8005a6a:	931b      	str	r3, [sp, #108]	; 0x6c
 8005a6c:	9400      	str	r4, [sp, #0]
 8005a6e:	469e      	mov	lr, r3
 8005a70:	ea4f 03db 	mov.w	r3, fp, lsr #3
 8005a74:	005a      	lsls	r2, r3, #1
 8005a76:	18d6      	adds	r6, r2, r3
 8005a78:	18f5      	adds	r5, r6, r3
 8005a7a:	9203      	str	r2, [sp, #12]
 8005a7c:	195a      	adds	r2, r3, r5
 8005a7e:	18d0      	adds	r0, r2, r3
 8005a80:	00df      	lsls	r7, r3, #3
 8005a82:	1819      	adds	r1, r3, r0
 8005a84:	463c      	mov	r4, r7
 8005a86:	9701      	str	r7, [sp, #4]
 8005a88:	4457      	add	r7, sl
 8005a8a:	930c      	str	r3, [sp, #48]	; 0x30
 8005a8c:	eb0a 02c2 	add.w	r2, sl, r2, lsl #3
 8005a90:	011b      	lsls	r3, r3, #4
 8005a92:	eb0a 01c1 	add.w	r1, sl, r1, lsl #3
 8005a96:	eb07 0c04 	add.w	ip, r7, r4
 8005a9a:	9c00      	ldr	r4, [sp, #0]
 8005a9c:	9302      	str	r3, [sp, #8]
 8005a9e:	eb0a 06c6 	add.w	r6, sl, r6, lsl #3
 8005aa2:	eb0a 05c5 	add.w	r5, sl, r5, lsl #3
 8005aa6:	3204      	adds	r2, #4
 8005aa8:	3104      	adds	r1, #4
 8005aaa:	eb0a 00c0 	add.w	r0, sl, r0, lsl #3
 8005aae:	ea4f 03cb 	mov.w	r3, fp, lsl #3
 8005ab2:	f04f 0800 	mov.w	r8, #0
 8005ab6:	eddc 7a00 	vldr	s15, [ip]
 8005aba:	edd7 6a00 	vldr	s13, [r7]
 8005abe:	edd6 3a00 	vldr	s7, [r6]
 8005ac2:	ed5e aa01 	vldr	s21, [lr, #-4]
 8005ac6:	edd5 4a00 	vldr	s9, [r5]
 8005aca:	ed90 2a00 	vldr	s4, [r0]
 8005ace:	ed12 7a01 	vldr	s14, [r2, #-4]
 8005ad2:	ed51 0a01 	vldr	s1, [r1, #-4]
 8005ad6:	ee77 8a82 	vadd.f32	s17, s15, s4
 8005ada:	ee33 4aa0 	vadd.f32	s8, s7, s1
 8005ade:	ee76 1a87 	vadd.f32	s3, s13, s14
 8005ae2:	ee3a 3aa4 	vadd.f32	s6, s21, s9
 8005ae6:	ee31 6a84 	vadd.f32	s12, s3, s8
 8005aea:	ee33 5a28 	vadd.f32	s10, s6, s17
 8005aee:	ee36 7ac7 	vsub.f32	s14, s13, s14
 8005af2:	ee75 6a06 	vadd.f32	s13, s10, s12
 8005af6:	ee35 5a46 	vsub.f32	s10, s10, s12
 8005afa:	ed4e 6a01 	vstr	s13, [lr, #-4]
 8005afe:	ed85 5a00 	vstr	s10, [r5]
 8005b02:	ed96 1a01 	vldr	s2, [r6, #4]
 8005b06:	edd7 5a01 	vldr	s11, [r7, #4]
 8005b0a:	ed92 aa00 	vldr	s20, [r2]
 8005b0e:	ed91 6a00 	vldr	s12, [r1]
 8005b12:	ed9e 9a00 	vldr	s18, [lr]
 8005b16:	ed95 5a01 	vldr	s10, [r5, #4]
 8005b1a:	eddc 6a01 	vldr	s13, [ip, #4]
 8005b1e:	edd0 9a01 	vldr	s19, [r0, #4]
 8005b22:	ee73 0ae0 	vsub.f32	s1, s7, s1
 8005b26:	ee71 2a46 	vsub.f32	s5, s2, s12
 8005b2a:	ee75 3aca 	vsub.f32	s7, s11, s20
 8005b2e:	ee37 0a60 	vsub.f32	s0, s14, s1
 8005b32:	ee33 8aa2 	vadd.f32	s16, s7, s5
 8005b36:	ee37 7a20 	vadd.f32	s14, s14, s1
 8005b3a:	ee73 2ae2 	vsub.f32	s5, s7, s5
 8005b3e:	ee37 2ac2 	vsub.f32	s4, s15, s4
 8005b42:	ee79 3a05 	vadd.f32	s7, s18, s10
 8005b46:	ee60 0a0b 	vmul.f32	s1, s0, s22
 8005b4a:	ee39 5a45 	vsub.f32	s10, s18, s10
 8005b4e:	ee7a 4ae4 	vsub.f32	s9, s21, s9
 8005b52:	ee36 9aa9 	vadd.f32	s18, s13, s19
 8005b56:	ee75 5a8a 	vadd.f32	s11, s11, s20
 8005b5a:	ee31 6a06 	vadd.f32	s12, s2, s12
 8005b5e:	ee76 6ae9 	vsub.f32	s13, s13, s19
 8005b62:	ee28 8a0b 	vmul.f32	s16, s16, s22
 8005b66:	ee62 2a8b 	vmul.f32	s5, s5, s22
 8005b6a:	ee67 7a0b 	vmul.f32	s15, s14, s22
 8005b6e:	ee33 3a68 	vsub.f32	s6, s6, s17
 8005b72:	ee36 0a88 	vadd.f32	s0, s13, s16
 8005b76:	ee75 8a86 	vadd.f32	s17, s11, s12
 8005b7a:	ee36 7ac8 	vsub.f32	s14, s13, s16
 8005b7e:	ee71 1ac4 	vsub.f32	s3, s3, s8
 8005b82:	ee75 6a62 	vsub.f32	s13, s10, s5
 8005b86:	ee33 4ac9 	vsub.f32	s8, s7, s18
 8005b8a:	ee35 6ac6 	vsub.f32	s12, s11, s12
 8005b8e:	ee33 1a89 	vadd.f32	s2, s7, s18
 8005b92:	ee74 5ae0 	vsub.f32	s11, s9, s1
 8005b96:	ee74 3aa0 	vadd.f32	s7, s9, s1
 8005b9a:	ee75 4a22 	vadd.f32	s9, s10, s5
 8005b9e:	ee32 5a27 	vadd.f32	s10, s4, s15
 8005ba2:	ee72 7a67 	vsub.f32	s15, s4, s15
 8005ba6:	ee33 8a06 	vadd.f32	s16, s6, s12
 8005baa:	ee75 2a87 	vadd.f32	s5, s11, s14
 8005bae:	ee31 9a28 	vadd.f32	s18, s2, s17
 8005bb2:	ee33 6a46 	vsub.f32	s12, s6, s12
 8005bb6:	ee74 0a61 	vsub.f32	s1, s8, s3
 8005bba:	ee33 2a80 	vadd.f32	s4, s7, s0
 8005bbe:	ee35 7ac7 	vsub.f32	s14, s11, s14
 8005bc2:	ee34 3ac5 	vsub.f32	s6, s9, s10
 8005bc6:	ee76 5ae7 	vsub.f32	s11, s13, s15
 8005bca:	ee31 1a68 	vsub.f32	s2, s2, s17
 8005bce:	ee34 4a21 	vadd.f32	s8, s8, s3
 8005bd2:	ee73 3ac0 	vsub.f32	s7, s7, s0
 8005bd6:	ee74 4a85 	vadd.f32	s9, s9, s10
 8005bda:	ee76 6aa7 	vadd.f32	s13, s13, s15
 8005bde:	44d8      	add	r8, fp
 8005be0:	45c1      	cmp	r9, r8
 8005be2:	ed8e 9a00 	vstr	s18, [lr]
 8005be6:	ed85 1a01 	vstr	s2, [r5, #4]
 8005bea:	449e      	add	lr, r3
 8005bec:	ed8c 8a00 	vstr	s16, [ip]
 8005bf0:	441d      	add	r5, r3
 8005bf2:	ed80 6a00 	vstr	s12, [r0]
 8005bf6:	edcc 0a01 	vstr	s1, [ip, #4]
 8005bfa:	ed80 4a01 	vstr	s8, [r0, #4]
 8005bfe:	449c      	add	ip, r3
 8005c00:	ed87 2a00 	vstr	s4, [r7]
 8005c04:	4418      	add	r0, r3
 8005c06:	ed41 3a01 	vstr	s7, [r1, #-4]
 8005c0a:	ed42 2a01 	vstr	s5, [r2, #-4]
 8005c0e:	ed86 7a00 	vstr	s14, [r6]
 8005c12:	ed87 3a01 	vstr	s6, [r7, #4]
 8005c16:	edc1 4a00 	vstr	s9, [r1]
 8005c1a:	441f      	add	r7, r3
 8005c1c:	edc2 5a00 	vstr	s11, [r2]
 8005c20:	4419      	add	r1, r3
 8005c22:	edc6 6a01 	vstr	s13, [r6, #4]
 8005c26:	441a      	add	r2, r3
 8005c28:	441e      	add	r6, r3
 8005c2a:	f63f af44 	bhi.w	8005ab6 <arm_radix8_butterfly_f32+0x66>
 8005c2e:	990c      	ldr	r1, [sp, #48]	; 0x30
 8005c30:	2907      	cmp	r1, #7
 8005c32:	4620      	mov	r0, r4
 8005c34:	f240 81e9 	bls.w	800600a <arm_radix8_butterfly_f32+0x5ba>
 8005c38:	eb04 0744 	add.w	r7, r4, r4, lsl #1
 8005c3c:	193e      	adds	r6, r7, r4
 8005c3e:	1935      	adds	r5, r6, r4
 8005c40:	9c03      	ldr	r4, [sp, #12]
 8005c42:	9000      	str	r0, [sp, #0]
 8005c44:	4622      	mov	r2, r4
 8005c46:	3201      	adds	r2, #1
 8005c48:	eb02 0281 	add.w	r2, r2, r1, lsl #2
 8005c4c:	9900      	ldr	r1, [sp, #0]
 8005c4e:	1828      	adds	r0, r5, r0
 8005c50:	eb00 0e01 	add.w	lr, r0, r1
 8005c54:	990c      	ldr	r1, [sp, #48]	; 0x30
 8005c56:	440a      	add	r2, r1
 8005c58:	eb04 0c01 	add.w	ip, r4, r1
 8005c5c:	ea4f 04ce 	mov.w	r4, lr, lsl #3
 8005c60:	eb0a 0ec2 	add.w	lr, sl, r2, lsl #3
 8005c64:	9a00      	ldr	r2, [sp, #0]
 8005c66:	940f      	str	r4, [sp, #60]	; 0x3c
 8005c68:	00ed      	lsls	r5, r5, #3
 8005c6a:	9511      	str	r5, [sp, #68]	; 0x44
 8005c6c:	00d5      	lsls	r5, r2, #3
 8005c6e:	950d      	str	r5, [sp, #52]	; 0x34
 8005c70:	9d01      	ldr	r5, [sp, #4]
 8005c72:	3508      	adds	r5, #8
 8005c74:	9516      	str	r5, [sp, #88]	; 0x58
 8005c76:	9d02      	ldr	r5, [sp, #8]
 8005c78:	3508      	adds	r5, #8
 8005c7a:	0114      	lsls	r4, r2, #4
 8005c7c:	9517      	str	r5, [sp, #92]	; 0x5c
 8005c7e:	9a0f      	ldr	r2, [sp, #60]	; 0x3c
 8005c80:	9d1a      	ldr	r5, [sp, #104]	; 0x68
 8005c82:	940e      	str	r4, [sp, #56]	; 0x38
 8005c84:	00c0      	lsls	r0, r0, #3
 8005c86:	9010      	str	r0, [sp, #64]	; 0x40
 8005c88:	18aa      	adds	r2, r5, r2
 8005c8a:	9207      	str	r2, [sp, #28]
 8005c8c:	9a10      	ldr	r2, [sp, #64]	; 0x40
 8005c8e:	9c0c      	ldr	r4, [sp, #48]	; 0x30
 8005c90:	18aa      	adds	r2, r5, r2
 8005c92:	9208      	str	r2, [sp, #32]
 8005c94:	9a11      	ldr	r2, [sp, #68]	; 0x44
 8005c96:	18aa      	adds	r2, r5, r2
 8005c98:	9209      	str	r2, [sp, #36]	; 0x24
 8005c9a:	eb01 0181 	add.w	r1, r1, r1, lsl #2
 8005c9e:	f10e 0204 	add.w	r2, lr, #4
 8005ca2:	920a      	str	r2, [sp, #40]	; 0x28
 8005ca4:	00c9      	lsls	r1, r1, #3
 8005ca6:	9a0d      	ldr	r2, [sp, #52]	; 0x34
 8005ca8:	310c      	adds	r1, #12
 8005caa:	00f6      	lsls	r6, r6, #3
 8005cac:	ea4f 00cc 	mov.w	r0, ip, lsl #3
 8005cb0:	9114      	str	r1, [sp, #80]	; 0x50
 8005cb2:	18a9      	adds	r1, r5, r2
 8005cb4:	9a0e      	ldr	r2, [sp, #56]	; 0x38
 8005cb6:	9612      	str	r6, [sp, #72]	; 0x48
 8005cb8:	00ff      	lsls	r7, r7, #3
 8005cba:	19ae      	adds	r6, r5, r6
 8005cbc:	3008      	adds	r0, #8
 8005cbe:	ea4f 1c0c 	mov.w	ip, ip, lsl #4
 8005cc2:	9606      	str	r6, [sp, #24]
 8005cc4:	9019      	str	r0, [sp, #100]	; 0x64
 8005cc6:	18aa      	adds	r2, r5, r2
 8005cc8:	0164      	lsls	r4, r4, #5
 8005cca:	19ee      	adds	r6, r5, r7
 8005ccc:	f10c 000c 	add.w	r0, ip, #12
 8005cd0:	9713      	str	r7, [sp, #76]	; 0x4c
 8005cd2:	9604      	str	r6, [sp, #16]
 8005cd4:	9015      	str	r0, [sp, #84]	; 0x54
 8005cd6:	9103      	str	r1, [sp, #12]
 8005cd8:	9205      	str	r2, [sp, #20]
 8005cda:	f104 0208 	add.w	r2, r4, #8
 8005cde:	9218      	str	r2, [sp, #96]	; 0x60
 8005ce0:	f04f 0801 	mov.w	r8, #1
 8005ce4:	2200      	movs	r2, #0
 8005ce6:	f102 0108 	add.w	r1, r2, #8
 8005cea:	460f      	mov	r7, r1
 8005cec:	910b      	str	r1, [sp, #44]	; 0x2c
 8005cee:	9918      	ldr	r1, [sp, #96]	; 0x60
 8005cf0:	188e      	adds	r6, r1, r2
 8005cf2:	9916      	ldr	r1, [sp, #88]	; 0x58
 8005cf4:	188d      	adds	r5, r1, r2
 8005cf6:	9917      	ldr	r1, [sp, #92]	; 0x5c
 8005cf8:	188c      	adds	r4, r1, r2
 8005cfa:	9919      	ldr	r1, [sp, #100]	; 0x64
 8005cfc:	1888      	adds	r0, r1, r2
 8005cfe:	9914      	ldr	r1, [sp, #80]	; 0x50
 8005d00:	eb01 0c02 	add.w	ip, r1, r2
 8005d04:	9915      	ldr	r1, [sp, #84]	; 0x54
 8005d06:	440a      	add	r2, r1
 8005d08:	9903      	ldr	r1, [sp, #12]
 8005d0a:	edd1 fa00 	vldr	s31, [r1]
 8005d0e:	9905      	ldr	r1, [sp, #20]
 8005d10:	ed91 fa00 	vldr	s30, [r1]
 8005d14:	9904      	ldr	r1, [sp, #16]
 8005d16:	edd1 ea00 	vldr	s29, [r1]
 8005d1a:	9906      	ldr	r1, [sp, #24]
 8005d1c:	ed91 ea00 	vldr	s28, [r1]
 8005d20:	9909      	ldr	r1, [sp, #36]	; 0x24
 8005d22:	edd1 da00 	vldr	s27, [r1]
 8005d26:	9908      	ldr	r1, [sp, #32]
 8005d28:	ed91 da00 	vldr	s26, [r1]
 8005d2c:	9907      	ldr	r1, [sp, #28]
 8005d2e:	edd1 ca00 	vldr	s25, [r1]
 8005d32:	9903      	ldr	r1, [sp, #12]
 8005d34:	ed91 ca01 	vldr	s24, [r1, #4]
 8005d38:	9905      	ldr	r1, [sp, #20]
 8005d3a:	edd1 ba01 	vldr	s23, [r1, #4]
 8005d3e:	9904      	ldr	r1, [sp, #16]
 8005d40:	edd1 aa01 	vldr	s21, [r1, #4]
 8005d44:	9906      	ldr	r1, [sp, #24]
 8005d46:	ed91 aa01 	vldr	s20, [r1, #4]
 8005d4a:	9909      	ldr	r1, [sp, #36]	; 0x24
 8005d4c:	edd1 7a01 	vldr	s15, [r1, #4]
 8005d50:	9908      	ldr	r1, [sp, #32]
 8005d52:	edcd 7a00 	vstr	s15, [sp]
 8005d56:	edd1 7a01 	vldr	s15, [r1, #4]
 8005d5a:	9907      	ldr	r1, [sp, #28]
 8005d5c:	edcd 7a01 	vstr	s15, [sp, #4]
 8005d60:	edd1 7a01 	vldr	s15, [r1, #4]
 8005d64:	eb0a 0e07 	add.w	lr, sl, r7
 8005d68:	9f0a      	ldr	r7, [sp, #40]	; 0x28
 8005d6a:	edcd 7a02 	vstr	s15, [sp, #8]
 8005d6e:	eb0c 010a 	add.w	r1, ip, sl
 8005d72:	4456      	add	r6, sl
 8005d74:	4455      	add	r5, sl
 8005d76:	4454      	add	r4, sl
 8005d78:	4450      	add	r0, sl
 8005d7a:	4452      	add	r2, sl
 8005d7c:	46c4      	mov	ip, r8
 8005d7e:	e001      	b.n	8005d84 <arm_radix8_butterfly_f32+0x334>
 8005d80:	3f3504f3 	.word	0x3f3504f3
 8005d84:	ed96 5a00 	vldr	s10, [r6]
 8005d88:	ed52 9a01 	vldr	s19, [r2, #-4]
 8005d8c:	ed11 6a01 	vldr	s12, [r1, #-4]
 8005d90:	edd0 7a00 	vldr	s15, [r0]
 8005d94:	ed17 7a01 	vldr	s14, [r7, #-4]
 8005d98:	edde 3a00 	vldr	s7, [lr]
 8005d9c:	ed94 3a00 	vldr	s6, [r4]
 8005da0:	ed95 2a00 	vldr	s4, [r5]
 8005da4:	ed9e 0a01 	vldr	s0, [lr, #4]
 8005da8:	ee33 8a85 	vadd.f32	s16, s7, s10
 8005dac:	ee32 1a06 	vadd.f32	s2, s4, s12
 8005db0:	ee33 4a29 	vadd.f32	s8, s6, s19
 8005db4:	ee77 4a87 	vadd.f32	s9, s15, s14
 8005db8:	ee78 1a04 	vadd.f32	s3, s16, s8
 8005dbc:	ee71 6a24 	vadd.f32	s13, s2, s9
 8005dc0:	ee32 2a46 	vsub.f32	s4, s4, s12
 8005dc4:	ee31 6aa6 	vadd.f32	s12, s3, s13
 8005dc8:	ee77 7ac7 	vsub.f32	s15, s15, s14
 8005dcc:	ed8e 6a00 	vstr	s12, [lr]
 8005dd0:	edd0 8a01 	vldr	s17, [r0, #4]
 8005dd4:	ed95 9a01 	vldr	s18, [r5, #4]
 8005dd8:	edd1 2a00 	vldr	s5, [r1]
 8005ddc:	ed97 7a00 	vldr	s14, [r7]
 8005de0:	edd4 0a01 	vldr	s1, [r4, #4]
 8005de4:	ed96 6a01 	vldr	s12, [r6, #4]
 8005de8:	edd2 5a00 	vldr	s11, [r2]
 8005dec:	ee73 3ac5 	vsub.f32	s7, s7, s10
 8005df0:	ee33 3a69 	vsub.f32	s6, s6, s19
 8005df4:	ee39 5a62 	vsub.f32	s10, s18, s5
 8005df8:	ee78 9ac7 	vsub.f32	s19, s17, s14
 8005dfc:	ee38 4a44 	vsub.f32	s8, s16, s8
 8005e00:	ee38 7a87 	vadd.f32	s14, s17, s14
 8005e04:	ee30 8aa5 	vadd.f32	s16, s1, s11
 8005e08:	ee79 2a22 	vadd.f32	s5, s18, s5
 8005e0c:	ee75 8a69 	vsub.f32	s17, s10, s19
 8005e10:	ee32 9a27 	vadd.f32	s18, s4, s15
 8005e14:	ee35 5a29 	vadd.f32	s10, s10, s19
 8005e18:	ee72 7a67 	vsub.f32	s15, s4, s15
 8005e1c:	ee30 2a06 	vadd.f32	s4, s0, s12
 8005e20:	ee69 9a0b 	vmul.f32	s19, s18, s22
 8005e24:	ee70 5ae5 	vsub.f32	s11, s1, s11
 8005e28:	ee32 9a08 	vadd.f32	s18, s4, s16
 8005e2c:	ee68 8a8b 	vmul.f32	s17, s17, s22
 8005e30:	ee32 2a48 	vsub.f32	s4, s4, s16
 8005e34:	ee71 4a64 	vsub.f32	s9, s2, s9
 8005e38:	ee25 5a0b 	vmul.f32	s10, s10, s22
 8005e3c:	ee32 1a87 	vadd.f32	s2, s5, s14
 8005e40:	ee67 7a8b 	vmul.f32	s15, s15, s22
 8005e44:	ee72 2ac7 	vsub.f32	s5, s5, s14
 8005e48:	ee30 6a46 	vsub.f32	s12, s0, s12
 8005e4c:	ee73 0a29 	vadd.f32	s1, s6, s19
 8005e50:	ee36 0a28 	vadd.f32	s0, s12, s17
 8005e54:	ee33 3a69 	vsub.f32	s6, s6, s19
 8005e58:	ee32 7a64 	vsub.f32	s14, s4, s9
 8005e5c:	ee73 9aa7 	vadd.f32	s19, s7, s15
 8005e60:	ee36 6a68 	vsub.f32	s12, s12, s17
 8005e64:	ee73 7ae7 	vsub.f32	s15, s7, s15
 8005e68:	ee75 8a85 	vadd.f32	s17, s11, s10
 8005e6c:	ee74 3a22 	vadd.f32	s7, s8, s5
 8005e70:	ee35 5ac5 	vsub.f32	s10, s11, s10
 8005e74:	ee71 6ae6 	vsub.f32	s13, s3, s13
 8005e78:	ee79 1a41 	vsub.f32	s3, s18, s2
 8005e7c:	ee39 8aa8 	vadd.f32	s16, s19, s17
 8005e80:	ee76 5a43 	vsub.f32	s11, s12, s6
 8005e84:	ee74 2a62 	vsub.f32	s5, s8, s5
 8005e88:	ee72 4a24 	vadd.f32	s9, s4, s9
 8005e8c:	ee30 4a60 	vsub.f32	s8, s0, s1
 8005e90:	ee79 8ae8 	vsub.f32	s17, s19, s17
 8005e94:	ee30 0a20 	vadd.f32	s0, s0, s1
 8005e98:	ee77 9a85 	vadd.f32	s19, s15, s10
 8005e9c:	ee36 6a03 	vadd.f32	s12, s12, s6
 8005ea0:	ee77 7ac5 	vsub.f32	s15, s15, s10
 8005ea4:	ee2e 2a21 	vmul.f32	s4, s28, s3
 8005ea8:	ee2e 5a26 	vmul.f32	s10, s28, s13
 8005eac:	ee6f 0a23 	vmul.f32	s1, s30, s7
 8005eb0:	ee2a 3a21 	vmul.f32	s6, s20, s3
 8005eb4:	ee39 1a01 	vadd.f32	s2, s18, s2
 8005eb8:	ee6a 6a26 	vmul.f32	s13, s20, s13
 8005ebc:	ee2b 9a87 	vmul.f32	s18, s23, s14
 8005ec0:	ee6b 3aa3 	vmul.f32	s7, s23, s7
 8005ec4:	ee2f 7a07 	vmul.f32	s14, s30, s14
 8005ec8:	ee6f 1a84 	vmul.f32	s3, s31, s8
 8005ecc:	ee35 3a03 	vadd.f32	s6, s10, s6
 8005ed0:	ee72 6a66 	vsub.f32	s13, s4, s13
 8005ed4:	ee2c 5a04 	vmul.f32	s10, s24, s8
 8005ed8:	ee2f 2a88 	vmul.f32	s4, s31, s16
 8005edc:	ed9d 4a02 	vldr	s8, [sp, #8]
 8005ee0:	ed8e 1a01 	vstr	s2, [lr, #4]
 8005ee4:	ee77 3a63 	vsub.f32	s7, s14, s7
 8005ee8:	ee2c 8a08 	vmul.f32	s16, s24, s16
 8005eec:	ed9d 7a01 	vldr	s14, [sp, #4]
 8005ef0:	ed86 3a00 	vstr	s6, [r6]
 8005ef4:	ee30 9a89 	vadd.f32	s18, s1, s18
 8005ef8:	ee32 2a05 	vadd.f32	s4, s4, s10
 8005efc:	ee6d 0a22 	vmul.f32	s1, s26, s5
 8005f00:	ee31 8ac8 	vsub.f32	s16, s3, s16
 8005f04:	ee67 2a22 	vmul.f32	s5, s14, s5
 8005f08:	ee64 1a00 	vmul.f32	s3, s8, s0
 8005f0c:	ee27 7a24 	vmul.f32	s14, s14, s9
 8005f10:	ee2c 5aa8 	vmul.f32	s10, s25, s17
 8005f14:	ee6d 4a24 	vmul.f32	s9, s26, s9
 8005f18:	ee64 8a28 	vmul.f32	s17, s8, s17
 8005f1c:	ed9d 4a00 	vldr	s8, [sp]
 8005f20:	edc6 6a01 	vstr	s13, [r6, #4]
 8005f24:	ee74 2ae2 	vsub.f32	s5, s9, s5
 8005f28:	ee6d 4aa9 	vmul.f32	s9, s27, s19
 8005f2c:	ee64 9a29 	vmul.f32	s19, s8, s19
 8005f30:	ee24 4a25 	vmul.f32	s8, s8, s11
 8005f34:	ee30 7a87 	vadd.f32	s14, s1, s14
 8005f38:	ee74 4a84 	vadd.f32	s9, s9, s8
 8005f3c:	ee6e 0aa7 	vmul.f32	s1, s29, s15
 8005f40:	ee2a 4a86 	vmul.f32	s8, s21, s12
 8005f44:	ee2c 0a80 	vmul.f32	s0, s25, s0
 8005f48:	ee6d 5aa5 	vmul.f32	s11, s27, s11
 8005f4c:	ee6a 7aa7 	vmul.f32	s15, s21, s15
 8005f50:	ee2e 6a86 	vmul.f32	s12, s29, s12
 8005f54:	ee75 1a21 	vadd.f32	s3, s10, s3
 8005f58:	ee30 0a68 	vsub.f32	s0, s0, s17
 8005f5c:	ee75 9ae9 	vsub.f32	s19, s11, s19
 8005f60:	ee70 0a84 	vadd.f32	s1, s1, s8
 8005f64:	ee36 6a67 	vsub.f32	s12, s12, s15
 8005f68:	44dc      	add	ip, fp
 8005f6a:	45e1      	cmp	r9, ip
 8005f6c:	ed84 9a00 	vstr	s18, [r4]
 8005f70:	edc4 3a01 	vstr	s7, [r4, #4]
 8005f74:	449e      	add	lr, r3
 8005f76:	ed02 7a01 	vstr	s14, [r2, #-4]
 8005f7a:	edc2 2a00 	vstr	s5, [r2]
 8005f7e:	441e      	add	r6, r3
 8005f80:	ed85 2a00 	vstr	s4, [r5]
 8005f84:	ed85 8a01 	vstr	s16, [r5, #4]
 8005f88:	441c      	add	r4, r3
 8005f8a:	ed47 1a01 	vstr	s3, [r7, #-4]
 8005f8e:	ed87 0a00 	vstr	s0, [r7]
 8005f92:	441a      	add	r2, r3
 8005f94:	ed41 4a01 	vstr	s9, [r1, #-4]
 8005f98:	edc1 9a00 	vstr	s19, [r1]
 8005f9c:	441d      	add	r5, r3
 8005f9e:	edc0 0a00 	vstr	s1, [r0]
 8005fa2:	441f      	add	r7, r3
 8005fa4:	ed80 6a01 	vstr	s12, [r0, #4]
 8005fa8:	4419      	add	r1, r3
 8005faa:	4418      	add	r0, r3
 8005fac:	f63f aeea 	bhi.w	8005d84 <arm_radix8_butterfly_f32+0x334>
 8005fb0:	9a03      	ldr	r2, [sp, #12]
 8005fb2:	990d      	ldr	r1, [sp, #52]	; 0x34
 8005fb4:	440a      	add	r2, r1
 8005fb6:	9203      	str	r2, [sp, #12]
 8005fb8:	990e      	ldr	r1, [sp, #56]	; 0x38
 8005fba:	9a05      	ldr	r2, [sp, #20]
 8005fbc:	440a      	add	r2, r1
 8005fbe:	9205      	str	r2, [sp, #20]
 8005fc0:	9913      	ldr	r1, [sp, #76]	; 0x4c
 8005fc2:	9a04      	ldr	r2, [sp, #16]
 8005fc4:	440a      	add	r2, r1
 8005fc6:	9204      	str	r2, [sp, #16]
 8005fc8:	9912      	ldr	r1, [sp, #72]	; 0x48
 8005fca:	9a06      	ldr	r2, [sp, #24]
 8005fcc:	440a      	add	r2, r1
 8005fce:	9206      	str	r2, [sp, #24]
 8005fd0:	9911      	ldr	r1, [sp, #68]	; 0x44
 8005fd2:	9a09      	ldr	r2, [sp, #36]	; 0x24
 8005fd4:	440a      	add	r2, r1
 8005fd6:	9209      	str	r2, [sp, #36]	; 0x24
 8005fd8:	9910      	ldr	r1, [sp, #64]	; 0x40
 8005fda:	9a08      	ldr	r2, [sp, #32]
 8005fdc:	440a      	add	r2, r1
 8005fde:	9208      	str	r2, [sp, #32]
 8005fe0:	990f      	ldr	r1, [sp, #60]	; 0x3c
 8005fe2:	9a07      	ldr	r2, [sp, #28]
 8005fe4:	440a      	add	r2, r1
 8005fe6:	9207      	str	r2, [sp, #28]
 8005fe8:	990c      	ldr	r1, [sp, #48]	; 0x30
 8005fea:	9a0a      	ldr	r2, [sp, #40]	; 0x28
 8005fec:	f108 0801 	add.w	r8, r8, #1
 8005ff0:	3208      	adds	r2, #8
 8005ff2:	4588      	cmp	r8, r1
 8005ff4:	920a      	str	r2, [sp, #40]	; 0x28
 8005ff6:	9a0b      	ldr	r2, [sp, #44]	; 0x2c
 8005ff8:	f47f ae75 	bne.w	8005ce6 <arm_radix8_butterfly_f32+0x296>
 8005ffc:	f8bd 3034 	ldrh.w	r3, [sp, #52]	; 0x34
 8006000:	9300      	str	r3, [sp, #0]
 8006002:	46c3      	mov	fp, r8
 8006004:	f8dd e06c 	ldr.w	lr, [sp, #108]	; 0x6c
 8006008:	e532      	b.n	8005a70 <arm_radix8_butterfly_f32+0x20>
 800600a:	b01d      	add	sp, #116	; 0x74
 800600c:	ecbd 8b10 	vpop	{d8-d15}
 8006010:	e8bd 8ff0 	ldmia.w	sp!, {r4, r5, r6, r7, r8, r9, sl, fp, pc}

08006014 <log10f>:
 8006014:	b510      	push	{r4, lr}
 8006016:	ed2d 8b02 	vpush	{d8}
 800601a:	b08a      	sub	sp, #40	; 0x28
 800601c:	eeb0 8a40 	vmov.f32	s16, s0
 8006020:	f000 f8be 	bl	80061a0 <__ieee754_log10f>
 8006024:	4b31      	ldr	r3, [pc, #196]	; (80060ec <log10f+0xd8>)
 8006026:	f993 4000 	ldrsb.w	r4, [r3]
 800602a:	1c63      	adds	r3, r4, #1
 800602c:	d059      	beq.n	80060e2 <log10f+0xce>
 800602e:	eeb4 8a48 	vcmp.f32	s16, s16
 8006032:	eef1 fa10 	vmrs	APSR_nzcv, fpscr
 8006036:	d654      	bvs.n	80060e2 <log10f+0xce>
 8006038:	eeb5 8ac0 	vcmpe.f32	s16, #0.0
 800603c:	eef1 fa10 	vmrs	APSR_nzcv, fpscr
 8006040:	d84f      	bhi.n	80060e2 <log10f+0xce>
 8006042:	4b2b      	ldr	r3, [pc, #172]	; (80060f0 <log10f+0xdc>)
 8006044:	9301      	str	r3, [sp, #4]
 8006046:	ee18 0a10 	vmov	r0, s16
 800604a:	2300      	movs	r3, #0
 800604c:	9308      	str	r3, [sp, #32]
 800604e:	f7fa fadb 	bl	8000608 <__aeabi_f2d>
 8006052:	e9cd 0104 	strd	r0, r1, [sp, #16]
 8006056:	e9cd 0102 	strd	r0, r1, [sp, #8]
 800605a:	b994      	cbnz	r4, 8006082 <log10f+0x6e>
 800605c:	4b25      	ldr	r3, [pc, #148]	; (80060f4 <log10f+0xe0>)
 800605e:	eeb5 8a40 	vcmp.f32	s16, #0.0
 8006062:	f04f 4260 	mov.w	r2, #3758096384	; 0xe0000000
 8006066:	eef1 fa10 	vmrs	APSR_nzcv, fpscr
 800606a:	e9cd 2306 	strd	r2, r3, [sp, #24]
 800606e:	d025      	beq.n	80060bc <log10f+0xa8>
 8006070:	2301      	movs	r3, #1
 8006072:	2c02      	cmp	r4, #2
 8006074:	9300      	str	r3, [sp, #0]
 8006076:	d116      	bne.n	80060a6 <log10f+0x92>
 8006078:	f000 fa30 	bl	80064dc <__errno>
 800607c:	2321      	movs	r3, #33	; 0x21
 800607e:	6003      	str	r3, [r0, #0]
 8006080:	e016      	b.n	80060b0 <log10f+0x9c>
 8006082:	4b1d      	ldr	r3, [pc, #116]	; (80060f8 <log10f+0xe4>)
 8006084:	eeb5 8a40 	vcmp.f32	s16, #0.0
 8006088:	2200      	movs	r2, #0
 800608a:	eef1 fa10 	vmrs	APSR_nzcv, fpscr
 800608e:	e9cd 2306 	strd	r2, r3, [sp, #24]
 8006092:	d1ed      	bne.n	8006070 <log10f+0x5c>
 8006094:	2302      	movs	r3, #2
 8006096:	429c      	cmp	r4, r3
 8006098:	9300      	str	r3, [sp, #0]
 800609a:	d111      	bne.n	80060c0 <log10f+0xac>
 800609c:	f000 fa1e 	bl	80064dc <__errno>
 80060a0:	2322      	movs	r3, #34	; 0x22
 80060a2:	6003      	str	r3, [r0, #0]
 80060a4:	e011      	b.n	80060ca <log10f+0xb6>
 80060a6:	4668      	mov	r0, sp
 80060a8:	f000 f919 	bl	80062de <matherr>
 80060ac:	2800      	cmp	r0, #0
 80060ae:	d0e3      	beq.n	8006078 <log10f+0x64>
 80060b0:	4812      	ldr	r0, [pc, #72]	; (80060fc <log10f+0xe8>)
 80060b2:	f000 f919 	bl	80062e8 <nan>
 80060b6:	ed8d 0b06 	vstr	d0, [sp, #24]
 80060ba:	e006      	b.n	80060ca <log10f+0xb6>
 80060bc:	2302      	movs	r3, #2
 80060be:	9300      	str	r3, [sp, #0]
 80060c0:	4668      	mov	r0, sp
 80060c2:	f000 f90c 	bl	80062de <matherr>
 80060c6:	2800      	cmp	r0, #0
 80060c8:	d0e8      	beq.n	800609c <log10f+0x88>
 80060ca:	9b08      	ldr	r3, [sp, #32]
 80060cc:	b11b      	cbz	r3, 80060d6 <log10f+0xc2>
 80060ce:	f000 fa05 	bl	80064dc <__errno>
 80060d2:	9b08      	ldr	r3, [sp, #32]
 80060d4:	6003      	str	r3, [r0, #0]
 80060d6:	e9dd 0106 	ldrd	r0, r1, [sp, #24]
 80060da:	f7fa fdc1 	bl	8000c60 <__aeabi_d2f>
 80060de:	ee00 0a10 	vmov	s0, r0
 80060e2:	b00a      	add	sp, #40	; 0x28
 80060e4:	ecbd 8b02 	vpop	{d8}
 80060e8:	bd10      	pop	{r4, pc}
 80060ea:	bf00      	nop
 80060ec:	20000008 	.word	0x20000008
 80060f0:	0801ca54 	.word	0x0801ca54
 80060f4:	c7efffff 	.word	0xc7efffff
 80060f8:	fff00000 	.word	0xfff00000
 80060fc:	0801cc11 	.word	0x0801cc11

08006100 <sqrtf>:
 8006100:	b510      	push	{r4, lr}
 8006102:	ed2d 8b02 	vpush	{d8}
 8006106:	b08a      	sub	sp, #40	; 0x28
 8006108:	eeb0 8a40 	vmov.f32	s16, s0
 800610c:	f000 f8a0 	bl	8006250 <__ieee754_sqrtf>
 8006110:	4b21      	ldr	r3, [pc, #132]	; (8006198 <sqrtf+0x98>)
 8006112:	f993 4000 	ldrsb.w	r4, [r3]
 8006116:	1c63      	adds	r3, r4, #1
 8006118:	d02c      	beq.n	8006174 <sqrtf+0x74>
 800611a:	eeb4 8a48 	vcmp.f32	s16, s16
 800611e:	eef1 fa10 	vmrs	APSR_nzcv, fpscr
 8006122:	d627      	bvs.n	8006174 <sqrtf+0x74>
 8006124:	eeb5 8ac0 	vcmpe.f32	s16, #0.0
 8006128:	eef1 fa10 	vmrs	APSR_nzcv, fpscr
 800612c:	d522      	bpl.n	8006174 <sqrtf+0x74>
 800612e:	2301      	movs	r3, #1
 8006130:	9300      	str	r3, [sp, #0]
 8006132:	4b1a      	ldr	r3, [pc, #104]	; (800619c <sqrtf+0x9c>)
 8006134:	9301      	str	r3, [sp, #4]
 8006136:	ee18 0a10 	vmov	r0, s16
 800613a:	2300      	movs	r3, #0
 800613c:	9308      	str	r3, [sp, #32]
 800613e:	f7fa fa63 	bl	8000608 <__aeabi_f2d>
 8006142:	2200      	movs	r2, #0
 8006144:	e9cd 0104 	strd	r0, r1, [sp, #16]
 8006148:	e9cd 0102 	strd	r0, r1, [sp, #8]
 800614c:	2300      	movs	r3, #0
 800614e:	b9ac      	cbnz	r4, 800617c <sqrtf+0x7c>
 8006150:	e9cd 2306 	strd	r2, r3, [sp, #24]
 8006154:	4668      	mov	r0, sp
 8006156:	f000 f8c2 	bl	80062de <matherr>
 800615a:	b1b8      	cbz	r0, 800618c <sqrtf+0x8c>
 800615c:	9b08      	ldr	r3, [sp, #32]
 800615e:	b11b      	cbz	r3, 8006168 <sqrtf+0x68>
 8006160:	f000 f9bc 	bl	80064dc <__errno>
 8006164:	9b08      	ldr	r3, [sp, #32]
 8006166:	6003      	str	r3, [r0, #0]
 8006168:	e9dd 0106 	ldrd	r0, r1, [sp, #24]
 800616c:	f7fa fd78 	bl	8000c60 <__aeabi_d2f>
 8006170:	ee00 0a10 	vmov	s0, r0
 8006174:	b00a      	add	sp, #40	; 0x28
 8006176:	ecbd 8b02 	vpop	{d8}
 800617a:	bd10      	pop	{r4, pc}
 800617c:	4610      	mov	r0, r2
 800617e:	4619      	mov	r1, r3
 8006180:	f7fa fbc0 	bl	8000904 <__aeabi_ddiv>
 8006184:	2c02      	cmp	r4, #2
 8006186:	e9cd 0106 	strd	r0, r1, [sp, #24]
 800618a:	d1e3      	bne.n	8006154 <sqrtf+0x54>
 800618c:	f000 f9a6 	bl	80064dc <__errno>
 8006190:	2321      	movs	r3, #33	; 0x21
 8006192:	6003      	str	r3, [r0, #0]
 8006194:	e7e2      	b.n	800615c <sqrtf+0x5c>
 8006196:	bf00      	nop
 8006198:	20000008 	.word	0x20000008
 800619c:	0801ca5b 	.word	0x0801ca5b

080061a0 <__ieee754_log10f>:
 80061a0:	b508      	push	{r3, lr}
 80061a2:	ee10 2a10 	vmov	r2, s0
 80061a6:	f032 4300 	bics.w	r3, r2, #2147483648	; 0x80000000
 80061aa:	ed2d 8b02 	vpush	{d8}
 80061ae:	d108      	bne.n	80061c2 <__ieee754_log10f+0x22>
 80061b0:	eddf 7a21 	vldr	s15, [pc, #132]	; 8006238 <__ieee754_log10f+0x98>
 80061b4:	ed9f 7a21 	vldr	s14, [pc, #132]	; 800623c <__ieee754_log10f+0x9c>
 80061b8:	ee87 0a27 	vdiv.f32	s0, s14, s15
 80061bc:	ecbd 8b02 	vpop	{d8}
 80061c0:	bd08      	pop	{r3, pc}
 80061c2:	2a00      	cmp	r2, #0
 80061c4:	da04      	bge.n	80061d0 <__ieee754_log10f+0x30>
 80061c6:	ee30 7a40 	vsub.f32	s14, s0, s0
 80061ca:	eddf 7a1b 	vldr	s15, [pc, #108]	; 8006238 <__ieee754_log10f+0x98>
 80061ce:	e7f3      	b.n	80061b8 <__ieee754_log10f+0x18>
 80061d0:	f1b2 4fff 	cmp.w	r2, #2139095040	; 0x7f800000
 80061d4:	db02      	blt.n	80061dc <__ieee754_log10f+0x3c>
 80061d6:	ee30 0a00 	vadd.f32	s0, s0, s0
 80061da:	e7ef      	b.n	80061bc <__ieee754_log10f+0x1c>
 80061dc:	f5b2 0f00 	cmp.w	r2, #8388608	; 0x800000
 80061e0:	bfbf      	itttt	lt
 80061e2:	eddf 7a17 	vldrlt	s15, [pc, #92]	; 8006240 <__ieee754_log10f+0xa0>
 80061e6:	ee60 7a27 	vmullt.f32	s15, s0, s15
 80061ea:	f06f 0118 	mvnlt.w	r1, #24
 80061ee:	ee17 2a90 	vmovlt	r2, s15
 80061f2:	ea4f 53e2 	mov.w	r3, r2, asr #23
 80061f6:	bfa8      	it	ge
 80061f8:	2100      	movge	r1, #0
 80061fa:	3b7f      	subs	r3, #127	; 0x7f
 80061fc:	440b      	add	r3, r1
 80061fe:	0fd9      	lsrs	r1, r3, #31
 8006200:	440b      	add	r3, r1
 8006202:	f3c2 0216 	ubfx	r2, r2, #0, #23
 8006206:	f1c1 017f 	rsb	r1, r1, #127	; 0x7f
 800620a:	ee07 3a90 	vmov	s15, r3
 800620e:	ea42 53c1 	orr.w	r3, r2, r1, lsl #23
 8006212:	ee00 3a10 	vmov	s0, r3
 8006216:	eeb8 8ae7 	vcvt.f32.s32	s16, s15
 800621a:	f000 f86d 	bl	80062f8 <__ieee754_logf>
 800621e:	eddf 7a09 	vldr	s15, [pc, #36]	; 8006244 <__ieee754_log10f+0xa4>
 8006222:	ee20 0a27 	vmul.f32	s0, s0, s15
 8006226:	eddf 7a08 	vldr	s15, [pc, #32]	; 8006248 <__ieee754_log10f+0xa8>
 800622a:	eea8 0a27 	vfma.f32	s0, s16, s15
 800622e:	eddf 7a07 	vldr	s15, [pc, #28]	; 800624c <__ieee754_log10f+0xac>
 8006232:	eea8 0a27 	vfma.f32	s0, s16, s15
 8006236:	e7c1      	b.n	80061bc <__ieee754_log10f+0x1c>
 8006238:	00000000 	.word	0x00000000
 800623c:	cc000000 	.word	0xcc000000
 8006240:	4c000000 	.word	0x4c000000
 8006244:	3ede5bd9 	.word	0x3ede5bd9
 8006248:	355427db 	.word	0x355427db
 800624c:	3e9a2080 	.word	0x3e9a2080

08006250 <__ieee754_sqrtf>:
 8006250:	ee10 2a10 	vmov	r2, s0
 8006254:	f022 4100 	bic.w	r1, r2, #2147483648	; 0x80000000
 8006258:	f1b1 4fff 	cmp.w	r1, #2139095040	; 0x7f800000
 800625c:	b570      	push	{r4, r5, r6, lr}
 800625e:	d302      	bcc.n	8006266 <__ieee754_sqrtf+0x16>
 8006260:	eea0 0a00 	vfma.f32	s0, s0, s0
 8006264:	bd70      	pop	{r4, r5, r6, pc}
 8006266:	b3b1      	cbz	r1, 80062d6 <__ieee754_sqrtf+0x86>
 8006268:	2a00      	cmp	r2, #0
 800626a:	da04      	bge.n	8006276 <__ieee754_sqrtf+0x26>
 800626c:	ee70 7a40 	vsub.f32	s15, s0, s0
 8006270:	ee87 0aa7 	vdiv.f32	s0, s15, s15
 8006274:	bd70      	pop	{r4, r5, r6, pc}
 8006276:	f5b1 0f00 	cmp.w	r1, #8388608	; 0x800000
 800627a:	ea4f 53e2 	mov.w	r3, r2, asr #23
 800627e:	d204      	bcs.n	800628a <__ieee754_sqrtf+0x3a>
 8006280:	2100      	movs	r1, #0
 8006282:	0210      	lsls	r0, r2, #8
 8006284:	d528      	bpl.n	80062d8 <__ieee754_sqrtf+0x88>
 8006286:	3901      	subs	r1, #1
 8006288:	1a5b      	subs	r3, r3, r1
 800628a:	3b7f      	subs	r3, #127	; 0x7f
 800628c:	f3c2 0216 	ubfx	r2, r2, #0, #23
 8006290:	07d9      	lsls	r1, r3, #31
 8006292:	f442 0200 	orr.w	r2, r2, #8388608	; 0x800000
 8006296:	bf48      	it	mi
 8006298:	0052      	lslmi	r2, r2, #1
 800629a:	1059      	asrs	r1, r3, #1
 800629c:	2300      	movs	r3, #0
 800629e:	0052      	lsls	r2, r2, #1
 80062a0:	2419      	movs	r4, #25
 80062a2:	461e      	mov	r6, r3
 80062a4:	f04f 7080 	mov.w	r0, #16777216	; 0x1000000
 80062a8:	1835      	adds	r5, r6, r0
 80062aa:	4295      	cmp	r5, r2
 80062ac:	bfde      	ittt	le
 80062ae:	182e      	addle	r6, r5, r0
 80062b0:	1b52      	suble	r2, r2, r5
 80062b2:	181b      	addle	r3, r3, r0
 80062b4:	3c01      	subs	r4, #1
 80062b6:	ea4f 0242 	mov.w	r2, r2, lsl #1
 80062ba:	ea4f 0050 	mov.w	r0, r0, lsr #1
 80062be:	d1f3      	bne.n	80062a8 <__ieee754_sqrtf+0x58>
 80062c0:	b112      	cbz	r2, 80062c8 <__ieee754_sqrtf+0x78>
 80062c2:	3301      	adds	r3, #1
 80062c4:	f023 0301 	bic.w	r3, r3, #1
 80062c8:	105b      	asrs	r3, r3, #1
 80062ca:	f103 537c 	add.w	r3, r3, #1056964608	; 0x3f000000
 80062ce:	eb03 53c1 	add.w	r3, r3, r1, lsl #23
 80062d2:	ee00 3a10 	vmov	s0, r3
 80062d6:	bd70      	pop	{r4, r5, r6, pc}
 80062d8:	0052      	lsls	r2, r2, #1
 80062da:	3101      	adds	r1, #1
 80062dc:	e7d1      	b.n	8006282 <__ieee754_sqrtf+0x32>

080062de <matherr>:
 80062de:	2000      	movs	r0, #0
 80062e0:	4770      	bx	lr
 80062e2:	0000      	movs	r0, r0
 80062e4:	0000      	movs	r0, r0
	...

080062e8 <nan>:
 80062e8:	ed9f 0b01 	vldr	d0, [pc, #4]	; 80062f0 <nan+0x8>
 80062ec:	4770      	bx	lr
 80062ee:	bf00      	nop
 80062f0:	00000000 	.word	0x00000000
 80062f4:	7ff80000 	.word	0x7ff80000

080062f8 <__ieee754_logf>:
 80062f8:	ee10 3a10 	vmov	r3, s0
 80062fc:	f033 4200 	bics.w	r2, r3, #2147483648	; 0x80000000
 8006300:	d106      	bne.n	8006310 <__ieee754_logf+0x18>
 8006302:	eddf 7a67 	vldr	s15, [pc, #412]	; 80064a0 <__ieee754_logf+0x1a8>
 8006306:	ed9f 7a67 	vldr	s14, [pc, #412]	; 80064a4 <__ieee754_logf+0x1ac>
 800630a:	ee87 0a27 	vdiv.f32	s0, s14, s15
 800630e:	4770      	bx	lr
 8006310:	2b00      	cmp	r3, #0
 8006312:	da04      	bge.n	800631e <__ieee754_logf+0x26>
 8006314:	ee30 7a40 	vsub.f32	s14, s0, s0
 8006318:	eddf 7a61 	vldr	s15, [pc, #388]	; 80064a0 <__ieee754_logf+0x1a8>
 800631c:	e7f5      	b.n	800630a <__ieee754_logf+0x12>
 800631e:	f1b3 4fff 	cmp.w	r3, #2139095040	; 0x7f800000
 8006322:	db02      	blt.n	800632a <__ieee754_logf+0x32>
 8006324:	ee30 0a00 	vadd.f32	s0, s0, s0
 8006328:	4770      	bx	lr
 800632a:	f5b3 0f00 	cmp.w	r3, #8388608	; 0x800000
 800632e:	bfbf      	itttt	lt
 8006330:	eddf 7a5d 	vldrlt	s15, [pc, #372]	; 80064a8 <__ieee754_logf+0x1b0>
 8006334:	ee60 7a27 	vmullt.f32	s15, s0, s15
 8006338:	f06f 0118 	mvnlt.w	r1, #24
 800633c:	ee17 3a90 	vmovlt	r3, s15
 8006340:	ea4f 52e3 	mov.w	r2, r3, asr #23
 8006344:	bfa8      	it	ge
 8006346:	2100      	movge	r1, #0
 8006348:	3a7f      	subs	r2, #127	; 0x7f
 800634a:	440a      	add	r2, r1
 800634c:	4957      	ldr	r1, [pc, #348]	; (80064ac <__ieee754_logf+0x1b4>)
 800634e:	f3c3 0316 	ubfx	r3, r3, #0, #23
 8006352:	4419      	add	r1, r3
 8006354:	f401 0100 	and.w	r1, r1, #8388608	; 0x800000
 8006358:	eb02 52d1 	add.w	r2, r2, r1, lsr #23
 800635c:	f081 517e 	eor.w	r1, r1, #1065353216	; 0x3f800000
 8006360:	4319      	orrs	r1, r3
 8006362:	ee07 1a90 	vmov	s15, r1
 8006366:	f103 010f 	add.w	r1, r3, #15
 800636a:	f3c1 0116 	ubfx	r1, r1, #0, #23
 800636e:	eeb7 0a00 	vmov.f32	s0, #112	; 0x3f800000  1.0
 8006372:	290f      	cmp	r1, #15
 8006374:	ee37 0ac0 	vsub.f32	s0, s15, s0
 8006378:	dc31      	bgt.n	80063de <__ieee754_logf+0xe6>
 800637a:	eeb5 0a40 	vcmp.f32	s0, #0.0
 800637e:	eef1 fa10 	vmrs	APSR_nzcv, fpscr
 8006382:	d10f      	bne.n	80063a4 <__ieee754_logf+0xac>
 8006384:	2a00      	cmp	r2, #0
 8006386:	f000 8087 	beq.w	8006498 <__ieee754_logf+0x1a0>
 800638a:	ee07 2a90 	vmov	s15, r2
 800638e:	ed9f 0a48 	vldr	s0, [pc, #288]	; 80064b0 <__ieee754_logf+0x1b8>
 8006392:	ed9f 7a48 	vldr	s14, [pc, #288]	; 80064b4 <__ieee754_logf+0x1bc>
 8006396:	eef8 7ae7 	vcvt.f32.s32	s15, s15
 800639a:	ee27 0a80 	vmul.f32	s0, s15, s0
 800639e:	eea7 0a87 	vfma.f32	s0, s15, s14
 80063a2:	4770      	bx	lr
 80063a4:	eddf 7a44 	vldr	s15, [pc, #272]	; 80064b8 <__ieee754_logf+0x1c0>
 80063a8:	eeb6 7a00 	vmov.f32	s14, #96	; 0x3f000000  0.5
 80063ac:	eea0 7a67 	vfms.f32	s14, s0, s15
 80063b0:	ee60 7a00 	vmul.f32	s15, s0, s0
 80063b4:	ee27 7a27 	vmul.f32	s14, s14, s15
 80063b8:	b912      	cbnz	r2, 80063c0 <__ieee754_logf+0xc8>
 80063ba:	ee30 0a47 	vsub.f32	s0, s0, s14
 80063be:	4770      	bx	lr
 80063c0:	ee07 2a90 	vmov	s15, r2
 80063c4:	eddf 6a3a 	vldr	s13, [pc, #232]	; 80064b0 <__ieee754_logf+0x1b8>
 80063c8:	eef8 7ae7 	vcvt.f32.s32	s15, s15
 80063cc:	eea7 7ae6 	vfms.f32	s14, s15, s13
 80063d0:	ee37 0a40 	vsub.f32	s0, s14, s0
 80063d4:	ed9f 7a37 	vldr	s14, [pc, #220]	; 80064b4 <__ieee754_logf+0x1bc>
 80063d8:	ee97 0a87 	vfnms.f32	s0, s15, s14
 80063dc:	4770      	bx	lr
 80063de:	eef0 7a00 	vmov.f32	s15, #0	; 0x40000000  2.0
 80063e2:	ee70 7a27 	vadd.f32	s15, s0, s15
 80063e6:	ed9f 5a35 	vldr	s10, [pc, #212]	; 80064bc <__ieee754_logf+0x1c4>
 80063ea:	4935      	ldr	r1, [pc, #212]	; (80064c0 <__ieee754_logf+0x1c8>)
 80063ec:	eec0 6a27 	vdiv.f32	s13, s0, s15
 80063f0:	4419      	add	r1, r3
 80063f2:	f5c3 1357 	rsb	r3, r3, #3522560	; 0x35c000
 80063f6:	f503 7322 	add.w	r3, r3, #648	; 0x288
 80063fa:	430b      	orrs	r3, r1
 80063fc:	2b00      	cmp	r3, #0
 80063fe:	ee07 2a90 	vmov	s15, r2
 8006402:	ee26 6aa6 	vmul.f32	s12, s13, s13
 8006406:	eef8 5ae7 	vcvt.f32.s32	s11, s15
 800640a:	ee26 7a06 	vmul.f32	s14, s12, s12
 800640e:	eddf 7a2d 	vldr	s15, [pc, #180]	; 80064c4 <__ieee754_logf+0x1cc>
 8006412:	eee7 7a05 	vfma.f32	s15, s14, s10
 8006416:	ed9f 5a2c 	vldr	s10, [pc, #176]	; 80064c8 <__ieee754_logf+0x1d0>
 800641a:	eea7 5a27 	vfma.f32	s10, s14, s15
 800641e:	eddf 7a2b 	vldr	s15, [pc, #172]	; 80064cc <__ieee754_logf+0x1d4>
 8006422:	eee7 7a05 	vfma.f32	s15, s14, s10
 8006426:	ed9f 5a2a 	vldr	s10, [pc, #168]	; 80064d0 <__ieee754_logf+0x1d8>
 800642a:	ee67 7a86 	vmul.f32	s15, s15, s12
 800642e:	ed9f 6a29 	vldr	s12, [pc, #164]	; 80064d4 <__ieee754_logf+0x1dc>
 8006432:	eea7 5a06 	vfma.f32	s10, s14, s12
 8006436:	ed9f 6a28 	vldr	s12, [pc, #160]	; 80064d8 <__ieee754_logf+0x1e0>
 800643a:	eea7 6a05 	vfma.f32	s12, s14, s10
 800643e:	eee7 7a06 	vfma.f32	s15, s14, s12
 8006442:	dd1a      	ble.n	800647a <__ieee754_logf+0x182>
 8006444:	eeb6 7a00 	vmov.f32	s14, #96	; 0x3f000000  0.5
 8006448:	ee20 7a07 	vmul.f32	s14, s0, s14
 800644c:	ee27 7a00 	vmul.f32	s14, s14, s0
 8006450:	ee77 7a87 	vadd.f32	s15, s15, s14
 8006454:	b912      	cbnz	r2, 800645c <__ieee754_logf+0x164>
 8006456:	eea6 7ae7 	vfms.f32	s14, s13, s15
 800645a:	e7ae      	b.n	80063ba <__ieee754_logf+0xc2>
 800645c:	ed9f 6a14 	vldr	s12, [pc, #80]	; 80064b0 <__ieee754_logf+0x1b8>
 8006460:	ee25 6a86 	vmul.f32	s12, s11, s12
 8006464:	eea6 6aa7 	vfma.f32	s12, s13, s15
 8006468:	ee37 7a46 	vsub.f32	s14, s14, s12
 800646c:	ee37 0a40 	vsub.f32	s0, s14, s0
 8006470:	eddf 7a10 	vldr	s15, [pc, #64]	; 80064b4 <__ieee754_logf+0x1bc>
 8006474:	ee95 0aa7 	vfnms.f32	s0, s11, s15
 8006478:	4770      	bx	lr
 800647a:	ee70 7a67 	vsub.f32	s15, s0, s15
 800647e:	b912      	cbnz	r2, 8006486 <__ieee754_logf+0x18e>
 8006480:	eea6 0ae7 	vfms.f32	s0, s13, s15
 8006484:	4770      	bx	lr
 8006486:	ed9f 7a0a 	vldr	s14, [pc, #40]	; 80064b0 <__ieee754_logf+0x1b8>
 800648a:	ee27 7a65 	vnmul.f32	s14, s14, s11
 800648e:	eea6 7aa7 	vfma.f32	s14, s13, s15
 8006492:	ee37 0a40 	vsub.f32	s0, s14, s0
 8006496:	e7eb      	b.n	8006470 <__ieee754_logf+0x178>
 8006498:	ed9f 0a01 	vldr	s0, [pc, #4]	; 80064a0 <__ieee754_logf+0x1a8>
 800649c:	4770      	bx	lr
 800649e:	bf00      	nop
 80064a0:	00000000 	.word	0x00000000
 80064a4:	cc000000 	.word	0xcc000000
 80064a8:	4c000000 	.word	0x4c000000
 80064ac:	004afb20 	.word	0x004afb20
 80064b0:	3717f7d1 	.word	0x3717f7d1
 80064b4:	3f317180 	.word	0x3f317180
 80064b8:	3eaaaaab 	.word	0x3eaaaaab
 80064bc:	3e178897 	.word	0x3e178897
 80064c0:	ffcf5c30 	.word	0xffcf5c30
 80064c4:	3e3a3325 	.word	0x3e3a3325
 80064c8:	3e924925 	.word	0x3e924925
 80064cc:	3f2aaaab 	.word	0x3f2aaaab
 80064d0:	3e638e29 	.word	0x3e638e29
 80064d4:	3e1cd04f 	.word	0x3e1cd04f
 80064d8:	3ecccccd 	.word	0x3ecccccd

080064dc <__errno>:
 80064dc:	4b01      	ldr	r3, [pc, #4]	; (80064e4 <__errno+0x8>)
 80064de:	6818      	ldr	r0, [r3, #0]
 80064e0:	4770      	bx	lr
 80064e2:	bf00      	nop
 80064e4:	2000000c 	.word	0x2000000c

080064e8 <__libc_init_array>:
 80064e8:	b570      	push	{r4, r5, r6, lr}
 80064ea:	4e0d      	ldr	r6, [pc, #52]	; (8006520 <__libc_init_array+0x38>)
 80064ec:	4c0d      	ldr	r4, [pc, #52]	; (8006524 <__libc_init_array+0x3c>)
 80064ee:	1ba4      	subs	r4, r4, r6
 80064f0:	10a4      	asrs	r4, r4, #2
 80064f2:	2500      	movs	r5, #0
 80064f4:	42a5      	cmp	r5, r4
 80064f6:	d109      	bne.n	800650c <__libc_init_array+0x24>
 80064f8:	4e0b      	ldr	r6, [pc, #44]	; (8006528 <__libc_init_array+0x40>)
 80064fa:	4c0c      	ldr	r4, [pc, #48]	; (800652c <__libc_init_array+0x44>)
 80064fc:	f002 fc02 	bl	8008d04 <_init>
 8006500:	1ba4      	subs	r4, r4, r6
 8006502:	10a4      	asrs	r4, r4, #2
 8006504:	2500      	movs	r5, #0
 8006506:	42a5      	cmp	r5, r4
 8006508:	d105      	bne.n	8006516 <__libc_init_array+0x2e>
 800650a:	bd70      	pop	{r4, r5, r6, pc}
 800650c:	f856 3025 	ldr.w	r3, [r6, r5, lsl #2]
 8006510:	4798      	blx	r3
 8006512:	3501      	adds	r5, #1
 8006514:	e7ee      	b.n	80064f4 <__libc_init_array+0xc>
 8006516:	f856 3025 	ldr.w	r3, [r6, r5, lsl #2]
 800651a:	4798      	blx	r3
 800651c:	3501      	adds	r5, #1
 800651e:	e7f2      	b.n	8006506 <__libc_init_array+0x1e>
 8006520:	0801cd30 	.word	0x0801cd30
 8006524:	0801cd30 	.word	0x0801cd30
 8006528:	0801cd30 	.word	0x0801cd30
 800652c:	0801cd34 	.word	0x0801cd34

08006530 <__cvt>:
 8006530:	e92d 47ff 	stmdb	sp!, {r0, r1, r2, r3, r4, r5, r6, r7, r8, r9, sl, lr}
 8006534:	ec55 4b10 	vmov	r4, r5, d0
 8006538:	9f0d      	ldr	r7, [sp, #52]	; 0x34
 800653a:	f8dd a030 	ldr.w	sl, [sp, #48]	; 0x30
 800653e:	2d00      	cmp	r5, #0
 8006540:	460e      	mov	r6, r1
 8006542:	4691      	mov	r9, r2
 8006544:	4619      	mov	r1, r3
 8006546:	bfb8      	it	lt
 8006548:	4622      	movlt	r2, r4
 800654a:	462b      	mov	r3, r5
 800654c:	f027 0720 	bic.w	r7, r7, #32
 8006550:	bfbb      	ittet	lt
 8006552:	f105 4300 	addlt.w	r3, r5, #2147483648	; 0x80000000
 8006556:	461d      	movlt	r5, r3
 8006558:	2300      	movge	r3, #0
 800655a:	232d      	movlt	r3, #45	; 0x2d
 800655c:	bfb8      	it	lt
 800655e:	4614      	movlt	r4, r2
 8006560:	2f46      	cmp	r7, #70	; 0x46
 8006562:	700b      	strb	r3, [r1, #0]
 8006564:	d004      	beq.n	8006570 <__cvt+0x40>
 8006566:	2f45      	cmp	r7, #69	; 0x45
 8006568:	d100      	bne.n	800656c <__cvt+0x3c>
 800656a:	3601      	adds	r6, #1
 800656c:	2102      	movs	r1, #2
 800656e:	e000      	b.n	8006572 <__cvt+0x42>
 8006570:	2103      	movs	r1, #3
 8006572:	ab03      	add	r3, sp, #12
 8006574:	9301      	str	r3, [sp, #4]
 8006576:	ab02      	add	r3, sp, #8
 8006578:	9300      	str	r3, [sp, #0]
 800657a:	4632      	mov	r2, r6
 800657c:	4653      	mov	r3, sl
 800657e:	ec45 4b10 	vmov	d0, r4, r5
 8006582:	f000 fe09 	bl	8007198 <_dtoa_r>
 8006586:	2f47      	cmp	r7, #71	; 0x47
 8006588:	4680      	mov	r8, r0
 800658a:	d102      	bne.n	8006592 <__cvt+0x62>
 800658c:	f019 0f01 	tst.w	r9, #1
 8006590:	d026      	beq.n	80065e0 <__cvt+0xb0>
 8006592:	2f46      	cmp	r7, #70	; 0x46
 8006594:	eb08 0906 	add.w	r9, r8, r6
 8006598:	d111      	bne.n	80065be <__cvt+0x8e>
 800659a:	f898 3000 	ldrb.w	r3, [r8]
 800659e:	2b30      	cmp	r3, #48	; 0x30
 80065a0:	d10a      	bne.n	80065b8 <__cvt+0x88>
 80065a2:	2200      	movs	r2, #0
 80065a4:	2300      	movs	r3, #0
 80065a6:	4620      	mov	r0, r4
 80065a8:	4629      	mov	r1, r5
 80065aa:	f7fa fae9 	bl	8000b80 <__aeabi_dcmpeq>
 80065ae:	b918      	cbnz	r0, 80065b8 <__cvt+0x88>
 80065b0:	f1c6 0601 	rsb	r6, r6, #1
 80065b4:	f8ca 6000 	str.w	r6, [sl]
 80065b8:	f8da 3000 	ldr.w	r3, [sl]
 80065bc:	4499      	add	r9, r3
 80065be:	2200      	movs	r2, #0
 80065c0:	2300      	movs	r3, #0
 80065c2:	4620      	mov	r0, r4
 80065c4:	4629      	mov	r1, r5
 80065c6:	f7fa fadb 	bl	8000b80 <__aeabi_dcmpeq>
 80065ca:	b938      	cbnz	r0, 80065dc <__cvt+0xac>
 80065cc:	2230      	movs	r2, #48	; 0x30
 80065ce:	9b03      	ldr	r3, [sp, #12]
 80065d0:	4599      	cmp	r9, r3
 80065d2:	d905      	bls.n	80065e0 <__cvt+0xb0>
 80065d4:	1c59      	adds	r1, r3, #1
 80065d6:	9103      	str	r1, [sp, #12]
 80065d8:	701a      	strb	r2, [r3, #0]
 80065da:	e7f8      	b.n	80065ce <__cvt+0x9e>
 80065dc:	f8cd 900c 	str.w	r9, [sp, #12]
 80065e0:	9b03      	ldr	r3, [sp, #12]
 80065e2:	9a0e      	ldr	r2, [sp, #56]	; 0x38
 80065e4:	eba3 0308 	sub.w	r3, r3, r8
 80065e8:	4640      	mov	r0, r8
 80065ea:	6013      	str	r3, [r2, #0]
 80065ec:	b004      	add	sp, #16
 80065ee:	e8bd 87f0 	ldmia.w	sp!, {r4, r5, r6, r7, r8, r9, sl, pc}

080065f2 <__exponent>:
 80065f2:	b5f7      	push	{r0, r1, r2, r4, r5, r6, r7, lr}
 80065f4:	4603      	mov	r3, r0
 80065f6:	2900      	cmp	r1, #0
 80065f8:	bfb8      	it	lt
 80065fa:	4249      	neglt	r1, r1
 80065fc:	f803 2b02 	strb.w	r2, [r3], #2
 8006600:	bfb4      	ite	lt
 8006602:	222d      	movlt	r2, #45	; 0x2d
 8006604:	222b      	movge	r2, #43	; 0x2b
 8006606:	2909      	cmp	r1, #9
 8006608:	7042      	strb	r2, [r0, #1]
 800660a:	dd20      	ble.n	800664e <__exponent+0x5c>
 800660c:	f10d 0207 	add.w	r2, sp, #7
 8006610:	4617      	mov	r7, r2
 8006612:	260a      	movs	r6, #10
 8006614:	fb91 f5f6 	sdiv	r5, r1, r6
 8006618:	fb06 1115 	mls	r1, r6, r5, r1
 800661c:	3130      	adds	r1, #48	; 0x30
 800661e:	2d09      	cmp	r5, #9
 8006620:	f802 1c01 	strb.w	r1, [r2, #-1]
 8006624:	f102 34ff 	add.w	r4, r2, #4294967295
 8006628:	4629      	mov	r1, r5
 800662a:	dc09      	bgt.n	8006640 <__exponent+0x4e>
 800662c:	3130      	adds	r1, #48	; 0x30
 800662e:	3a02      	subs	r2, #2
 8006630:	f804 1c01 	strb.w	r1, [r4, #-1]
 8006634:	42ba      	cmp	r2, r7
 8006636:	461c      	mov	r4, r3
 8006638:	d304      	bcc.n	8006644 <__exponent+0x52>
 800663a:	1a20      	subs	r0, r4, r0
 800663c:	b003      	add	sp, #12
 800663e:	bdf0      	pop	{r4, r5, r6, r7, pc}
 8006640:	4622      	mov	r2, r4
 8006642:	e7e7      	b.n	8006614 <__exponent+0x22>
 8006644:	f812 1b01 	ldrb.w	r1, [r2], #1
 8006648:	f803 1b01 	strb.w	r1, [r3], #1
 800664c:	e7f2      	b.n	8006634 <__exponent+0x42>
 800664e:	2230      	movs	r2, #48	; 0x30
 8006650:	461c      	mov	r4, r3
 8006652:	4411      	add	r1, r2
 8006654:	f804 2b02 	strb.w	r2, [r4], #2
 8006658:	7059      	strb	r1, [r3, #1]
 800665a:	e7ee      	b.n	800663a <__exponent+0x48>

0800665c <_printf_float>:
 800665c:	e92d 4ff0 	stmdb	sp!, {r4, r5, r6, r7, r8, r9, sl, fp, lr}
 8006660:	b08d      	sub	sp, #52	; 0x34
 8006662:	460c      	mov	r4, r1
 8006664:	f8dd 8058 	ldr.w	r8, [sp, #88]	; 0x58
 8006668:	4616      	mov	r6, r2
 800666a:	461f      	mov	r7, r3
 800666c:	4605      	mov	r5, r0
 800666e:	f001 fcdd 	bl	800802c <_localeconv_r>
 8006672:	6803      	ldr	r3, [r0, #0]
 8006674:	9304      	str	r3, [sp, #16]
 8006676:	4618      	mov	r0, r3
 8006678:	f7f9 fe0a 	bl	8000290 <strlen>
 800667c:	2300      	movs	r3, #0
 800667e:	930a      	str	r3, [sp, #40]	; 0x28
 8006680:	f8d8 3000 	ldr.w	r3, [r8]
 8006684:	9005      	str	r0, [sp, #20]
 8006686:	3307      	adds	r3, #7
 8006688:	f023 0307 	bic.w	r3, r3, #7
 800668c:	f103 0208 	add.w	r2, r3, #8
 8006690:	f894 a018 	ldrb.w	sl, [r4, #24]
 8006694:	f8d4 b000 	ldr.w	fp, [r4]
 8006698:	f8c8 2000 	str.w	r2, [r8]
 800669c:	e9d3 2300 	ldrd	r2, r3, [r3]
 80066a0:	e9c4 2312 	strd	r2, r3, [r4, #72]	; 0x48
 80066a4:	e9d4 8912 	ldrd	r8, r9, [r4, #72]	; 0x48
 80066a8:	f029 4300 	bic.w	r3, r9, #2147483648	; 0x80000000
 80066ac:	9307      	str	r3, [sp, #28]
 80066ae:	f8cd 8018 	str.w	r8, [sp, #24]
 80066b2:	f04f 32ff 	mov.w	r2, #4294967295
 80066b6:	4ba5      	ldr	r3, [pc, #660]	; (800694c <_printf_float+0x2f0>)
 80066b8:	e9dd 0106 	ldrd	r0, r1, [sp, #24]
 80066bc:	f7fa fa92 	bl	8000be4 <__aeabi_dcmpun>
 80066c0:	2800      	cmp	r0, #0
 80066c2:	f040 81fb 	bne.w	8006abc <_printf_float+0x460>
 80066c6:	f04f 32ff 	mov.w	r2, #4294967295
 80066ca:	4ba0      	ldr	r3, [pc, #640]	; (800694c <_printf_float+0x2f0>)
 80066cc:	e9dd 0106 	ldrd	r0, r1, [sp, #24]
 80066d0:	f7fa fa6a 	bl	8000ba8 <__aeabi_dcmple>
 80066d4:	2800      	cmp	r0, #0
 80066d6:	f040 81f1 	bne.w	8006abc <_printf_float+0x460>
 80066da:	2200      	movs	r2, #0
 80066dc:	2300      	movs	r3, #0
 80066de:	4640      	mov	r0, r8
 80066e0:	4649      	mov	r1, r9
 80066e2:	f7fa fa57 	bl	8000b94 <__aeabi_dcmplt>
 80066e6:	b110      	cbz	r0, 80066ee <_printf_float+0x92>
 80066e8:	232d      	movs	r3, #45	; 0x2d
 80066ea:	f884 3043 	strb.w	r3, [r4, #67]	; 0x43
 80066ee:	4b98      	ldr	r3, [pc, #608]	; (8006950 <_printf_float+0x2f4>)
 80066f0:	4a98      	ldr	r2, [pc, #608]	; (8006954 <_printf_float+0x2f8>)
 80066f2:	f1ba 0f47 	cmp.w	sl, #71	; 0x47
 80066f6:	bf8c      	ite	hi
 80066f8:	4690      	movhi	r8, r2
 80066fa:	4698      	movls	r8, r3
 80066fc:	2303      	movs	r3, #3
 80066fe:	f02b 0204 	bic.w	r2, fp, #4
 8006702:	6123      	str	r3, [r4, #16]
 8006704:	6022      	str	r2, [r4, #0]
 8006706:	f04f 0900 	mov.w	r9, #0
 800670a:	9700      	str	r7, [sp, #0]
 800670c:	4633      	mov	r3, r6
 800670e:	aa0b      	add	r2, sp, #44	; 0x2c
 8006710:	4621      	mov	r1, r4
 8006712:	4628      	mov	r0, r5
 8006714:	f000 f9e2 	bl	8006adc <_printf_common>
 8006718:	3001      	adds	r0, #1
 800671a:	f040 8093 	bne.w	8006844 <_printf_float+0x1e8>
 800671e:	f04f 30ff 	mov.w	r0, #4294967295
 8006722:	b00d      	add	sp, #52	; 0x34
 8006724:	e8bd 8ff0 	ldmia.w	sp!, {r4, r5, r6, r7, r8, r9, sl, fp, pc}
 8006728:	6861      	ldr	r1, [r4, #4]
 800672a:	1c4b      	adds	r3, r1, #1
 800672c:	f44b 6280 	orr.w	r2, fp, #1024	; 0x400
 8006730:	d13f      	bne.n	80067b2 <_printf_float+0x156>
 8006732:	2306      	movs	r3, #6
 8006734:	6063      	str	r3, [r4, #4]
 8006736:	2300      	movs	r3, #0
 8006738:	9303      	str	r3, [sp, #12]
 800673a:	ab0a      	add	r3, sp, #40	; 0x28
 800673c:	9302      	str	r3, [sp, #8]
 800673e:	ab09      	add	r3, sp, #36	; 0x24
 8006740:	9300      	str	r3, [sp, #0]
 8006742:	ec49 8b10 	vmov	d0, r8, r9
 8006746:	f10d 0323 	add.w	r3, sp, #35	; 0x23
 800674a:	6022      	str	r2, [r4, #0]
 800674c:	f8cd a004 	str.w	sl, [sp, #4]
 8006750:	6861      	ldr	r1, [r4, #4]
 8006752:	4628      	mov	r0, r5
 8006754:	f7ff feec 	bl	8006530 <__cvt>
 8006758:	f00a 03df 	and.w	r3, sl, #223	; 0xdf
 800675c:	2b47      	cmp	r3, #71	; 0x47
 800675e:	4680      	mov	r8, r0
 8006760:	d109      	bne.n	8006776 <_printf_float+0x11a>
 8006762:	9b09      	ldr	r3, [sp, #36]	; 0x24
 8006764:	1cd8      	adds	r0, r3, #3
 8006766:	db02      	blt.n	800676e <_printf_float+0x112>
 8006768:	6862      	ldr	r2, [r4, #4]
 800676a:	4293      	cmp	r3, r2
 800676c:	dd57      	ble.n	800681e <_printf_float+0x1c2>
 800676e:	f1aa 0a02 	sub.w	sl, sl, #2
 8006772:	fa5f fa8a 	uxtb.w	sl, sl
 8006776:	f1ba 0f65 	cmp.w	sl, #101	; 0x65
 800677a:	9909      	ldr	r1, [sp, #36]	; 0x24
 800677c:	d834      	bhi.n	80067e8 <_printf_float+0x18c>
 800677e:	3901      	subs	r1, #1
 8006780:	4652      	mov	r2, sl
 8006782:	f104 0050 	add.w	r0, r4, #80	; 0x50
 8006786:	9109      	str	r1, [sp, #36]	; 0x24
 8006788:	f7ff ff33 	bl	80065f2 <__exponent>
 800678c:	9a0a      	ldr	r2, [sp, #40]	; 0x28
 800678e:	1883      	adds	r3, r0, r2
 8006790:	2a01      	cmp	r2, #1
 8006792:	4681      	mov	r9, r0
 8006794:	6123      	str	r3, [r4, #16]
 8006796:	dc02      	bgt.n	800679e <_printf_float+0x142>
 8006798:	6822      	ldr	r2, [r4, #0]
 800679a:	07d1      	lsls	r1, r2, #31
 800679c:	d501      	bpl.n	80067a2 <_printf_float+0x146>
 800679e:	3301      	adds	r3, #1
 80067a0:	6123      	str	r3, [r4, #16]
 80067a2:	f89d 3023 	ldrb.w	r3, [sp, #35]	; 0x23
 80067a6:	2b00      	cmp	r3, #0
 80067a8:	d0af      	beq.n	800670a <_printf_float+0xae>
 80067aa:	232d      	movs	r3, #45	; 0x2d
 80067ac:	f884 3043 	strb.w	r3, [r4, #67]	; 0x43
 80067b0:	e7ab      	b.n	800670a <_printf_float+0xae>
 80067b2:	f1ba 0f67 	cmp.w	sl, #103	; 0x67
 80067b6:	d002      	beq.n	80067be <_printf_float+0x162>
 80067b8:	f1ba 0f47 	cmp.w	sl, #71	; 0x47
 80067bc:	d1bb      	bne.n	8006736 <_printf_float+0xda>
 80067be:	b189      	cbz	r1, 80067e4 <_printf_float+0x188>
 80067c0:	2300      	movs	r3, #0
 80067c2:	9303      	str	r3, [sp, #12]
 80067c4:	ab0a      	add	r3, sp, #40	; 0x28
 80067c6:	9302      	str	r3, [sp, #8]
 80067c8:	ab09      	add	r3, sp, #36	; 0x24
 80067ca:	9300      	str	r3, [sp, #0]
 80067cc:	ec49 8b10 	vmov	d0, r8, r9
 80067d0:	6022      	str	r2, [r4, #0]
 80067d2:	f8cd a004 	str.w	sl, [sp, #4]
 80067d6:	f10d 0323 	add.w	r3, sp, #35	; 0x23
 80067da:	4628      	mov	r0, r5
 80067dc:	f7ff fea8 	bl	8006530 <__cvt>
 80067e0:	4680      	mov	r8, r0
 80067e2:	e7be      	b.n	8006762 <_printf_float+0x106>
 80067e4:	2301      	movs	r3, #1
 80067e6:	e7a5      	b.n	8006734 <_printf_float+0xd8>
 80067e8:	f1ba 0f66 	cmp.w	sl, #102	; 0x66
 80067ec:	d119      	bne.n	8006822 <_printf_float+0x1c6>
 80067ee:	2900      	cmp	r1, #0
 80067f0:	6863      	ldr	r3, [r4, #4]
 80067f2:	dd0c      	ble.n	800680e <_printf_float+0x1b2>
 80067f4:	6121      	str	r1, [r4, #16]
 80067f6:	b913      	cbnz	r3, 80067fe <_printf_float+0x1a2>
 80067f8:	6822      	ldr	r2, [r4, #0]
 80067fa:	07d2      	lsls	r2, r2, #31
 80067fc:	d502      	bpl.n	8006804 <_printf_float+0x1a8>
 80067fe:	3301      	adds	r3, #1
 8006800:	440b      	add	r3, r1
 8006802:	6123      	str	r3, [r4, #16]
 8006804:	9b09      	ldr	r3, [sp, #36]	; 0x24
 8006806:	65a3      	str	r3, [r4, #88]	; 0x58
 8006808:	f04f 0900 	mov.w	r9, #0
 800680c:	e7c9      	b.n	80067a2 <_printf_float+0x146>
 800680e:	b913      	cbnz	r3, 8006816 <_printf_float+0x1ba>
 8006810:	6822      	ldr	r2, [r4, #0]
 8006812:	07d0      	lsls	r0, r2, #31
 8006814:	d501      	bpl.n	800681a <_printf_float+0x1be>
 8006816:	3302      	adds	r3, #2
 8006818:	e7f3      	b.n	8006802 <_printf_float+0x1a6>
 800681a:	2301      	movs	r3, #1
 800681c:	e7f1      	b.n	8006802 <_printf_float+0x1a6>
 800681e:	f04f 0a67 	mov.w	sl, #103	; 0x67
 8006822:	9b09      	ldr	r3, [sp, #36]	; 0x24
 8006824:	9a0a      	ldr	r2, [sp, #40]	; 0x28
 8006826:	4293      	cmp	r3, r2
 8006828:	db05      	blt.n	8006836 <_printf_float+0x1da>
 800682a:	6822      	ldr	r2, [r4, #0]
 800682c:	6123      	str	r3, [r4, #16]
 800682e:	07d1      	lsls	r1, r2, #31
 8006830:	d5e8      	bpl.n	8006804 <_printf_float+0x1a8>
 8006832:	3301      	adds	r3, #1
 8006834:	e7e5      	b.n	8006802 <_printf_float+0x1a6>
 8006836:	2b00      	cmp	r3, #0
 8006838:	bfd4      	ite	le
 800683a:	f1c3 0302 	rsble	r3, r3, #2
 800683e:	2301      	movgt	r3, #1
 8006840:	4413      	add	r3, r2
 8006842:	e7de      	b.n	8006802 <_printf_float+0x1a6>
 8006844:	6823      	ldr	r3, [r4, #0]
 8006846:	055a      	lsls	r2, r3, #21
 8006848:	d407      	bmi.n	800685a <_printf_float+0x1fe>
 800684a:	6923      	ldr	r3, [r4, #16]
 800684c:	4642      	mov	r2, r8
 800684e:	4631      	mov	r1, r6
 8006850:	4628      	mov	r0, r5
 8006852:	47b8      	blx	r7
 8006854:	3001      	adds	r0, #1
 8006856:	d12b      	bne.n	80068b0 <_printf_float+0x254>
 8006858:	e761      	b.n	800671e <_printf_float+0xc2>
 800685a:	f1ba 0f65 	cmp.w	sl, #101	; 0x65
 800685e:	f240 80e2 	bls.w	8006a26 <_printf_float+0x3ca>
 8006862:	2200      	movs	r2, #0
 8006864:	2300      	movs	r3, #0
 8006866:	e9d4 0112 	ldrd	r0, r1, [r4, #72]	; 0x48
 800686a:	f7fa f989 	bl	8000b80 <__aeabi_dcmpeq>
 800686e:	2800      	cmp	r0, #0
 8006870:	d03c      	beq.n	80068ec <_printf_float+0x290>
 8006872:	2301      	movs	r3, #1
 8006874:	4a38      	ldr	r2, [pc, #224]	; (8006958 <_printf_float+0x2fc>)
 8006876:	4631      	mov	r1, r6
 8006878:	4628      	mov	r0, r5
 800687a:	47b8      	blx	r7
 800687c:	3001      	adds	r0, #1
 800687e:	f43f af4e 	beq.w	800671e <_printf_float+0xc2>
 8006882:	9b0a      	ldr	r3, [sp, #40]	; 0x28
 8006884:	9a09      	ldr	r2, [sp, #36]	; 0x24
 8006886:	429a      	cmp	r2, r3
 8006888:	db02      	blt.n	8006890 <_printf_float+0x234>
 800688a:	6823      	ldr	r3, [r4, #0]
 800688c:	07d8      	lsls	r0, r3, #31
 800688e:	d50f      	bpl.n	80068b0 <_printf_float+0x254>
 8006890:	9b05      	ldr	r3, [sp, #20]
 8006892:	9a04      	ldr	r2, [sp, #16]
 8006894:	4631      	mov	r1, r6
 8006896:	4628      	mov	r0, r5
 8006898:	47b8      	blx	r7
 800689a:	3001      	adds	r0, #1
 800689c:	f43f af3f 	beq.w	800671e <_printf_float+0xc2>
 80068a0:	f04f 0800 	mov.w	r8, #0
 80068a4:	f104 091a 	add.w	r9, r4, #26
 80068a8:	9b0a      	ldr	r3, [sp, #40]	; 0x28
 80068aa:	3b01      	subs	r3, #1
 80068ac:	4598      	cmp	r8, r3
 80068ae:	db12      	blt.n	80068d6 <_printf_float+0x27a>
 80068b0:	6823      	ldr	r3, [r4, #0]
 80068b2:	079b      	lsls	r3, r3, #30
 80068b4:	d509      	bpl.n	80068ca <_printf_float+0x26e>
 80068b6:	f04f 0800 	mov.w	r8, #0
 80068ba:	f104 0919 	add.w	r9, r4, #25
 80068be:	68e3      	ldr	r3, [r4, #12]
 80068c0:	9a0b      	ldr	r2, [sp, #44]	; 0x2c
 80068c2:	1a9b      	subs	r3, r3, r2
 80068c4:	4598      	cmp	r8, r3
 80068c6:	f2c0 80ee 	blt.w	8006aa6 <_printf_float+0x44a>
 80068ca:	68e0      	ldr	r0, [r4, #12]
 80068cc:	9b0b      	ldr	r3, [sp, #44]	; 0x2c
 80068ce:	4298      	cmp	r0, r3
 80068d0:	bfb8      	it	lt
 80068d2:	4618      	movlt	r0, r3
 80068d4:	e725      	b.n	8006722 <_printf_float+0xc6>
 80068d6:	2301      	movs	r3, #1
 80068d8:	464a      	mov	r2, r9
 80068da:	4631      	mov	r1, r6
 80068dc:	4628      	mov	r0, r5
 80068de:	47b8      	blx	r7
 80068e0:	3001      	adds	r0, #1
 80068e2:	f43f af1c 	beq.w	800671e <_printf_float+0xc2>
 80068e6:	f108 0801 	add.w	r8, r8, #1
 80068ea:	e7dd      	b.n	80068a8 <_printf_float+0x24c>
 80068ec:	9b09      	ldr	r3, [sp, #36]	; 0x24
 80068ee:	2b00      	cmp	r3, #0
 80068f0:	dc34      	bgt.n	800695c <_printf_float+0x300>
 80068f2:	2301      	movs	r3, #1
 80068f4:	4a18      	ldr	r2, [pc, #96]	; (8006958 <_printf_float+0x2fc>)
 80068f6:	4631      	mov	r1, r6
 80068f8:	4628      	mov	r0, r5
 80068fa:	47b8      	blx	r7
 80068fc:	3001      	adds	r0, #1
 80068fe:	f43f af0e 	beq.w	800671e <_printf_float+0xc2>
 8006902:	9b09      	ldr	r3, [sp, #36]	; 0x24
 8006904:	b923      	cbnz	r3, 8006910 <_printf_float+0x2b4>
 8006906:	9b0a      	ldr	r3, [sp, #40]	; 0x28
 8006908:	b913      	cbnz	r3, 8006910 <_printf_float+0x2b4>
 800690a:	6823      	ldr	r3, [r4, #0]
 800690c:	07d9      	lsls	r1, r3, #31
 800690e:	d5cf      	bpl.n	80068b0 <_printf_float+0x254>
 8006910:	9b05      	ldr	r3, [sp, #20]
 8006912:	9a04      	ldr	r2, [sp, #16]
 8006914:	4631      	mov	r1, r6
 8006916:	4628      	mov	r0, r5
 8006918:	47b8      	blx	r7
 800691a:	3001      	adds	r0, #1
 800691c:	f43f aeff 	beq.w	800671e <_printf_float+0xc2>
 8006920:	f04f 0900 	mov.w	r9, #0
 8006924:	f104 0a1a 	add.w	sl, r4, #26
 8006928:	9b09      	ldr	r3, [sp, #36]	; 0x24
 800692a:	425b      	negs	r3, r3
 800692c:	4599      	cmp	r9, r3
 800692e:	db01      	blt.n	8006934 <_printf_float+0x2d8>
 8006930:	9b0a      	ldr	r3, [sp, #40]	; 0x28
 8006932:	e78b      	b.n	800684c <_printf_float+0x1f0>
 8006934:	2301      	movs	r3, #1
 8006936:	4652      	mov	r2, sl
 8006938:	4631      	mov	r1, r6
 800693a:	4628      	mov	r0, r5
 800693c:	47b8      	blx	r7
 800693e:	3001      	adds	r0, #1
 8006940:	f43f aeed 	beq.w	800671e <_printf_float+0xc2>
 8006944:	f109 0901 	add.w	r9, r9, #1
 8006948:	e7ee      	b.n	8006928 <_printf_float+0x2cc>
 800694a:	bf00      	nop
 800694c:	7fefffff 	.word	0x7fefffff
 8006950:	0801ca68 	.word	0x0801ca68
 8006954:	0801ca6c 	.word	0x0801ca6c
 8006958:	0801ca78 	.word	0x0801ca78
 800695c:	9a0a      	ldr	r2, [sp, #40]	; 0x28
 800695e:	6da3      	ldr	r3, [r4, #88]	; 0x58
 8006960:	429a      	cmp	r2, r3
 8006962:	bfa8      	it	ge
 8006964:	461a      	movge	r2, r3
 8006966:	2a00      	cmp	r2, #0
 8006968:	4691      	mov	r9, r2
 800696a:	dc38      	bgt.n	80069de <_printf_float+0x382>
 800696c:	f104 031a 	add.w	r3, r4, #26
 8006970:	f04f 0b00 	mov.w	fp, #0
 8006974:	ea29 79e9 	bic.w	r9, r9, r9, asr #31
 8006978:	9306      	str	r3, [sp, #24]
 800697a:	f8d4 a058 	ldr.w	sl, [r4, #88]	; 0x58
 800697e:	ebaa 0309 	sub.w	r3, sl, r9
 8006982:	459b      	cmp	fp, r3
 8006984:	db33      	blt.n	80069ee <_printf_float+0x392>
 8006986:	9b0a      	ldr	r3, [sp, #40]	; 0x28
 8006988:	9a09      	ldr	r2, [sp, #36]	; 0x24
 800698a:	429a      	cmp	r2, r3
 800698c:	db3a      	blt.n	8006a04 <_printf_float+0x3a8>
 800698e:	6823      	ldr	r3, [r4, #0]
 8006990:	07da      	lsls	r2, r3, #31
 8006992:	d437      	bmi.n	8006a04 <_printf_float+0x3a8>
 8006994:	9b0a      	ldr	r3, [sp, #40]	; 0x28
 8006996:	9909      	ldr	r1, [sp, #36]	; 0x24
 8006998:	eba3 020a 	sub.w	r2, r3, sl
 800699c:	eba3 0901 	sub.w	r9, r3, r1
 80069a0:	4591      	cmp	r9, r2
 80069a2:	bfa8      	it	ge
 80069a4:	4691      	movge	r9, r2
 80069a6:	f1b9 0f00 	cmp.w	r9, #0
 80069aa:	dc33      	bgt.n	8006a14 <_printf_float+0x3b8>
 80069ac:	f04f 0800 	mov.w	r8, #0
 80069b0:	ea29 79e9 	bic.w	r9, r9, r9, asr #31
 80069b4:	f104 0a1a 	add.w	sl, r4, #26
 80069b8:	9a09      	ldr	r2, [sp, #36]	; 0x24
 80069ba:	9b0a      	ldr	r3, [sp, #40]	; 0x28
 80069bc:	1a9b      	subs	r3, r3, r2
 80069be:	eba3 0309 	sub.w	r3, r3, r9
 80069c2:	4598      	cmp	r8, r3
 80069c4:	f6bf af74 	bge.w	80068b0 <_printf_float+0x254>
 80069c8:	2301      	movs	r3, #1
 80069ca:	4652      	mov	r2, sl
 80069cc:	4631      	mov	r1, r6
 80069ce:	4628      	mov	r0, r5
 80069d0:	47b8      	blx	r7
 80069d2:	3001      	adds	r0, #1
 80069d4:	f43f aea3 	beq.w	800671e <_printf_float+0xc2>
 80069d8:	f108 0801 	add.w	r8, r8, #1
 80069dc:	e7ec      	b.n	80069b8 <_printf_float+0x35c>
 80069de:	4613      	mov	r3, r2
 80069e0:	4631      	mov	r1, r6
 80069e2:	4642      	mov	r2, r8
 80069e4:	4628      	mov	r0, r5
 80069e6:	47b8      	blx	r7
 80069e8:	3001      	adds	r0, #1
 80069ea:	d1bf      	bne.n	800696c <_printf_float+0x310>
 80069ec:	e697      	b.n	800671e <_printf_float+0xc2>
 80069ee:	2301      	movs	r3, #1
 80069f0:	9a06      	ldr	r2, [sp, #24]
 80069f2:	4631      	mov	r1, r6
 80069f4:	4628      	mov	r0, r5
 80069f6:	47b8      	blx	r7
 80069f8:	3001      	adds	r0, #1
 80069fa:	f43f ae90 	beq.w	800671e <_printf_float+0xc2>
 80069fe:	f10b 0b01 	add.w	fp, fp, #1
 8006a02:	e7ba      	b.n	800697a <_printf_float+0x31e>
 8006a04:	9b05      	ldr	r3, [sp, #20]
 8006a06:	9a04      	ldr	r2, [sp, #16]
 8006a08:	4631      	mov	r1, r6
 8006a0a:	4628      	mov	r0, r5
 8006a0c:	47b8      	blx	r7
 8006a0e:	3001      	adds	r0, #1
 8006a10:	d1c0      	bne.n	8006994 <_printf_float+0x338>
 8006a12:	e684      	b.n	800671e <_printf_float+0xc2>
 8006a14:	464b      	mov	r3, r9
 8006a16:	eb08 020a 	add.w	r2, r8, sl
 8006a1a:	4631      	mov	r1, r6
 8006a1c:	4628      	mov	r0, r5
 8006a1e:	47b8      	blx	r7
 8006a20:	3001      	adds	r0, #1
 8006a22:	d1c3      	bne.n	80069ac <_printf_float+0x350>
 8006a24:	e67b      	b.n	800671e <_printf_float+0xc2>
 8006a26:	9a0a      	ldr	r2, [sp, #40]	; 0x28
 8006a28:	2a01      	cmp	r2, #1
 8006a2a:	dc01      	bgt.n	8006a30 <_printf_float+0x3d4>
 8006a2c:	07db      	lsls	r3, r3, #31
 8006a2e:	d537      	bpl.n	8006aa0 <_printf_float+0x444>
 8006a30:	2301      	movs	r3, #1
 8006a32:	4642      	mov	r2, r8
 8006a34:	4631      	mov	r1, r6
 8006a36:	4628      	mov	r0, r5
 8006a38:	47b8      	blx	r7
 8006a3a:	3001      	adds	r0, #1
 8006a3c:	f43f ae6f 	beq.w	800671e <_printf_float+0xc2>
 8006a40:	9b05      	ldr	r3, [sp, #20]
 8006a42:	9a04      	ldr	r2, [sp, #16]
 8006a44:	4631      	mov	r1, r6
 8006a46:	4628      	mov	r0, r5
 8006a48:	47b8      	blx	r7
 8006a4a:	3001      	adds	r0, #1
 8006a4c:	f43f ae67 	beq.w	800671e <_printf_float+0xc2>
 8006a50:	2200      	movs	r2, #0
 8006a52:	2300      	movs	r3, #0
 8006a54:	e9d4 0112 	ldrd	r0, r1, [r4, #72]	; 0x48
 8006a58:	f7fa f892 	bl	8000b80 <__aeabi_dcmpeq>
 8006a5c:	b158      	cbz	r0, 8006a76 <_printf_float+0x41a>
 8006a5e:	f04f 0800 	mov.w	r8, #0
 8006a62:	f104 0a1a 	add.w	sl, r4, #26
 8006a66:	9b0a      	ldr	r3, [sp, #40]	; 0x28
 8006a68:	3b01      	subs	r3, #1
 8006a6a:	4598      	cmp	r8, r3
 8006a6c:	db0d      	blt.n	8006a8a <_printf_float+0x42e>
 8006a6e:	464b      	mov	r3, r9
 8006a70:	f104 0250 	add.w	r2, r4, #80	; 0x50
 8006a74:	e6eb      	b.n	800684e <_printf_float+0x1f2>
 8006a76:	9b0a      	ldr	r3, [sp, #40]	; 0x28
 8006a78:	f108 0201 	add.w	r2, r8, #1
 8006a7c:	3b01      	subs	r3, #1
 8006a7e:	4631      	mov	r1, r6
 8006a80:	4628      	mov	r0, r5
 8006a82:	47b8      	blx	r7
 8006a84:	3001      	adds	r0, #1
 8006a86:	d1f2      	bne.n	8006a6e <_printf_float+0x412>
 8006a88:	e649      	b.n	800671e <_printf_float+0xc2>
 8006a8a:	2301      	movs	r3, #1
 8006a8c:	4652      	mov	r2, sl
 8006a8e:	4631      	mov	r1, r6
 8006a90:	4628      	mov	r0, r5
 8006a92:	47b8      	blx	r7
 8006a94:	3001      	adds	r0, #1
 8006a96:	f43f ae42 	beq.w	800671e <_printf_float+0xc2>
 8006a9a:	f108 0801 	add.w	r8, r8, #1
 8006a9e:	e7e2      	b.n	8006a66 <_printf_float+0x40a>
 8006aa0:	2301      	movs	r3, #1
 8006aa2:	4642      	mov	r2, r8
 8006aa4:	e7eb      	b.n	8006a7e <_printf_float+0x422>
 8006aa6:	2301      	movs	r3, #1
 8006aa8:	464a      	mov	r2, r9
 8006aaa:	4631      	mov	r1, r6
 8006aac:	4628      	mov	r0, r5
 8006aae:	47b8      	blx	r7
 8006ab0:	3001      	adds	r0, #1
 8006ab2:	f43f ae34 	beq.w	800671e <_printf_float+0xc2>
 8006ab6:	f108 0801 	add.w	r8, r8, #1
 8006aba:	e700      	b.n	80068be <_printf_float+0x262>
 8006abc:	4642      	mov	r2, r8
 8006abe:	464b      	mov	r3, r9
 8006ac0:	4640      	mov	r0, r8
 8006ac2:	4649      	mov	r1, r9
 8006ac4:	f7fa f88e 	bl	8000be4 <__aeabi_dcmpun>
 8006ac8:	2800      	cmp	r0, #0
 8006aca:	f43f ae2d 	beq.w	8006728 <_printf_float+0xcc>
 8006ace:	4b01      	ldr	r3, [pc, #4]	; (8006ad4 <_printf_float+0x478>)
 8006ad0:	4a01      	ldr	r2, [pc, #4]	; (8006ad8 <_printf_float+0x47c>)
 8006ad2:	e60e      	b.n	80066f2 <_printf_float+0x96>
 8006ad4:	0801ca70 	.word	0x0801ca70
 8006ad8:	0801ca74 	.word	0x0801ca74

08006adc <_printf_common>:
 8006adc:	e92d 47f0 	stmdb	sp!, {r4, r5, r6, r7, r8, r9, sl, lr}
 8006ae0:	4691      	mov	r9, r2
 8006ae2:	461f      	mov	r7, r3
 8006ae4:	688a      	ldr	r2, [r1, #8]
 8006ae6:	690b      	ldr	r3, [r1, #16]
 8006ae8:	f8dd 8020 	ldr.w	r8, [sp, #32]
 8006aec:	4293      	cmp	r3, r2
 8006aee:	bfb8      	it	lt
 8006af0:	4613      	movlt	r3, r2
 8006af2:	f8c9 3000 	str.w	r3, [r9]
 8006af6:	f891 2043 	ldrb.w	r2, [r1, #67]	; 0x43
 8006afa:	4606      	mov	r6, r0
 8006afc:	460c      	mov	r4, r1
 8006afe:	b112      	cbz	r2, 8006b06 <_printf_common+0x2a>
 8006b00:	3301      	adds	r3, #1
 8006b02:	f8c9 3000 	str.w	r3, [r9]
 8006b06:	6823      	ldr	r3, [r4, #0]
 8006b08:	0699      	lsls	r1, r3, #26
 8006b0a:	bf42      	ittt	mi
 8006b0c:	f8d9 3000 	ldrmi.w	r3, [r9]
 8006b10:	3302      	addmi	r3, #2
 8006b12:	f8c9 3000 	strmi.w	r3, [r9]
 8006b16:	6825      	ldr	r5, [r4, #0]
 8006b18:	f015 0506 	ands.w	r5, r5, #6
 8006b1c:	d107      	bne.n	8006b2e <_printf_common+0x52>
 8006b1e:	f104 0a19 	add.w	sl, r4, #25
 8006b22:	68e3      	ldr	r3, [r4, #12]
 8006b24:	f8d9 2000 	ldr.w	r2, [r9]
 8006b28:	1a9b      	subs	r3, r3, r2
 8006b2a:	429d      	cmp	r5, r3
 8006b2c:	db29      	blt.n	8006b82 <_printf_common+0xa6>
 8006b2e:	f894 3043 	ldrb.w	r3, [r4, #67]	; 0x43
 8006b32:	6822      	ldr	r2, [r4, #0]
 8006b34:	3300      	adds	r3, #0
 8006b36:	bf18      	it	ne
 8006b38:	2301      	movne	r3, #1
 8006b3a:	0692      	lsls	r2, r2, #26
 8006b3c:	d42e      	bmi.n	8006b9c <_printf_common+0xc0>
 8006b3e:	f104 0243 	add.w	r2, r4, #67	; 0x43
 8006b42:	4639      	mov	r1, r7
 8006b44:	4630      	mov	r0, r6
 8006b46:	47c0      	blx	r8
 8006b48:	3001      	adds	r0, #1
 8006b4a:	d021      	beq.n	8006b90 <_printf_common+0xb4>
 8006b4c:	6823      	ldr	r3, [r4, #0]
 8006b4e:	68e5      	ldr	r5, [r4, #12]
 8006b50:	f8d9 2000 	ldr.w	r2, [r9]
 8006b54:	f003 0306 	and.w	r3, r3, #6
 8006b58:	2b04      	cmp	r3, #4
 8006b5a:	bf08      	it	eq
 8006b5c:	1aad      	subeq	r5, r5, r2
 8006b5e:	68a3      	ldr	r3, [r4, #8]
 8006b60:	6922      	ldr	r2, [r4, #16]
 8006b62:	bf0c      	ite	eq
 8006b64:	ea25 75e5 	biceq.w	r5, r5, r5, asr #31
 8006b68:	2500      	movne	r5, #0
 8006b6a:	4293      	cmp	r3, r2
 8006b6c:	bfc4      	itt	gt
 8006b6e:	1a9b      	subgt	r3, r3, r2
 8006b70:	18ed      	addgt	r5, r5, r3
 8006b72:	f04f 0900 	mov.w	r9, #0
 8006b76:	341a      	adds	r4, #26
 8006b78:	454d      	cmp	r5, r9
 8006b7a:	d11b      	bne.n	8006bb4 <_printf_common+0xd8>
 8006b7c:	2000      	movs	r0, #0
 8006b7e:	e8bd 87f0 	ldmia.w	sp!, {r4, r5, r6, r7, r8, r9, sl, pc}
 8006b82:	2301      	movs	r3, #1
 8006b84:	4652      	mov	r2, sl
 8006b86:	4639      	mov	r1, r7
 8006b88:	4630      	mov	r0, r6
 8006b8a:	47c0      	blx	r8
 8006b8c:	3001      	adds	r0, #1
 8006b8e:	d103      	bne.n	8006b98 <_printf_common+0xbc>
 8006b90:	f04f 30ff 	mov.w	r0, #4294967295
 8006b94:	e8bd 87f0 	ldmia.w	sp!, {r4, r5, r6, r7, r8, r9, sl, pc}
 8006b98:	3501      	adds	r5, #1
 8006b9a:	e7c2      	b.n	8006b22 <_printf_common+0x46>
 8006b9c:	18e1      	adds	r1, r4, r3
 8006b9e:	1c5a      	adds	r2, r3, #1
 8006ba0:	2030      	movs	r0, #48	; 0x30
 8006ba2:	f881 0043 	strb.w	r0, [r1, #67]	; 0x43
 8006ba6:	4422      	add	r2, r4
 8006ba8:	f894 1045 	ldrb.w	r1, [r4, #69]	; 0x45
 8006bac:	f882 1043 	strb.w	r1, [r2, #67]	; 0x43
 8006bb0:	3302      	adds	r3, #2
 8006bb2:	e7c4      	b.n	8006b3e <_printf_common+0x62>
 8006bb4:	2301      	movs	r3, #1
 8006bb6:	4622      	mov	r2, r4
 8006bb8:	4639      	mov	r1, r7
 8006bba:	4630      	mov	r0, r6
 8006bbc:	47c0      	blx	r8
 8006bbe:	3001      	adds	r0, #1
 8006bc0:	d0e6      	beq.n	8006b90 <_printf_common+0xb4>
 8006bc2:	f109 0901 	add.w	r9, r9, #1
 8006bc6:	e7d7      	b.n	8006b78 <_printf_common+0x9c>

08006bc8 <_printf_i>:
 8006bc8:	e92d 43f0 	stmdb	sp!, {r4, r5, r6, r7, r8, r9, lr}
 8006bcc:	4617      	mov	r7, r2
 8006bce:	7e0a      	ldrb	r2, [r1, #24]
 8006bd0:	b085      	sub	sp, #20
 8006bd2:	2a6e      	cmp	r2, #110	; 0x6e
 8006bd4:	4698      	mov	r8, r3
 8006bd6:	4606      	mov	r6, r0
 8006bd8:	460c      	mov	r4, r1
 8006bda:	9b0c      	ldr	r3, [sp, #48]	; 0x30
 8006bdc:	f101 0e43 	add.w	lr, r1, #67	; 0x43
 8006be0:	f000 80bc 	beq.w	8006d5c <_printf_i+0x194>
 8006be4:	d81a      	bhi.n	8006c1c <_printf_i+0x54>
 8006be6:	2a63      	cmp	r2, #99	; 0x63
 8006be8:	d02e      	beq.n	8006c48 <_printf_i+0x80>
 8006bea:	d80a      	bhi.n	8006c02 <_printf_i+0x3a>
 8006bec:	2a00      	cmp	r2, #0
 8006bee:	f000 80c8 	beq.w	8006d82 <_printf_i+0x1ba>
 8006bf2:	2a58      	cmp	r2, #88	; 0x58
 8006bf4:	f000 808a 	beq.w	8006d0c <_printf_i+0x144>
 8006bf8:	f104 0542 	add.w	r5, r4, #66	; 0x42
 8006bfc:	f884 2042 	strb.w	r2, [r4, #66]	; 0x42
 8006c00:	e02a      	b.n	8006c58 <_printf_i+0x90>
 8006c02:	2a64      	cmp	r2, #100	; 0x64
 8006c04:	d001      	beq.n	8006c0a <_printf_i+0x42>
 8006c06:	2a69      	cmp	r2, #105	; 0x69
 8006c08:	d1f6      	bne.n	8006bf8 <_printf_i+0x30>
 8006c0a:	6821      	ldr	r1, [r4, #0]
 8006c0c:	681a      	ldr	r2, [r3, #0]
 8006c0e:	f011 0f80 	tst.w	r1, #128	; 0x80
 8006c12:	d023      	beq.n	8006c5c <_printf_i+0x94>
 8006c14:	1d11      	adds	r1, r2, #4
 8006c16:	6019      	str	r1, [r3, #0]
 8006c18:	6813      	ldr	r3, [r2, #0]
 8006c1a:	e027      	b.n	8006c6c <_printf_i+0xa4>
 8006c1c:	2a73      	cmp	r2, #115	; 0x73
 8006c1e:	f000 80b4 	beq.w	8006d8a <_printf_i+0x1c2>
 8006c22:	d808      	bhi.n	8006c36 <_printf_i+0x6e>
 8006c24:	2a6f      	cmp	r2, #111	; 0x6f
 8006c26:	d02a      	beq.n	8006c7e <_printf_i+0xb6>
 8006c28:	2a70      	cmp	r2, #112	; 0x70
 8006c2a:	d1e5      	bne.n	8006bf8 <_printf_i+0x30>
 8006c2c:	680a      	ldr	r2, [r1, #0]
 8006c2e:	f042 0220 	orr.w	r2, r2, #32
 8006c32:	600a      	str	r2, [r1, #0]
 8006c34:	e003      	b.n	8006c3e <_printf_i+0x76>
 8006c36:	2a75      	cmp	r2, #117	; 0x75
 8006c38:	d021      	beq.n	8006c7e <_printf_i+0xb6>
 8006c3a:	2a78      	cmp	r2, #120	; 0x78
 8006c3c:	d1dc      	bne.n	8006bf8 <_printf_i+0x30>
 8006c3e:	2278      	movs	r2, #120	; 0x78
 8006c40:	f884 2045 	strb.w	r2, [r4, #69]	; 0x45
 8006c44:	496e      	ldr	r1, [pc, #440]	; (8006e00 <_printf_i+0x238>)
 8006c46:	e064      	b.n	8006d12 <_printf_i+0x14a>
 8006c48:	681a      	ldr	r2, [r3, #0]
 8006c4a:	f101 0542 	add.w	r5, r1, #66	; 0x42
 8006c4e:	1d11      	adds	r1, r2, #4
 8006c50:	6019      	str	r1, [r3, #0]
 8006c52:	6813      	ldr	r3, [r2, #0]
 8006c54:	f884 3042 	strb.w	r3, [r4, #66]	; 0x42
 8006c58:	2301      	movs	r3, #1
 8006c5a:	e0a3      	b.n	8006da4 <_printf_i+0x1dc>
 8006c5c:	f011 0f40 	tst.w	r1, #64	; 0x40
 8006c60:	f102 0104 	add.w	r1, r2, #4
 8006c64:	6019      	str	r1, [r3, #0]
 8006c66:	d0d7      	beq.n	8006c18 <_printf_i+0x50>
 8006c68:	f9b2 3000 	ldrsh.w	r3, [r2]
 8006c6c:	2b00      	cmp	r3, #0
 8006c6e:	da03      	bge.n	8006c78 <_printf_i+0xb0>
 8006c70:	222d      	movs	r2, #45	; 0x2d
 8006c72:	425b      	negs	r3, r3
 8006c74:	f884 2043 	strb.w	r2, [r4, #67]	; 0x43
 8006c78:	4962      	ldr	r1, [pc, #392]	; (8006e04 <_printf_i+0x23c>)
 8006c7a:	220a      	movs	r2, #10
 8006c7c:	e017      	b.n	8006cae <_printf_i+0xe6>
 8006c7e:	6820      	ldr	r0, [r4, #0]
 8006c80:	6819      	ldr	r1, [r3, #0]
 8006c82:	f010 0f80 	tst.w	r0, #128	; 0x80
 8006c86:	d003      	beq.n	8006c90 <_printf_i+0xc8>
 8006c88:	1d08      	adds	r0, r1, #4
 8006c8a:	6018      	str	r0, [r3, #0]
 8006c8c:	680b      	ldr	r3, [r1, #0]
 8006c8e:	e006      	b.n	8006c9e <_printf_i+0xd6>
 8006c90:	f010 0f40 	tst.w	r0, #64	; 0x40
 8006c94:	f101 0004 	add.w	r0, r1, #4
 8006c98:	6018      	str	r0, [r3, #0]
 8006c9a:	d0f7      	beq.n	8006c8c <_printf_i+0xc4>
 8006c9c:	880b      	ldrh	r3, [r1, #0]
 8006c9e:	4959      	ldr	r1, [pc, #356]	; (8006e04 <_printf_i+0x23c>)
 8006ca0:	2a6f      	cmp	r2, #111	; 0x6f
 8006ca2:	bf14      	ite	ne
 8006ca4:	220a      	movne	r2, #10
 8006ca6:	2208      	moveq	r2, #8
 8006ca8:	2000      	movs	r0, #0
 8006caa:	f884 0043 	strb.w	r0, [r4, #67]	; 0x43
 8006cae:	6865      	ldr	r5, [r4, #4]
 8006cb0:	60a5      	str	r5, [r4, #8]
 8006cb2:	2d00      	cmp	r5, #0
 8006cb4:	f2c0 809c 	blt.w	8006df0 <_printf_i+0x228>
 8006cb8:	6820      	ldr	r0, [r4, #0]
 8006cba:	f020 0004 	bic.w	r0, r0, #4
 8006cbe:	6020      	str	r0, [r4, #0]
 8006cc0:	2b00      	cmp	r3, #0
 8006cc2:	d13f      	bne.n	8006d44 <_printf_i+0x17c>
 8006cc4:	2d00      	cmp	r5, #0
 8006cc6:	f040 8095 	bne.w	8006df4 <_printf_i+0x22c>
 8006cca:	4675      	mov	r5, lr
 8006ccc:	2a08      	cmp	r2, #8
 8006cce:	d10b      	bne.n	8006ce8 <_printf_i+0x120>
 8006cd0:	6823      	ldr	r3, [r4, #0]
 8006cd2:	07da      	lsls	r2, r3, #31
 8006cd4:	d508      	bpl.n	8006ce8 <_printf_i+0x120>
 8006cd6:	6923      	ldr	r3, [r4, #16]
 8006cd8:	6862      	ldr	r2, [r4, #4]
 8006cda:	429a      	cmp	r2, r3
 8006cdc:	bfde      	ittt	le
 8006cde:	2330      	movle	r3, #48	; 0x30
 8006ce0:	f805 3c01 	strble.w	r3, [r5, #-1]
 8006ce4:	f105 35ff 	addle.w	r5, r5, #4294967295
 8006ce8:	ebae 0305 	sub.w	r3, lr, r5
 8006cec:	6123      	str	r3, [r4, #16]
 8006cee:	f8cd 8000 	str.w	r8, [sp]
 8006cf2:	463b      	mov	r3, r7
 8006cf4:	aa03      	add	r2, sp, #12
 8006cf6:	4621      	mov	r1, r4
 8006cf8:	4630      	mov	r0, r6
 8006cfa:	f7ff feef 	bl	8006adc <_printf_common>
 8006cfe:	3001      	adds	r0, #1
 8006d00:	d155      	bne.n	8006dae <_printf_i+0x1e6>
 8006d02:	f04f 30ff 	mov.w	r0, #4294967295
 8006d06:	b005      	add	sp, #20
 8006d08:	e8bd 83f0 	ldmia.w	sp!, {r4, r5, r6, r7, r8, r9, pc}
 8006d0c:	f881 2045 	strb.w	r2, [r1, #69]	; 0x45
 8006d10:	493c      	ldr	r1, [pc, #240]	; (8006e04 <_printf_i+0x23c>)
 8006d12:	6822      	ldr	r2, [r4, #0]
 8006d14:	6818      	ldr	r0, [r3, #0]
 8006d16:	f012 0f80 	tst.w	r2, #128	; 0x80
 8006d1a:	f100 0504 	add.w	r5, r0, #4
 8006d1e:	601d      	str	r5, [r3, #0]
 8006d20:	d001      	beq.n	8006d26 <_printf_i+0x15e>
 8006d22:	6803      	ldr	r3, [r0, #0]
 8006d24:	e002      	b.n	8006d2c <_printf_i+0x164>
 8006d26:	0655      	lsls	r5, r2, #25
 8006d28:	d5fb      	bpl.n	8006d22 <_printf_i+0x15a>
 8006d2a:	8803      	ldrh	r3, [r0, #0]
 8006d2c:	07d0      	lsls	r0, r2, #31
 8006d2e:	bf44      	itt	mi
 8006d30:	f042 0220 	orrmi.w	r2, r2, #32
 8006d34:	6022      	strmi	r2, [r4, #0]
 8006d36:	b91b      	cbnz	r3, 8006d40 <_printf_i+0x178>
 8006d38:	6822      	ldr	r2, [r4, #0]
 8006d3a:	f022 0220 	bic.w	r2, r2, #32
 8006d3e:	6022      	str	r2, [r4, #0]
 8006d40:	2210      	movs	r2, #16
 8006d42:	e7b1      	b.n	8006ca8 <_printf_i+0xe0>
 8006d44:	4675      	mov	r5, lr
 8006d46:	fbb3 f0f2 	udiv	r0, r3, r2
 8006d4a:	fb02 3310 	mls	r3, r2, r0, r3
 8006d4e:	5ccb      	ldrb	r3, [r1, r3]
 8006d50:	f805 3d01 	strb.w	r3, [r5, #-1]!
 8006d54:	4603      	mov	r3, r0
 8006d56:	2800      	cmp	r0, #0
 8006d58:	d1f5      	bne.n	8006d46 <_printf_i+0x17e>
 8006d5a:	e7b7      	b.n	8006ccc <_printf_i+0x104>
 8006d5c:	6808      	ldr	r0, [r1, #0]
 8006d5e:	681a      	ldr	r2, [r3, #0]
 8006d60:	6949      	ldr	r1, [r1, #20]
 8006d62:	f010 0f80 	tst.w	r0, #128	; 0x80
 8006d66:	d004      	beq.n	8006d72 <_printf_i+0x1aa>
 8006d68:	1d10      	adds	r0, r2, #4
 8006d6a:	6018      	str	r0, [r3, #0]
 8006d6c:	6813      	ldr	r3, [r2, #0]
 8006d6e:	6019      	str	r1, [r3, #0]
 8006d70:	e007      	b.n	8006d82 <_printf_i+0x1ba>
 8006d72:	f010 0f40 	tst.w	r0, #64	; 0x40
 8006d76:	f102 0004 	add.w	r0, r2, #4
 8006d7a:	6018      	str	r0, [r3, #0]
 8006d7c:	6813      	ldr	r3, [r2, #0]
 8006d7e:	d0f6      	beq.n	8006d6e <_printf_i+0x1a6>
 8006d80:	8019      	strh	r1, [r3, #0]
 8006d82:	2300      	movs	r3, #0
 8006d84:	6123      	str	r3, [r4, #16]
 8006d86:	4675      	mov	r5, lr
 8006d88:	e7b1      	b.n	8006cee <_printf_i+0x126>
 8006d8a:	681a      	ldr	r2, [r3, #0]
 8006d8c:	1d11      	adds	r1, r2, #4
 8006d8e:	6019      	str	r1, [r3, #0]
 8006d90:	6815      	ldr	r5, [r2, #0]
 8006d92:	6862      	ldr	r2, [r4, #4]
 8006d94:	2100      	movs	r1, #0
 8006d96:	4628      	mov	r0, r5
 8006d98:	f7f9 fa82 	bl	80002a0 <memchr>
 8006d9c:	b108      	cbz	r0, 8006da2 <_printf_i+0x1da>
 8006d9e:	1b40      	subs	r0, r0, r5
 8006da0:	6060      	str	r0, [r4, #4]
 8006da2:	6863      	ldr	r3, [r4, #4]
 8006da4:	6123      	str	r3, [r4, #16]
 8006da6:	2300      	movs	r3, #0
 8006da8:	f884 3043 	strb.w	r3, [r4, #67]	; 0x43
 8006dac:	e79f      	b.n	8006cee <_printf_i+0x126>
 8006dae:	6923      	ldr	r3, [r4, #16]
 8006db0:	462a      	mov	r2, r5
 8006db2:	4639      	mov	r1, r7
 8006db4:	4630      	mov	r0, r6
 8006db6:	47c0      	blx	r8
 8006db8:	3001      	adds	r0, #1
 8006dba:	d0a2      	beq.n	8006d02 <_printf_i+0x13a>
 8006dbc:	6823      	ldr	r3, [r4, #0]
 8006dbe:	079b      	lsls	r3, r3, #30
 8006dc0:	d507      	bpl.n	8006dd2 <_printf_i+0x20a>
 8006dc2:	2500      	movs	r5, #0
 8006dc4:	f104 0919 	add.w	r9, r4, #25
 8006dc8:	68e3      	ldr	r3, [r4, #12]
 8006dca:	9a03      	ldr	r2, [sp, #12]
 8006dcc:	1a9b      	subs	r3, r3, r2
 8006dce:	429d      	cmp	r5, r3
 8006dd0:	db05      	blt.n	8006dde <_printf_i+0x216>
 8006dd2:	68e0      	ldr	r0, [r4, #12]
 8006dd4:	9b03      	ldr	r3, [sp, #12]
 8006dd6:	4298      	cmp	r0, r3
 8006dd8:	bfb8      	it	lt
 8006dda:	4618      	movlt	r0, r3
 8006ddc:	e793      	b.n	8006d06 <_printf_i+0x13e>
 8006dde:	2301      	movs	r3, #1
 8006de0:	464a      	mov	r2, r9
 8006de2:	4639      	mov	r1, r7
 8006de4:	4630      	mov	r0, r6
 8006de6:	47c0      	blx	r8
 8006de8:	3001      	adds	r0, #1
 8006dea:	d08a      	beq.n	8006d02 <_printf_i+0x13a>
 8006dec:	3501      	adds	r5, #1
 8006dee:	e7eb      	b.n	8006dc8 <_printf_i+0x200>
 8006df0:	2b00      	cmp	r3, #0
 8006df2:	d1a7      	bne.n	8006d44 <_printf_i+0x17c>
 8006df4:	780b      	ldrb	r3, [r1, #0]
 8006df6:	f884 3042 	strb.w	r3, [r4, #66]	; 0x42
 8006dfa:	f104 0542 	add.w	r5, r4, #66	; 0x42
 8006dfe:	e765      	b.n	8006ccc <_printf_i+0x104>
 8006e00:	0801ca8b 	.word	0x0801ca8b
 8006e04:	0801ca7a 	.word	0x0801ca7a

08006e08 <iprintf>:
 8006e08:	b40f      	push	{r0, r1, r2, r3}
 8006e0a:	4b0a      	ldr	r3, [pc, #40]	; (8006e34 <iprintf+0x2c>)
 8006e0c:	b513      	push	{r0, r1, r4, lr}
 8006e0e:	681c      	ldr	r4, [r3, #0]
 8006e10:	b124      	cbz	r4, 8006e1c <iprintf+0x14>
 8006e12:	69a3      	ldr	r3, [r4, #24]
 8006e14:	b913      	cbnz	r3, 8006e1c <iprintf+0x14>
 8006e16:	4620      	mov	r0, r4
 8006e18:	f001 f87e 	bl	8007f18 <__sinit>
 8006e1c:	ab05      	add	r3, sp, #20
 8006e1e:	9a04      	ldr	r2, [sp, #16]
 8006e20:	68a1      	ldr	r1, [r4, #8]
 8006e22:	9301      	str	r3, [sp, #4]
 8006e24:	4620      	mov	r0, r4
 8006e26:	f001 fd43 	bl	80088b0 <_vfiprintf_r>
 8006e2a:	b002      	add	sp, #8
 8006e2c:	e8bd 4010 	ldmia.w	sp!, {r4, lr}
 8006e30:	b004      	add	sp, #16
 8006e32:	4770      	bx	lr
 8006e34:	2000000c 	.word	0x2000000c

08006e38 <_puts_r>:
 8006e38:	b570      	push	{r4, r5, r6, lr}
 8006e3a:	460e      	mov	r6, r1
 8006e3c:	4605      	mov	r5, r0
 8006e3e:	b118      	cbz	r0, 8006e48 <_puts_r+0x10>
 8006e40:	6983      	ldr	r3, [r0, #24]
 8006e42:	b90b      	cbnz	r3, 8006e48 <_puts_r+0x10>
 8006e44:	f001 f868 	bl	8007f18 <__sinit>
 8006e48:	69ab      	ldr	r3, [r5, #24]
 8006e4a:	68ac      	ldr	r4, [r5, #8]
 8006e4c:	b913      	cbnz	r3, 8006e54 <_puts_r+0x1c>
 8006e4e:	4628      	mov	r0, r5
 8006e50:	f001 f862 	bl	8007f18 <__sinit>
 8006e54:	4b23      	ldr	r3, [pc, #140]	; (8006ee4 <_puts_r+0xac>)
 8006e56:	429c      	cmp	r4, r3
 8006e58:	d117      	bne.n	8006e8a <_puts_r+0x52>
 8006e5a:	686c      	ldr	r4, [r5, #4]
 8006e5c:	89a3      	ldrh	r3, [r4, #12]
 8006e5e:	071b      	lsls	r3, r3, #28
 8006e60:	d51d      	bpl.n	8006e9e <_puts_r+0x66>
 8006e62:	6923      	ldr	r3, [r4, #16]
 8006e64:	b1db      	cbz	r3, 8006e9e <_puts_r+0x66>
 8006e66:	3e01      	subs	r6, #1
 8006e68:	68a3      	ldr	r3, [r4, #8]
 8006e6a:	f816 1f01 	ldrb.w	r1, [r6, #1]!
 8006e6e:	3b01      	subs	r3, #1
 8006e70:	60a3      	str	r3, [r4, #8]
 8006e72:	b9e9      	cbnz	r1, 8006eb0 <_puts_r+0x78>
 8006e74:	2b00      	cmp	r3, #0
 8006e76:	da2e      	bge.n	8006ed6 <_puts_r+0x9e>
 8006e78:	4622      	mov	r2, r4
 8006e7a:	210a      	movs	r1, #10
 8006e7c:	4628      	mov	r0, r5
 8006e7e:	f000 f83f 	bl	8006f00 <__swbuf_r>
 8006e82:	3001      	adds	r0, #1
 8006e84:	d011      	beq.n	8006eaa <_puts_r+0x72>
 8006e86:	200a      	movs	r0, #10
 8006e88:	bd70      	pop	{r4, r5, r6, pc}
 8006e8a:	4b17      	ldr	r3, [pc, #92]	; (8006ee8 <_puts_r+0xb0>)
 8006e8c:	429c      	cmp	r4, r3
 8006e8e:	d101      	bne.n	8006e94 <_puts_r+0x5c>
 8006e90:	68ac      	ldr	r4, [r5, #8]
 8006e92:	e7e3      	b.n	8006e5c <_puts_r+0x24>
 8006e94:	4b15      	ldr	r3, [pc, #84]	; (8006eec <_puts_r+0xb4>)
 8006e96:	429c      	cmp	r4, r3
 8006e98:	bf08      	it	eq
 8006e9a:	68ec      	ldreq	r4, [r5, #12]
 8006e9c:	e7de      	b.n	8006e5c <_puts_r+0x24>
 8006e9e:	4621      	mov	r1, r4
 8006ea0:	4628      	mov	r0, r5
 8006ea2:	f000 f87f 	bl	8006fa4 <__swsetup_r>
 8006ea6:	2800      	cmp	r0, #0
 8006ea8:	d0dd      	beq.n	8006e66 <_puts_r+0x2e>
 8006eaa:	f04f 30ff 	mov.w	r0, #4294967295
 8006eae:	bd70      	pop	{r4, r5, r6, pc}
 8006eb0:	2b00      	cmp	r3, #0
 8006eb2:	da04      	bge.n	8006ebe <_puts_r+0x86>
 8006eb4:	69a2      	ldr	r2, [r4, #24]
 8006eb6:	4293      	cmp	r3, r2
 8006eb8:	db06      	blt.n	8006ec8 <_puts_r+0x90>
 8006eba:	290a      	cmp	r1, #10
 8006ebc:	d004      	beq.n	8006ec8 <_puts_r+0x90>
 8006ebe:	6823      	ldr	r3, [r4, #0]
 8006ec0:	1c5a      	adds	r2, r3, #1
 8006ec2:	6022      	str	r2, [r4, #0]
 8006ec4:	7019      	strb	r1, [r3, #0]
 8006ec6:	e7cf      	b.n	8006e68 <_puts_r+0x30>
 8006ec8:	4622      	mov	r2, r4
 8006eca:	4628      	mov	r0, r5
 8006ecc:	f000 f818 	bl	8006f00 <__swbuf_r>
 8006ed0:	3001      	adds	r0, #1
 8006ed2:	d1c9      	bne.n	8006e68 <_puts_r+0x30>
 8006ed4:	e7e9      	b.n	8006eaa <_puts_r+0x72>
 8006ed6:	6823      	ldr	r3, [r4, #0]
 8006ed8:	200a      	movs	r0, #10
 8006eda:	1c5a      	adds	r2, r3, #1
 8006edc:	6022      	str	r2, [r4, #0]
 8006ede:	7018      	strb	r0, [r3, #0]
 8006ee0:	bd70      	pop	{r4, r5, r6, pc}
 8006ee2:	bf00      	nop
 8006ee4:	0801cacc 	.word	0x0801cacc
 8006ee8:	0801caec 	.word	0x0801caec
 8006eec:	0801caac 	.word	0x0801caac

08006ef0 <puts>:
 8006ef0:	4b02      	ldr	r3, [pc, #8]	; (8006efc <puts+0xc>)
 8006ef2:	4601      	mov	r1, r0
 8006ef4:	6818      	ldr	r0, [r3, #0]
 8006ef6:	f7ff bf9f 	b.w	8006e38 <_puts_r>
 8006efa:	bf00      	nop
 8006efc:	2000000c 	.word	0x2000000c

08006f00 <__swbuf_r>:
 8006f00:	b5f8      	push	{r3, r4, r5, r6, r7, lr}
 8006f02:	460e      	mov	r6, r1
 8006f04:	4614      	mov	r4, r2
 8006f06:	4605      	mov	r5, r0
 8006f08:	b118      	cbz	r0, 8006f12 <__swbuf_r+0x12>
 8006f0a:	6983      	ldr	r3, [r0, #24]
 8006f0c:	b90b      	cbnz	r3, 8006f12 <__swbuf_r+0x12>
 8006f0e:	f001 f803 	bl	8007f18 <__sinit>
 8006f12:	4b21      	ldr	r3, [pc, #132]	; (8006f98 <__swbuf_r+0x98>)
 8006f14:	429c      	cmp	r4, r3
 8006f16:	d12a      	bne.n	8006f6e <__swbuf_r+0x6e>
 8006f18:	686c      	ldr	r4, [r5, #4]
 8006f1a:	69a3      	ldr	r3, [r4, #24]
 8006f1c:	60a3      	str	r3, [r4, #8]
 8006f1e:	89a3      	ldrh	r3, [r4, #12]
 8006f20:	071a      	lsls	r2, r3, #28
 8006f22:	d52e      	bpl.n	8006f82 <__swbuf_r+0x82>
 8006f24:	6923      	ldr	r3, [r4, #16]
 8006f26:	b363      	cbz	r3, 8006f82 <__swbuf_r+0x82>
 8006f28:	6923      	ldr	r3, [r4, #16]
 8006f2a:	6820      	ldr	r0, [r4, #0]
 8006f2c:	1ac0      	subs	r0, r0, r3
 8006f2e:	6963      	ldr	r3, [r4, #20]
 8006f30:	b2f6      	uxtb	r6, r6
 8006f32:	4298      	cmp	r0, r3
 8006f34:	4637      	mov	r7, r6
 8006f36:	db04      	blt.n	8006f42 <__swbuf_r+0x42>
 8006f38:	4621      	mov	r1, r4
 8006f3a:	4628      	mov	r0, r5
 8006f3c:	f000 ff82 	bl	8007e44 <_fflush_r>
 8006f40:	bb28      	cbnz	r0, 8006f8e <__swbuf_r+0x8e>
 8006f42:	68a3      	ldr	r3, [r4, #8]
 8006f44:	3b01      	subs	r3, #1
 8006f46:	60a3      	str	r3, [r4, #8]
 8006f48:	6823      	ldr	r3, [r4, #0]
 8006f4a:	1c5a      	adds	r2, r3, #1
 8006f4c:	6022      	str	r2, [r4, #0]
 8006f4e:	701e      	strb	r6, [r3, #0]
 8006f50:	6963      	ldr	r3, [r4, #20]
 8006f52:	3001      	adds	r0, #1
 8006f54:	4298      	cmp	r0, r3
 8006f56:	d004      	beq.n	8006f62 <__swbuf_r+0x62>
 8006f58:	89a3      	ldrh	r3, [r4, #12]
 8006f5a:	07db      	lsls	r3, r3, #31
 8006f5c:	d519      	bpl.n	8006f92 <__swbuf_r+0x92>
 8006f5e:	2e0a      	cmp	r6, #10
 8006f60:	d117      	bne.n	8006f92 <__swbuf_r+0x92>
 8006f62:	4621      	mov	r1, r4
 8006f64:	4628      	mov	r0, r5
 8006f66:	f000 ff6d 	bl	8007e44 <_fflush_r>
 8006f6a:	b190      	cbz	r0, 8006f92 <__swbuf_r+0x92>
 8006f6c:	e00f      	b.n	8006f8e <__swbuf_r+0x8e>
 8006f6e:	4b0b      	ldr	r3, [pc, #44]	; (8006f9c <__swbuf_r+0x9c>)
 8006f70:	429c      	cmp	r4, r3
 8006f72:	d101      	bne.n	8006f78 <__swbuf_r+0x78>
 8006f74:	68ac      	ldr	r4, [r5, #8]
 8006f76:	e7d0      	b.n	8006f1a <__swbuf_r+0x1a>
 8006f78:	4b09      	ldr	r3, [pc, #36]	; (8006fa0 <__swbuf_r+0xa0>)
 8006f7a:	429c      	cmp	r4, r3
 8006f7c:	bf08      	it	eq
 8006f7e:	68ec      	ldreq	r4, [r5, #12]
 8006f80:	e7cb      	b.n	8006f1a <__swbuf_r+0x1a>
 8006f82:	4621      	mov	r1, r4
 8006f84:	4628      	mov	r0, r5
 8006f86:	f000 f80d 	bl	8006fa4 <__swsetup_r>
 8006f8a:	2800      	cmp	r0, #0
 8006f8c:	d0cc      	beq.n	8006f28 <__swbuf_r+0x28>
 8006f8e:	f04f 37ff 	mov.w	r7, #4294967295
 8006f92:	4638      	mov	r0, r7
 8006f94:	bdf8      	pop	{r3, r4, r5, r6, r7, pc}
 8006f96:	bf00      	nop
 8006f98:	0801cacc 	.word	0x0801cacc
 8006f9c:	0801caec 	.word	0x0801caec
 8006fa0:	0801caac 	.word	0x0801caac

08006fa4 <__swsetup_r>:
 8006fa4:	4b32      	ldr	r3, [pc, #200]	; (8007070 <__swsetup_r+0xcc>)
 8006fa6:	b570      	push	{r4, r5, r6, lr}
 8006fa8:	681d      	ldr	r5, [r3, #0]
 8006faa:	4606      	mov	r6, r0
 8006fac:	460c      	mov	r4, r1
 8006fae:	b125      	cbz	r5, 8006fba <__swsetup_r+0x16>
 8006fb0:	69ab      	ldr	r3, [r5, #24]
 8006fb2:	b913      	cbnz	r3, 8006fba <__swsetup_r+0x16>
 8006fb4:	4628      	mov	r0, r5
 8006fb6:	f000 ffaf 	bl	8007f18 <__sinit>
 8006fba:	4b2e      	ldr	r3, [pc, #184]	; (8007074 <__swsetup_r+0xd0>)
 8006fbc:	429c      	cmp	r4, r3
 8006fbe:	d10f      	bne.n	8006fe0 <__swsetup_r+0x3c>
 8006fc0:	686c      	ldr	r4, [r5, #4]
 8006fc2:	f9b4 300c 	ldrsh.w	r3, [r4, #12]
 8006fc6:	b29a      	uxth	r2, r3
 8006fc8:	0715      	lsls	r5, r2, #28
 8006fca:	d42c      	bmi.n	8007026 <__swsetup_r+0x82>
 8006fcc:	06d0      	lsls	r0, r2, #27
 8006fce:	d411      	bmi.n	8006ff4 <__swsetup_r+0x50>
 8006fd0:	2209      	movs	r2, #9
 8006fd2:	6032      	str	r2, [r6, #0]
 8006fd4:	f043 0340 	orr.w	r3, r3, #64	; 0x40
 8006fd8:	81a3      	strh	r3, [r4, #12]
 8006fda:	f04f 30ff 	mov.w	r0, #4294967295
 8006fde:	bd70      	pop	{r4, r5, r6, pc}
 8006fe0:	4b25      	ldr	r3, [pc, #148]	; (8007078 <__swsetup_r+0xd4>)
 8006fe2:	429c      	cmp	r4, r3
 8006fe4:	d101      	bne.n	8006fea <__swsetup_r+0x46>
 8006fe6:	68ac      	ldr	r4, [r5, #8]
 8006fe8:	e7eb      	b.n	8006fc2 <__swsetup_r+0x1e>
 8006fea:	4b24      	ldr	r3, [pc, #144]	; (800707c <__swsetup_r+0xd8>)
 8006fec:	429c      	cmp	r4, r3
 8006fee:	bf08      	it	eq
 8006ff0:	68ec      	ldreq	r4, [r5, #12]
 8006ff2:	e7e6      	b.n	8006fc2 <__swsetup_r+0x1e>
 8006ff4:	0751      	lsls	r1, r2, #29
 8006ff6:	d512      	bpl.n	800701e <__swsetup_r+0x7a>
 8006ff8:	6b61      	ldr	r1, [r4, #52]	; 0x34
 8006ffa:	b141      	cbz	r1, 800700e <__swsetup_r+0x6a>
 8006ffc:	f104 0344 	add.w	r3, r4, #68	; 0x44
 8007000:	4299      	cmp	r1, r3
 8007002:	d002      	beq.n	800700a <__swsetup_r+0x66>
 8007004:	4630      	mov	r0, r6
 8007006:	f001 fb7d 	bl	8008704 <_free_r>
 800700a:	2300      	movs	r3, #0
 800700c:	6363      	str	r3, [r4, #52]	; 0x34
 800700e:	89a3      	ldrh	r3, [r4, #12]
 8007010:	f023 0324 	bic.w	r3, r3, #36	; 0x24
 8007014:	81a3      	strh	r3, [r4, #12]
 8007016:	2300      	movs	r3, #0
 8007018:	6063      	str	r3, [r4, #4]
 800701a:	6923      	ldr	r3, [r4, #16]
 800701c:	6023      	str	r3, [r4, #0]
 800701e:	89a3      	ldrh	r3, [r4, #12]
 8007020:	f043 0308 	orr.w	r3, r3, #8
 8007024:	81a3      	strh	r3, [r4, #12]
 8007026:	6923      	ldr	r3, [r4, #16]
 8007028:	b94b      	cbnz	r3, 800703e <__swsetup_r+0x9a>
 800702a:	89a3      	ldrh	r3, [r4, #12]
 800702c:	f403 7320 	and.w	r3, r3, #640	; 0x280
 8007030:	f5b3 7f00 	cmp.w	r3, #512	; 0x200
 8007034:	d003      	beq.n	800703e <__swsetup_r+0x9a>
 8007036:	4621      	mov	r1, r4
 8007038:	4630      	mov	r0, r6
 800703a:	f001 f829 	bl	8008090 <__smakebuf_r>
 800703e:	89a2      	ldrh	r2, [r4, #12]
 8007040:	f012 0301 	ands.w	r3, r2, #1
 8007044:	d00c      	beq.n	8007060 <__swsetup_r+0xbc>
 8007046:	2300      	movs	r3, #0
 8007048:	60a3      	str	r3, [r4, #8]
 800704a:	6963      	ldr	r3, [r4, #20]
 800704c:	425b      	negs	r3, r3
 800704e:	61a3      	str	r3, [r4, #24]
 8007050:	6923      	ldr	r3, [r4, #16]
 8007052:	b953      	cbnz	r3, 800706a <__swsetup_r+0xc6>
 8007054:	f9b4 300c 	ldrsh.w	r3, [r4, #12]
 8007058:	f013 0080 	ands.w	r0, r3, #128	; 0x80
 800705c:	d1ba      	bne.n	8006fd4 <__swsetup_r+0x30>
 800705e:	bd70      	pop	{r4, r5, r6, pc}
 8007060:	0792      	lsls	r2, r2, #30
 8007062:	bf58      	it	pl
 8007064:	6963      	ldrpl	r3, [r4, #20]
 8007066:	60a3      	str	r3, [r4, #8]
 8007068:	e7f2      	b.n	8007050 <__swsetup_r+0xac>
 800706a:	2000      	movs	r0, #0
 800706c:	e7f7      	b.n	800705e <__swsetup_r+0xba>
 800706e:	bf00      	nop
 8007070:	2000000c 	.word	0x2000000c
 8007074:	0801cacc 	.word	0x0801cacc
 8007078:	0801caec 	.word	0x0801caec
 800707c:	0801caac 	.word	0x0801caac

08007080 <quorem>:
 8007080:	e92d 4ff7 	stmdb	sp!, {r0, r1, r2, r4, r5, r6, r7, r8, r9, sl, fp, lr}
 8007084:	6903      	ldr	r3, [r0, #16]
 8007086:	690c      	ldr	r4, [r1, #16]
 8007088:	429c      	cmp	r4, r3
 800708a:	4680      	mov	r8, r0
 800708c:	f300 8082 	bgt.w	8007194 <quorem+0x114>
 8007090:	3c01      	subs	r4, #1
 8007092:	f101 0714 	add.w	r7, r1, #20
 8007096:	ea4f 0e84 	mov.w	lr, r4, lsl #2
 800709a:	f100 0614 	add.w	r6, r0, #20
 800709e:	f857 5024 	ldr.w	r5, [r7, r4, lsl #2]
 80070a2:	f856 0024 	ldr.w	r0, [r6, r4, lsl #2]
 80070a6:	eb06 030e 	add.w	r3, r6, lr
 80070aa:	3501      	adds	r5, #1
 80070ac:	eb07 090e 	add.w	r9, r7, lr
 80070b0:	9301      	str	r3, [sp, #4]
 80070b2:	fbb0 f5f5 	udiv	r5, r0, r5
 80070b6:	b395      	cbz	r5, 800711e <quorem+0x9e>
 80070b8:	f04f 0a00 	mov.w	sl, #0
 80070bc:	4638      	mov	r0, r7
 80070be:	46b4      	mov	ip, r6
 80070c0:	46d3      	mov	fp, sl
 80070c2:	f850 2b04 	ldr.w	r2, [r0], #4
 80070c6:	b293      	uxth	r3, r2
 80070c8:	fb05 a303 	mla	r3, r5, r3, sl
 80070cc:	ea4f 4a13 	mov.w	sl, r3, lsr #16
 80070d0:	b29b      	uxth	r3, r3
 80070d2:	ebab 0303 	sub.w	r3, fp, r3
 80070d6:	0c12      	lsrs	r2, r2, #16
 80070d8:	f8bc b000 	ldrh.w	fp, [ip]
 80070dc:	fb05 a202 	mla	r2, r5, r2, sl
 80070e0:	fa13 f38b 	uxtah	r3, r3, fp
 80070e4:	ea4f 4a12 	mov.w	sl, r2, lsr #16
 80070e8:	fa1f fb82 	uxth.w	fp, r2
 80070ec:	f8dc 2000 	ldr.w	r2, [ip]
 80070f0:	ebcb 4212 	rsb	r2, fp, r2, lsr #16
 80070f4:	eb02 4223 	add.w	r2, r2, r3, asr #16
 80070f8:	b29b      	uxth	r3, r3
 80070fa:	ea43 4302 	orr.w	r3, r3, r2, lsl #16
 80070fe:	4581      	cmp	r9, r0
 8007100:	ea4f 4b22 	mov.w	fp, r2, asr #16
 8007104:	f84c 3b04 	str.w	r3, [ip], #4
 8007108:	d2db      	bcs.n	80070c2 <quorem+0x42>
 800710a:	f856 300e 	ldr.w	r3, [r6, lr]
 800710e:	b933      	cbnz	r3, 800711e <quorem+0x9e>
 8007110:	9b01      	ldr	r3, [sp, #4]
 8007112:	3b04      	subs	r3, #4
 8007114:	429e      	cmp	r6, r3
 8007116:	461a      	mov	r2, r3
 8007118:	d330      	bcc.n	800717c <quorem+0xfc>
 800711a:	f8c8 4010 	str.w	r4, [r8, #16]
 800711e:	4640      	mov	r0, r8
 8007120:	f001 fa1b 	bl	800855a <__mcmp>
 8007124:	2800      	cmp	r0, #0
 8007126:	db25      	blt.n	8007174 <quorem+0xf4>
 8007128:	3501      	adds	r5, #1
 800712a:	4630      	mov	r0, r6
 800712c:	f04f 0e00 	mov.w	lr, #0
 8007130:	f857 2b04 	ldr.w	r2, [r7], #4
 8007134:	f8d0 c000 	ldr.w	ip, [r0]
 8007138:	b293      	uxth	r3, r2
 800713a:	ebae 0303 	sub.w	r3, lr, r3
 800713e:	0c12      	lsrs	r2, r2, #16
 8007140:	fa13 f38c 	uxtah	r3, r3, ip
 8007144:	ebc2 421c 	rsb	r2, r2, ip, lsr #16
 8007148:	eb02 4223 	add.w	r2, r2, r3, asr #16
 800714c:	b29b      	uxth	r3, r3
 800714e:	ea43 4302 	orr.w	r3, r3, r2, lsl #16
 8007152:	45b9      	cmp	r9, r7
 8007154:	ea4f 4e22 	mov.w	lr, r2, asr #16
 8007158:	f840 3b04 	str.w	r3, [r0], #4
 800715c:	d2e8      	bcs.n	8007130 <quorem+0xb0>
 800715e:	f856 2024 	ldr.w	r2, [r6, r4, lsl #2]
 8007162:	eb06 0384 	add.w	r3, r6, r4, lsl #2
 8007166:	b92a      	cbnz	r2, 8007174 <quorem+0xf4>
 8007168:	3b04      	subs	r3, #4
 800716a:	429e      	cmp	r6, r3
 800716c:	461a      	mov	r2, r3
 800716e:	d30b      	bcc.n	8007188 <quorem+0x108>
 8007170:	f8c8 4010 	str.w	r4, [r8, #16]
 8007174:	4628      	mov	r0, r5
 8007176:	b003      	add	sp, #12
 8007178:	e8bd 8ff0 	ldmia.w	sp!, {r4, r5, r6, r7, r8, r9, sl, fp, pc}
 800717c:	6812      	ldr	r2, [r2, #0]
 800717e:	3b04      	subs	r3, #4
 8007180:	2a00      	cmp	r2, #0
 8007182:	d1ca      	bne.n	800711a <quorem+0x9a>
 8007184:	3c01      	subs	r4, #1
 8007186:	e7c5      	b.n	8007114 <quorem+0x94>
 8007188:	6812      	ldr	r2, [r2, #0]
 800718a:	3b04      	subs	r3, #4
 800718c:	2a00      	cmp	r2, #0
 800718e:	d1ef      	bne.n	8007170 <quorem+0xf0>
 8007190:	3c01      	subs	r4, #1
 8007192:	e7ea      	b.n	800716a <quorem+0xea>
 8007194:	2000      	movs	r0, #0
 8007196:	e7ee      	b.n	8007176 <quorem+0xf6>

08007198 <_dtoa_r>:
 8007198:	e92d 4ff0 	stmdb	sp!, {r4, r5, r6, r7, r8, r9, sl, fp, lr}
 800719c:	ec57 6b10 	vmov	r6, r7, d0
 80071a0:	b097      	sub	sp, #92	; 0x5c
 80071a2:	e9cd 6700 	strd	r6, r7, [sp]
 80071a6:	6a46      	ldr	r6, [r0, #36]	; 0x24
 80071a8:	9107      	str	r1, [sp, #28]
 80071aa:	4604      	mov	r4, r0
 80071ac:	920a      	str	r2, [sp, #40]	; 0x28
 80071ae:	930f      	str	r3, [sp, #60]	; 0x3c
 80071b0:	9d20      	ldr	r5, [sp, #128]	; 0x80
 80071b2:	b93e      	cbnz	r6, 80071c4 <_dtoa_r+0x2c>
 80071b4:	2010      	movs	r0, #16
 80071b6:	f000 ffab 	bl	8008110 <malloc>
 80071ba:	6260      	str	r0, [r4, #36]	; 0x24
 80071bc:	6046      	str	r6, [r0, #4]
 80071be:	6086      	str	r6, [r0, #8]
 80071c0:	6006      	str	r6, [r0, #0]
 80071c2:	60c6      	str	r6, [r0, #12]
 80071c4:	6a63      	ldr	r3, [r4, #36]	; 0x24
 80071c6:	6819      	ldr	r1, [r3, #0]
 80071c8:	b151      	cbz	r1, 80071e0 <_dtoa_r+0x48>
 80071ca:	685a      	ldr	r2, [r3, #4]
 80071cc:	604a      	str	r2, [r1, #4]
 80071ce:	2301      	movs	r3, #1
 80071d0:	4093      	lsls	r3, r2
 80071d2:	608b      	str	r3, [r1, #8]
 80071d4:	4620      	mov	r0, r4
 80071d6:	f000 ffea 	bl	80081ae <_Bfree>
 80071da:	6a63      	ldr	r3, [r4, #36]	; 0x24
 80071dc:	2200      	movs	r2, #0
 80071de:	601a      	str	r2, [r3, #0]
 80071e0:	9b01      	ldr	r3, [sp, #4]
 80071e2:	2b00      	cmp	r3, #0
 80071e4:	bfbf      	itttt	lt
 80071e6:	2301      	movlt	r3, #1
 80071e8:	602b      	strlt	r3, [r5, #0]
 80071ea:	9b01      	ldrlt	r3, [sp, #4]
 80071ec:	f023 4300 	biclt.w	r3, r3, #2147483648	; 0x80000000
 80071f0:	bfb2      	itee	lt
 80071f2:	9301      	strlt	r3, [sp, #4]
 80071f4:	2300      	movge	r3, #0
 80071f6:	602b      	strge	r3, [r5, #0]
 80071f8:	f8dd 8004 	ldr.w	r8, [sp, #4]
 80071fc:	4ba8      	ldr	r3, [pc, #672]	; (80074a0 <_dtoa_r+0x308>)
 80071fe:	ea33 0308 	bics.w	r3, r3, r8
 8007202:	d11b      	bne.n	800723c <_dtoa_r+0xa4>
 8007204:	9a0f      	ldr	r2, [sp, #60]	; 0x3c
 8007206:	f242 730f 	movw	r3, #9999	; 0x270f
 800720a:	6013      	str	r3, [r2, #0]
 800720c:	9b00      	ldr	r3, [sp, #0]
 800720e:	b923      	cbnz	r3, 800721a <_dtoa_r+0x82>
 8007210:	f3c8 0013 	ubfx	r0, r8, #0, #20
 8007214:	2800      	cmp	r0, #0
 8007216:	f000 8578 	beq.w	8007d0a <_dtoa_r+0xb72>
 800721a:	9b21      	ldr	r3, [sp, #132]	; 0x84
 800721c:	b953      	cbnz	r3, 8007234 <_dtoa_r+0x9c>
 800721e:	4ba1      	ldr	r3, [pc, #644]	; (80074a4 <_dtoa_r+0x30c>)
 8007220:	e021      	b.n	8007266 <_dtoa_r+0xce>
 8007222:	4ba1      	ldr	r3, [pc, #644]	; (80074a8 <_dtoa_r+0x310>)
 8007224:	9302      	str	r3, [sp, #8]
 8007226:	3308      	adds	r3, #8
 8007228:	9a21      	ldr	r2, [sp, #132]	; 0x84
 800722a:	6013      	str	r3, [r2, #0]
 800722c:	9802      	ldr	r0, [sp, #8]
 800722e:	b017      	add	sp, #92	; 0x5c
 8007230:	e8bd 8ff0 	ldmia.w	sp!, {r4, r5, r6, r7, r8, r9, sl, fp, pc}
 8007234:	4b9b      	ldr	r3, [pc, #620]	; (80074a4 <_dtoa_r+0x30c>)
 8007236:	9302      	str	r3, [sp, #8]
 8007238:	3303      	adds	r3, #3
 800723a:	e7f5      	b.n	8007228 <_dtoa_r+0x90>
 800723c:	e9dd 6700 	ldrd	r6, r7, [sp]
 8007240:	2200      	movs	r2, #0
 8007242:	2300      	movs	r3, #0
 8007244:	4630      	mov	r0, r6
 8007246:	4639      	mov	r1, r7
 8007248:	f7f9 fc9a 	bl	8000b80 <__aeabi_dcmpeq>
 800724c:	4681      	mov	r9, r0
 800724e:	b160      	cbz	r0, 800726a <_dtoa_r+0xd2>
 8007250:	9a0f      	ldr	r2, [sp, #60]	; 0x3c
 8007252:	2301      	movs	r3, #1
 8007254:	6013      	str	r3, [r2, #0]
 8007256:	9b21      	ldr	r3, [sp, #132]	; 0x84
 8007258:	2b00      	cmp	r3, #0
 800725a:	f000 8553 	beq.w	8007d04 <_dtoa_r+0xb6c>
 800725e:	4b93      	ldr	r3, [pc, #588]	; (80074ac <_dtoa_r+0x314>)
 8007260:	9a21      	ldr	r2, [sp, #132]	; 0x84
 8007262:	6013      	str	r3, [r2, #0]
 8007264:	3b01      	subs	r3, #1
 8007266:	9302      	str	r3, [sp, #8]
 8007268:	e7e0      	b.n	800722c <_dtoa_r+0x94>
 800726a:	aa14      	add	r2, sp, #80	; 0x50
 800726c:	a915      	add	r1, sp, #84	; 0x54
 800726e:	ec47 6b10 	vmov	d0, r6, r7
 8007272:	4620      	mov	r0, r4
 8007274:	f001 f9e9 	bl	800864a <__d2b>
 8007278:	f3c8 550a 	ubfx	r5, r8, #20, #11
 800727c:	4682      	mov	sl, r0
 800727e:	2d00      	cmp	r5, #0
 8007280:	d07e      	beq.n	8007380 <_dtoa_r+0x1e8>
 8007282:	f3c7 0313 	ubfx	r3, r7, #0, #20
 8007286:	f043 517f 	orr.w	r1, r3, #1069547520	; 0x3fc00000
 800728a:	4630      	mov	r0, r6
 800728c:	f441 1140 	orr.w	r1, r1, #3145728	; 0x300000
 8007290:	f2a5 35ff 	subw	r5, r5, #1023	; 0x3ff
 8007294:	f8cd 9048 	str.w	r9, [sp, #72]	; 0x48
 8007298:	2200      	movs	r2, #0
 800729a:	4b85      	ldr	r3, [pc, #532]	; (80074b0 <_dtoa_r+0x318>)
 800729c:	f7f9 f854 	bl	8000348 <__aeabi_dsub>
 80072a0:	a379      	add	r3, pc, #484	; (adr r3, 8007488 <_dtoa_r+0x2f0>)
 80072a2:	e9d3 2300 	ldrd	r2, r3, [r3]
 80072a6:	f7f9 fa03 	bl	80006b0 <__aeabi_dmul>
 80072aa:	a379      	add	r3, pc, #484	; (adr r3, 8007490 <_dtoa_r+0x2f8>)
 80072ac:	e9d3 2300 	ldrd	r2, r3, [r3]
 80072b0:	f7f9 f84c 	bl	800034c <__adddf3>
 80072b4:	4606      	mov	r6, r0
 80072b6:	4628      	mov	r0, r5
 80072b8:	460f      	mov	r7, r1
 80072ba:	f7f9 f993 	bl	80005e4 <__aeabi_i2d>
 80072be:	a376      	add	r3, pc, #472	; (adr r3, 8007498 <_dtoa_r+0x300>)
 80072c0:	e9d3 2300 	ldrd	r2, r3, [r3]
 80072c4:	f7f9 f9f4 	bl	80006b0 <__aeabi_dmul>
 80072c8:	4602      	mov	r2, r0
 80072ca:	460b      	mov	r3, r1
 80072cc:	4630      	mov	r0, r6
 80072ce:	4639      	mov	r1, r7
 80072d0:	f7f9 f83c 	bl	800034c <__adddf3>
 80072d4:	4606      	mov	r6, r0
 80072d6:	460f      	mov	r7, r1
 80072d8:	f7f9 fc9a 	bl	8000c10 <__aeabi_d2iz>
 80072dc:	2200      	movs	r2, #0
 80072de:	4683      	mov	fp, r0
 80072e0:	2300      	movs	r3, #0
 80072e2:	4630      	mov	r0, r6
 80072e4:	4639      	mov	r1, r7
 80072e6:	f7f9 fc55 	bl	8000b94 <__aeabi_dcmplt>
 80072ea:	b158      	cbz	r0, 8007304 <_dtoa_r+0x16c>
 80072ec:	4658      	mov	r0, fp
 80072ee:	f7f9 f979 	bl	80005e4 <__aeabi_i2d>
 80072f2:	4602      	mov	r2, r0
 80072f4:	460b      	mov	r3, r1
 80072f6:	4630      	mov	r0, r6
 80072f8:	4639      	mov	r1, r7
 80072fa:	f7f9 fc41 	bl	8000b80 <__aeabi_dcmpeq>
 80072fe:	b908      	cbnz	r0, 8007304 <_dtoa_r+0x16c>
 8007300:	f10b 3bff 	add.w	fp, fp, #4294967295
 8007304:	f1bb 0f16 	cmp.w	fp, #22
 8007308:	d859      	bhi.n	80073be <_dtoa_r+0x226>
 800730a:	496a      	ldr	r1, [pc, #424]	; (80074b4 <_dtoa_r+0x31c>)
 800730c:	eb01 01cb 	add.w	r1, r1, fp, lsl #3
 8007310:	e9dd 2300 	ldrd	r2, r3, [sp]
 8007314:	e9d1 0100 	ldrd	r0, r1, [r1]
 8007318:	f7f9 fc5a 	bl	8000bd0 <__aeabi_dcmpgt>
 800731c:	2800      	cmp	r0, #0
 800731e:	d050      	beq.n	80073c2 <_dtoa_r+0x22a>
 8007320:	f10b 3bff 	add.w	fp, fp, #4294967295
 8007324:	2300      	movs	r3, #0
 8007326:	930e      	str	r3, [sp, #56]	; 0x38
 8007328:	9b14      	ldr	r3, [sp, #80]	; 0x50
 800732a:	1b5d      	subs	r5, r3, r5
 800732c:	1e6b      	subs	r3, r5, #1
 800732e:	9306      	str	r3, [sp, #24]
 8007330:	bf45      	ittet	mi
 8007332:	f1c5 0301 	rsbmi	r3, r5, #1
 8007336:	9305      	strmi	r3, [sp, #20]
 8007338:	2300      	movpl	r3, #0
 800733a:	2300      	movmi	r3, #0
 800733c:	bf4c      	ite	mi
 800733e:	9306      	strmi	r3, [sp, #24]
 8007340:	9305      	strpl	r3, [sp, #20]
 8007342:	f1bb 0f00 	cmp.w	fp, #0
 8007346:	db3e      	blt.n	80073c6 <_dtoa_r+0x22e>
 8007348:	9b06      	ldr	r3, [sp, #24]
 800734a:	f8cd b02c 	str.w	fp, [sp, #44]	; 0x2c
 800734e:	445b      	add	r3, fp
 8007350:	9306      	str	r3, [sp, #24]
 8007352:	2300      	movs	r3, #0
 8007354:	9308      	str	r3, [sp, #32]
 8007356:	9b07      	ldr	r3, [sp, #28]
 8007358:	2b09      	cmp	r3, #9
 800735a:	f200 80af 	bhi.w	80074bc <_dtoa_r+0x324>
 800735e:	2b05      	cmp	r3, #5
 8007360:	bfc4      	itt	gt
 8007362:	3b04      	subgt	r3, #4
 8007364:	9307      	strgt	r3, [sp, #28]
 8007366:	9b07      	ldr	r3, [sp, #28]
 8007368:	f1a3 0302 	sub.w	r3, r3, #2
 800736c:	bfcc      	ite	gt
 800736e:	2600      	movgt	r6, #0
 8007370:	2601      	movle	r6, #1
 8007372:	2b03      	cmp	r3, #3
 8007374:	f200 80ae 	bhi.w	80074d4 <_dtoa_r+0x33c>
 8007378:	e8df f003 	tbb	[pc, r3]
 800737c:	772f8482 	.word	0x772f8482
 8007380:	9b15      	ldr	r3, [sp, #84]	; 0x54
 8007382:	9d14      	ldr	r5, [sp, #80]	; 0x50
 8007384:	441d      	add	r5, r3
 8007386:	f205 4332 	addw	r3, r5, #1074	; 0x432
 800738a:	2b20      	cmp	r3, #32
 800738c:	dd11      	ble.n	80073b2 <_dtoa_r+0x21a>
 800738e:	9a00      	ldr	r2, [sp, #0]
 8007390:	f205 4012 	addw	r0, r5, #1042	; 0x412
 8007394:	f1c3 0340 	rsb	r3, r3, #64	; 0x40
 8007398:	fa22 f000 	lsr.w	r0, r2, r0
 800739c:	fa08 f303 	lsl.w	r3, r8, r3
 80073a0:	4318      	orrs	r0, r3
 80073a2:	f7f9 f90f 	bl	80005c4 <__aeabi_ui2d>
 80073a6:	2301      	movs	r3, #1
 80073a8:	f1a1 71f8 	sub.w	r1, r1, #32505856	; 0x1f00000
 80073ac:	3d01      	subs	r5, #1
 80073ae:	9312      	str	r3, [sp, #72]	; 0x48
 80073b0:	e772      	b.n	8007298 <_dtoa_r+0x100>
 80073b2:	f1c3 0020 	rsb	r0, r3, #32
 80073b6:	9b00      	ldr	r3, [sp, #0]
 80073b8:	fa03 f000 	lsl.w	r0, r3, r0
 80073bc:	e7f1      	b.n	80073a2 <_dtoa_r+0x20a>
 80073be:	2301      	movs	r3, #1
 80073c0:	e7b1      	b.n	8007326 <_dtoa_r+0x18e>
 80073c2:	900e      	str	r0, [sp, #56]	; 0x38
 80073c4:	e7b0      	b.n	8007328 <_dtoa_r+0x190>
 80073c6:	9b05      	ldr	r3, [sp, #20]
 80073c8:	eba3 030b 	sub.w	r3, r3, fp
 80073cc:	9305      	str	r3, [sp, #20]
 80073ce:	f1cb 0300 	rsb	r3, fp, #0
 80073d2:	9308      	str	r3, [sp, #32]
 80073d4:	2300      	movs	r3, #0
 80073d6:	930b      	str	r3, [sp, #44]	; 0x2c
 80073d8:	e7bd      	b.n	8007356 <_dtoa_r+0x1be>
 80073da:	2301      	movs	r3, #1
 80073dc:	9309      	str	r3, [sp, #36]	; 0x24
 80073de:	9b0a      	ldr	r3, [sp, #40]	; 0x28
 80073e0:	2b00      	cmp	r3, #0
 80073e2:	dd7a      	ble.n	80074da <_dtoa_r+0x342>
 80073e4:	9304      	str	r3, [sp, #16]
 80073e6:	9303      	str	r3, [sp, #12]
 80073e8:	6a65      	ldr	r5, [r4, #36]	; 0x24
 80073ea:	2200      	movs	r2, #0
 80073ec:	606a      	str	r2, [r5, #4]
 80073ee:	2104      	movs	r1, #4
 80073f0:	f101 0214 	add.w	r2, r1, #20
 80073f4:	429a      	cmp	r2, r3
 80073f6:	d975      	bls.n	80074e4 <_dtoa_r+0x34c>
 80073f8:	6869      	ldr	r1, [r5, #4]
 80073fa:	4620      	mov	r0, r4
 80073fc:	f000 fea3 	bl	8008146 <_Balloc>
 8007400:	6a63      	ldr	r3, [r4, #36]	; 0x24
 8007402:	6028      	str	r0, [r5, #0]
 8007404:	681b      	ldr	r3, [r3, #0]
 8007406:	9302      	str	r3, [sp, #8]
 8007408:	9b03      	ldr	r3, [sp, #12]
 800740a:	2b0e      	cmp	r3, #14
 800740c:	f200 80e5 	bhi.w	80075da <_dtoa_r+0x442>
 8007410:	2e00      	cmp	r6, #0
 8007412:	f000 80e2 	beq.w	80075da <_dtoa_r+0x442>
 8007416:	ed9d 7b00 	vldr	d7, [sp]
 800741a:	f1bb 0f00 	cmp.w	fp, #0
 800741e:	ed8d 7b0c 	vstr	d7, [sp, #48]	; 0x30
 8007422:	dd74      	ble.n	800750e <_dtoa_r+0x376>
 8007424:	4a23      	ldr	r2, [pc, #140]	; (80074b4 <_dtoa_r+0x31c>)
 8007426:	f00b 030f 	and.w	r3, fp, #15
 800742a:	ea4f 162b 	mov.w	r6, fp, asr #4
 800742e:	eb02 03c3 	add.w	r3, r2, r3, lsl #3
 8007432:	06f0      	lsls	r0, r6, #27
 8007434:	e9d3 8900 	ldrd	r8, r9, [r3]
 8007438:	d559      	bpl.n	80074ee <_dtoa_r+0x356>
 800743a:	4b1f      	ldr	r3, [pc, #124]	; (80074b8 <_dtoa_r+0x320>)
 800743c:	ec51 0b17 	vmov	r0, r1, d7
 8007440:	e9d3 2308 	ldrd	r2, r3, [r3, #32]
 8007444:	f7f9 fa5e 	bl	8000904 <__aeabi_ddiv>
 8007448:	e9cd 0100 	strd	r0, r1, [sp]
 800744c:	f006 060f 	and.w	r6, r6, #15
 8007450:	2503      	movs	r5, #3
 8007452:	4f19      	ldr	r7, [pc, #100]	; (80074b8 <_dtoa_r+0x320>)
 8007454:	2e00      	cmp	r6, #0
 8007456:	d14c      	bne.n	80074f2 <_dtoa_r+0x35a>
 8007458:	4642      	mov	r2, r8
 800745a:	464b      	mov	r3, r9
 800745c:	e9dd 0100 	ldrd	r0, r1, [sp]
 8007460:	f7f9 fa50 	bl	8000904 <__aeabi_ddiv>
 8007464:	e9cd 0100 	strd	r0, r1, [sp]
 8007468:	e06a      	b.n	8007540 <_dtoa_r+0x3a8>
 800746a:	2301      	movs	r3, #1
 800746c:	9309      	str	r3, [sp, #36]	; 0x24
 800746e:	9b0a      	ldr	r3, [sp, #40]	; 0x28
 8007470:	445b      	add	r3, fp
 8007472:	9304      	str	r3, [sp, #16]
 8007474:	3301      	adds	r3, #1
 8007476:	2b01      	cmp	r3, #1
 8007478:	9303      	str	r3, [sp, #12]
 800747a:	bfb8      	it	lt
 800747c:	2301      	movlt	r3, #1
 800747e:	e7b3      	b.n	80073e8 <_dtoa_r+0x250>
 8007480:	2300      	movs	r3, #0
 8007482:	e7ab      	b.n	80073dc <_dtoa_r+0x244>
 8007484:	2300      	movs	r3, #0
 8007486:	e7f1      	b.n	800746c <_dtoa_r+0x2d4>
 8007488:	636f4361 	.word	0x636f4361
 800748c:	3fd287a7 	.word	0x3fd287a7
 8007490:	8b60c8b3 	.word	0x8b60c8b3
 8007494:	3fc68a28 	.word	0x3fc68a28
 8007498:	509f79fb 	.word	0x509f79fb
 800749c:	3fd34413 	.word	0x3fd34413
 80074a0:	7ff00000 	.word	0x7ff00000
 80074a4:	0801caa5 	.word	0x0801caa5
 80074a8:	0801ca9c 	.word	0x0801ca9c
 80074ac:	0801ca79 	.word	0x0801ca79
 80074b0:	3ff80000 	.word	0x3ff80000
 80074b4:	0801cb38 	.word	0x0801cb38
 80074b8:	0801cb10 	.word	0x0801cb10
 80074bc:	2601      	movs	r6, #1
 80074be:	2300      	movs	r3, #0
 80074c0:	9307      	str	r3, [sp, #28]
 80074c2:	9609      	str	r6, [sp, #36]	; 0x24
 80074c4:	f04f 33ff 	mov.w	r3, #4294967295
 80074c8:	9304      	str	r3, [sp, #16]
 80074ca:	9303      	str	r3, [sp, #12]
 80074cc:	2200      	movs	r2, #0
 80074ce:	2312      	movs	r3, #18
 80074d0:	920a      	str	r2, [sp, #40]	; 0x28
 80074d2:	e789      	b.n	80073e8 <_dtoa_r+0x250>
 80074d4:	2301      	movs	r3, #1
 80074d6:	9309      	str	r3, [sp, #36]	; 0x24
 80074d8:	e7f4      	b.n	80074c4 <_dtoa_r+0x32c>
 80074da:	2301      	movs	r3, #1
 80074dc:	9304      	str	r3, [sp, #16]
 80074de:	9303      	str	r3, [sp, #12]
 80074e0:	461a      	mov	r2, r3
 80074e2:	e7f5      	b.n	80074d0 <_dtoa_r+0x338>
 80074e4:	686a      	ldr	r2, [r5, #4]
 80074e6:	3201      	adds	r2, #1
 80074e8:	606a      	str	r2, [r5, #4]
 80074ea:	0049      	lsls	r1, r1, #1
 80074ec:	e780      	b.n	80073f0 <_dtoa_r+0x258>
 80074ee:	2502      	movs	r5, #2
 80074f0:	e7af      	b.n	8007452 <_dtoa_r+0x2ba>
 80074f2:	07f1      	lsls	r1, r6, #31
 80074f4:	d508      	bpl.n	8007508 <_dtoa_r+0x370>
 80074f6:	4640      	mov	r0, r8
 80074f8:	4649      	mov	r1, r9
 80074fa:	e9d7 2300 	ldrd	r2, r3, [r7]
 80074fe:	f7f9 f8d7 	bl	80006b0 <__aeabi_dmul>
 8007502:	3501      	adds	r5, #1
 8007504:	4680      	mov	r8, r0
 8007506:	4689      	mov	r9, r1
 8007508:	1076      	asrs	r6, r6, #1
 800750a:	3708      	adds	r7, #8
 800750c:	e7a2      	b.n	8007454 <_dtoa_r+0x2bc>
 800750e:	f000 809d 	beq.w	800764c <_dtoa_r+0x4b4>
 8007512:	f1cb 0600 	rsb	r6, fp, #0
 8007516:	4b9f      	ldr	r3, [pc, #636]	; (8007794 <_dtoa_r+0x5fc>)
 8007518:	4f9f      	ldr	r7, [pc, #636]	; (8007798 <_dtoa_r+0x600>)
 800751a:	f006 020f 	and.w	r2, r6, #15
 800751e:	eb03 03c2 	add.w	r3, r3, r2, lsl #3
 8007522:	e9d3 2300 	ldrd	r2, r3, [r3]
 8007526:	e9dd 010c 	ldrd	r0, r1, [sp, #48]	; 0x30
 800752a:	f7f9 f8c1 	bl	80006b0 <__aeabi_dmul>
 800752e:	e9cd 0100 	strd	r0, r1, [sp]
 8007532:	1136      	asrs	r6, r6, #4
 8007534:	2300      	movs	r3, #0
 8007536:	2502      	movs	r5, #2
 8007538:	2e00      	cmp	r6, #0
 800753a:	d17c      	bne.n	8007636 <_dtoa_r+0x49e>
 800753c:	2b00      	cmp	r3, #0
 800753e:	d191      	bne.n	8007464 <_dtoa_r+0x2cc>
 8007540:	9b0e      	ldr	r3, [sp, #56]	; 0x38
 8007542:	2b00      	cmp	r3, #0
 8007544:	f000 8084 	beq.w	8007650 <_dtoa_r+0x4b8>
 8007548:	e9dd 8900 	ldrd	r8, r9, [sp]
 800754c:	2200      	movs	r2, #0
 800754e:	4b93      	ldr	r3, [pc, #588]	; (800779c <_dtoa_r+0x604>)
 8007550:	4640      	mov	r0, r8
 8007552:	4649      	mov	r1, r9
 8007554:	f7f9 fb1e 	bl	8000b94 <__aeabi_dcmplt>
 8007558:	2800      	cmp	r0, #0
 800755a:	d079      	beq.n	8007650 <_dtoa_r+0x4b8>
 800755c:	9b03      	ldr	r3, [sp, #12]
 800755e:	2b00      	cmp	r3, #0
 8007560:	d076      	beq.n	8007650 <_dtoa_r+0x4b8>
 8007562:	9b04      	ldr	r3, [sp, #16]
 8007564:	2b00      	cmp	r3, #0
 8007566:	dd34      	ble.n	80075d2 <_dtoa_r+0x43a>
 8007568:	2200      	movs	r2, #0
 800756a:	4b8d      	ldr	r3, [pc, #564]	; (80077a0 <_dtoa_r+0x608>)
 800756c:	4640      	mov	r0, r8
 800756e:	4649      	mov	r1, r9
 8007570:	f7f9 f89e 	bl	80006b0 <__aeabi_dmul>
 8007574:	e9cd 0100 	strd	r0, r1, [sp]
 8007578:	9e04      	ldr	r6, [sp, #16]
 800757a:	f10b 37ff 	add.w	r7, fp, #4294967295
 800757e:	3501      	adds	r5, #1
 8007580:	4628      	mov	r0, r5
 8007582:	f7f9 f82f 	bl	80005e4 <__aeabi_i2d>
 8007586:	e9dd 2300 	ldrd	r2, r3, [sp]
 800758a:	f7f9 f891 	bl	80006b0 <__aeabi_dmul>
 800758e:	2200      	movs	r2, #0
 8007590:	4b84      	ldr	r3, [pc, #528]	; (80077a4 <_dtoa_r+0x60c>)
 8007592:	f7f8 fedb 	bl	800034c <__adddf3>
 8007596:	4680      	mov	r8, r0
 8007598:	f1a1 7950 	sub.w	r9, r1, #54525952	; 0x3400000
 800759c:	2e00      	cmp	r6, #0
 800759e:	d15a      	bne.n	8007656 <_dtoa_r+0x4be>
 80075a0:	2200      	movs	r2, #0
 80075a2:	4b81      	ldr	r3, [pc, #516]	; (80077a8 <_dtoa_r+0x610>)
 80075a4:	e9dd 0100 	ldrd	r0, r1, [sp]
 80075a8:	f7f8 fece 	bl	8000348 <__aeabi_dsub>
 80075ac:	4642      	mov	r2, r8
 80075ae:	464b      	mov	r3, r9
 80075b0:	e9cd 0100 	strd	r0, r1, [sp]
 80075b4:	f7f9 fb0c 	bl	8000bd0 <__aeabi_dcmpgt>
 80075b8:	2800      	cmp	r0, #0
 80075ba:	f040 829b 	bne.w	8007af4 <_dtoa_r+0x95c>
 80075be:	4642      	mov	r2, r8
 80075c0:	f109 4300 	add.w	r3, r9, #2147483648	; 0x80000000
 80075c4:	e9dd 0100 	ldrd	r0, r1, [sp]
 80075c8:	f7f9 fae4 	bl	8000b94 <__aeabi_dcmplt>
 80075cc:	2800      	cmp	r0, #0
 80075ce:	f040 828f 	bne.w	8007af0 <_dtoa_r+0x958>
 80075d2:	e9dd 230c 	ldrd	r2, r3, [sp, #48]	; 0x30
 80075d6:	e9cd 2300 	strd	r2, r3, [sp]
 80075da:	9b15      	ldr	r3, [sp, #84]	; 0x54
 80075dc:	2b00      	cmp	r3, #0
 80075de:	f2c0 8150 	blt.w	8007882 <_dtoa_r+0x6ea>
 80075e2:	f1bb 0f0e 	cmp.w	fp, #14
 80075e6:	f300 814c 	bgt.w	8007882 <_dtoa_r+0x6ea>
 80075ea:	4b6a      	ldr	r3, [pc, #424]	; (8007794 <_dtoa_r+0x5fc>)
 80075ec:	eb03 03cb 	add.w	r3, r3, fp, lsl #3
 80075f0:	e9d3 8900 	ldrd	r8, r9, [r3]
 80075f4:	9b0a      	ldr	r3, [sp, #40]	; 0x28
 80075f6:	2b00      	cmp	r3, #0
 80075f8:	f280 80da 	bge.w	80077b0 <_dtoa_r+0x618>
 80075fc:	9b03      	ldr	r3, [sp, #12]
 80075fe:	2b00      	cmp	r3, #0
 8007600:	f300 80d6 	bgt.w	80077b0 <_dtoa_r+0x618>
 8007604:	f040 8273 	bne.w	8007aee <_dtoa_r+0x956>
 8007608:	2200      	movs	r2, #0
 800760a:	4b67      	ldr	r3, [pc, #412]	; (80077a8 <_dtoa_r+0x610>)
 800760c:	4640      	mov	r0, r8
 800760e:	4649      	mov	r1, r9
 8007610:	f7f9 f84e 	bl	80006b0 <__aeabi_dmul>
 8007614:	e9dd 2300 	ldrd	r2, r3, [sp]
 8007618:	f7f9 fad0 	bl	8000bbc <__aeabi_dcmpge>
 800761c:	9e03      	ldr	r6, [sp, #12]
 800761e:	4637      	mov	r7, r6
 8007620:	2800      	cmp	r0, #0
 8007622:	f040 824a 	bne.w	8007aba <_dtoa_r+0x922>
 8007626:	9b02      	ldr	r3, [sp, #8]
 8007628:	9a02      	ldr	r2, [sp, #8]
 800762a:	1c5d      	adds	r5, r3, #1
 800762c:	2331      	movs	r3, #49	; 0x31
 800762e:	7013      	strb	r3, [r2, #0]
 8007630:	f10b 0b01 	add.w	fp, fp, #1
 8007634:	e245      	b.n	8007ac2 <_dtoa_r+0x92a>
 8007636:	07f2      	lsls	r2, r6, #31
 8007638:	d505      	bpl.n	8007646 <_dtoa_r+0x4ae>
 800763a:	e9d7 2300 	ldrd	r2, r3, [r7]
 800763e:	f7f9 f837 	bl	80006b0 <__aeabi_dmul>
 8007642:	3501      	adds	r5, #1
 8007644:	2301      	movs	r3, #1
 8007646:	1076      	asrs	r6, r6, #1
 8007648:	3708      	adds	r7, #8
 800764a:	e775      	b.n	8007538 <_dtoa_r+0x3a0>
 800764c:	2502      	movs	r5, #2
 800764e:	e777      	b.n	8007540 <_dtoa_r+0x3a8>
 8007650:	465f      	mov	r7, fp
 8007652:	9e03      	ldr	r6, [sp, #12]
 8007654:	e794      	b.n	8007580 <_dtoa_r+0x3e8>
 8007656:	9a02      	ldr	r2, [sp, #8]
 8007658:	4b4e      	ldr	r3, [pc, #312]	; (8007794 <_dtoa_r+0x5fc>)
 800765a:	4432      	add	r2, r6
 800765c:	9213      	str	r2, [sp, #76]	; 0x4c
 800765e:	9a09      	ldr	r2, [sp, #36]	; 0x24
 8007660:	1e71      	subs	r1, r6, #1
 8007662:	2a00      	cmp	r2, #0
 8007664:	d048      	beq.n	80076f8 <_dtoa_r+0x560>
 8007666:	eb03 03c1 	add.w	r3, r3, r1, lsl #3
 800766a:	e9d3 2300 	ldrd	r2, r3, [r3]
 800766e:	2000      	movs	r0, #0
 8007670:	494e      	ldr	r1, [pc, #312]	; (80077ac <_dtoa_r+0x614>)
 8007672:	f7f9 f947 	bl	8000904 <__aeabi_ddiv>
 8007676:	4642      	mov	r2, r8
 8007678:	464b      	mov	r3, r9
 800767a:	f7f8 fe65 	bl	8000348 <__aeabi_dsub>
 800767e:	9d02      	ldr	r5, [sp, #8]
 8007680:	4680      	mov	r8, r0
 8007682:	4689      	mov	r9, r1
 8007684:	e9dd 0100 	ldrd	r0, r1, [sp]
 8007688:	f7f9 fac2 	bl	8000c10 <__aeabi_d2iz>
 800768c:	4606      	mov	r6, r0
 800768e:	f7f8 ffa9 	bl	80005e4 <__aeabi_i2d>
 8007692:	4602      	mov	r2, r0
 8007694:	460b      	mov	r3, r1
 8007696:	e9dd 0100 	ldrd	r0, r1, [sp]
 800769a:	f7f8 fe55 	bl	8000348 <__aeabi_dsub>
 800769e:	3630      	adds	r6, #48	; 0x30
 80076a0:	f805 6b01 	strb.w	r6, [r5], #1
 80076a4:	4642      	mov	r2, r8
 80076a6:	464b      	mov	r3, r9
 80076a8:	e9cd 0100 	strd	r0, r1, [sp]
 80076ac:	f7f9 fa72 	bl	8000b94 <__aeabi_dcmplt>
 80076b0:	2800      	cmp	r0, #0
 80076b2:	d165      	bne.n	8007780 <_dtoa_r+0x5e8>
 80076b4:	e9dd 2300 	ldrd	r2, r3, [sp]
 80076b8:	2000      	movs	r0, #0
 80076ba:	4938      	ldr	r1, [pc, #224]	; (800779c <_dtoa_r+0x604>)
 80076bc:	f7f8 fe44 	bl	8000348 <__aeabi_dsub>
 80076c0:	4642      	mov	r2, r8
 80076c2:	464b      	mov	r3, r9
 80076c4:	f7f9 fa66 	bl	8000b94 <__aeabi_dcmplt>
 80076c8:	2800      	cmp	r0, #0
 80076ca:	f040 80ba 	bne.w	8007842 <_dtoa_r+0x6aa>
 80076ce:	9b13      	ldr	r3, [sp, #76]	; 0x4c
 80076d0:	429d      	cmp	r5, r3
 80076d2:	f43f af7e 	beq.w	80075d2 <_dtoa_r+0x43a>
 80076d6:	2200      	movs	r2, #0
 80076d8:	4b31      	ldr	r3, [pc, #196]	; (80077a0 <_dtoa_r+0x608>)
 80076da:	4640      	mov	r0, r8
 80076dc:	4649      	mov	r1, r9
 80076de:	f7f8 ffe7 	bl	80006b0 <__aeabi_dmul>
 80076e2:	2200      	movs	r2, #0
 80076e4:	4680      	mov	r8, r0
 80076e6:	4689      	mov	r9, r1
 80076e8:	4b2d      	ldr	r3, [pc, #180]	; (80077a0 <_dtoa_r+0x608>)
 80076ea:	e9dd 0100 	ldrd	r0, r1, [sp]
 80076ee:	f7f8 ffdf 	bl	80006b0 <__aeabi_dmul>
 80076f2:	e9cd 0100 	strd	r0, r1, [sp]
 80076f6:	e7c5      	b.n	8007684 <_dtoa_r+0x4ec>
 80076f8:	eb03 01c1 	add.w	r1, r3, r1, lsl #3
 80076fc:	4642      	mov	r2, r8
 80076fe:	464b      	mov	r3, r9
 8007700:	e9d1 0100 	ldrd	r0, r1, [r1]
 8007704:	f7f8 ffd4 	bl	80006b0 <__aeabi_dmul>
 8007708:	e9cd 0110 	strd	r0, r1, [sp, #64]	; 0x40
 800770c:	9d02      	ldr	r5, [sp, #8]
 800770e:	e9dd 0100 	ldrd	r0, r1, [sp]
 8007712:	f7f9 fa7d 	bl	8000c10 <__aeabi_d2iz>
 8007716:	4606      	mov	r6, r0
 8007718:	f7f8 ff64 	bl	80005e4 <__aeabi_i2d>
 800771c:	3630      	adds	r6, #48	; 0x30
 800771e:	4602      	mov	r2, r0
 8007720:	460b      	mov	r3, r1
 8007722:	e9dd 0100 	ldrd	r0, r1, [sp]
 8007726:	f7f8 fe0f 	bl	8000348 <__aeabi_dsub>
 800772a:	f805 6b01 	strb.w	r6, [r5], #1
 800772e:	9b13      	ldr	r3, [sp, #76]	; 0x4c
 8007730:	42ab      	cmp	r3, r5
 8007732:	4680      	mov	r8, r0
 8007734:	4689      	mov	r9, r1
 8007736:	f04f 0200 	mov.w	r2, #0
 800773a:	d125      	bne.n	8007788 <_dtoa_r+0x5f0>
 800773c:	4b1b      	ldr	r3, [pc, #108]	; (80077ac <_dtoa_r+0x614>)
 800773e:	e9dd 0110 	ldrd	r0, r1, [sp, #64]	; 0x40
 8007742:	f7f8 fe03 	bl	800034c <__adddf3>
 8007746:	4602      	mov	r2, r0
 8007748:	460b      	mov	r3, r1
 800774a:	4640      	mov	r0, r8
 800774c:	4649      	mov	r1, r9
 800774e:	f7f9 fa3f 	bl	8000bd0 <__aeabi_dcmpgt>
 8007752:	2800      	cmp	r0, #0
 8007754:	d175      	bne.n	8007842 <_dtoa_r+0x6aa>
 8007756:	e9dd 2310 	ldrd	r2, r3, [sp, #64]	; 0x40
 800775a:	2000      	movs	r0, #0
 800775c:	4913      	ldr	r1, [pc, #76]	; (80077ac <_dtoa_r+0x614>)
 800775e:	f7f8 fdf3 	bl	8000348 <__aeabi_dsub>
 8007762:	4602      	mov	r2, r0
 8007764:	460b      	mov	r3, r1
 8007766:	4640      	mov	r0, r8
 8007768:	4649      	mov	r1, r9
 800776a:	f7f9 fa13 	bl	8000b94 <__aeabi_dcmplt>
 800776e:	2800      	cmp	r0, #0
 8007770:	f43f af2f 	beq.w	80075d2 <_dtoa_r+0x43a>
 8007774:	f815 3c01 	ldrb.w	r3, [r5, #-1]
 8007778:	2b30      	cmp	r3, #48	; 0x30
 800777a:	f105 32ff 	add.w	r2, r5, #4294967295
 800777e:	d001      	beq.n	8007784 <_dtoa_r+0x5ec>
 8007780:	46bb      	mov	fp, r7
 8007782:	e04d      	b.n	8007820 <_dtoa_r+0x688>
 8007784:	4615      	mov	r5, r2
 8007786:	e7f5      	b.n	8007774 <_dtoa_r+0x5dc>
 8007788:	4b05      	ldr	r3, [pc, #20]	; (80077a0 <_dtoa_r+0x608>)
 800778a:	f7f8 ff91 	bl	80006b0 <__aeabi_dmul>
 800778e:	e9cd 0100 	strd	r0, r1, [sp]
 8007792:	e7bc      	b.n	800770e <_dtoa_r+0x576>
 8007794:	0801cb38 	.word	0x0801cb38
 8007798:	0801cb10 	.word	0x0801cb10
 800779c:	3ff00000 	.word	0x3ff00000
 80077a0:	40240000 	.word	0x40240000
 80077a4:	401c0000 	.word	0x401c0000
 80077a8:	40140000 	.word	0x40140000
 80077ac:	3fe00000 	.word	0x3fe00000
 80077b0:	e9dd 6700 	ldrd	r6, r7, [sp]
 80077b4:	9d02      	ldr	r5, [sp, #8]
 80077b6:	4642      	mov	r2, r8
 80077b8:	464b      	mov	r3, r9
 80077ba:	4630      	mov	r0, r6
 80077bc:	4639      	mov	r1, r7
 80077be:	f7f9 f8a1 	bl	8000904 <__aeabi_ddiv>
 80077c2:	f7f9 fa25 	bl	8000c10 <__aeabi_d2iz>
 80077c6:	9000      	str	r0, [sp, #0]
 80077c8:	f7f8 ff0c 	bl	80005e4 <__aeabi_i2d>
 80077cc:	4642      	mov	r2, r8
 80077ce:	464b      	mov	r3, r9
 80077d0:	f7f8 ff6e 	bl	80006b0 <__aeabi_dmul>
 80077d4:	4602      	mov	r2, r0
 80077d6:	460b      	mov	r3, r1
 80077d8:	4630      	mov	r0, r6
 80077da:	4639      	mov	r1, r7
 80077dc:	f7f8 fdb4 	bl	8000348 <__aeabi_dsub>
 80077e0:	9e00      	ldr	r6, [sp, #0]
 80077e2:	9f03      	ldr	r7, [sp, #12]
 80077e4:	3630      	adds	r6, #48	; 0x30
 80077e6:	f805 6b01 	strb.w	r6, [r5], #1
 80077ea:	9e02      	ldr	r6, [sp, #8]
 80077ec:	1bae      	subs	r6, r5, r6
 80077ee:	42b7      	cmp	r7, r6
 80077f0:	4602      	mov	r2, r0
 80077f2:	460b      	mov	r3, r1
 80077f4:	d138      	bne.n	8007868 <_dtoa_r+0x6d0>
 80077f6:	f7f8 fda9 	bl	800034c <__adddf3>
 80077fa:	4606      	mov	r6, r0
 80077fc:	460f      	mov	r7, r1
 80077fe:	4602      	mov	r2, r0
 8007800:	460b      	mov	r3, r1
 8007802:	4640      	mov	r0, r8
 8007804:	4649      	mov	r1, r9
 8007806:	f7f9 f9c5 	bl	8000b94 <__aeabi_dcmplt>
 800780a:	b9c8      	cbnz	r0, 8007840 <_dtoa_r+0x6a8>
 800780c:	4632      	mov	r2, r6
 800780e:	463b      	mov	r3, r7
 8007810:	4640      	mov	r0, r8
 8007812:	4649      	mov	r1, r9
 8007814:	f7f9 f9b4 	bl	8000b80 <__aeabi_dcmpeq>
 8007818:	b110      	cbz	r0, 8007820 <_dtoa_r+0x688>
 800781a:	9b00      	ldr	r3, [sp, #0]
 800781c:	07db      	lsls	r3, r3, #31
 800781e:	d40f      	bmi.n	8007840 <_dtoa_r+0x6a8>
 8007820:	4651      	mov	r1, sl
 8007822:	4620      	mov	r0, r4
 8007824:	f000 fcc3 	bl	80081ae <_Bfree>
 8007828:	2300      	movs	r3, #0
 800782a:	9a0f      	ldr	r2, [sp, #60]	; 0x3c
 800782c:	702b      	strb	r3, [r5, #0]
 800782e:	f10b 0301 	add.w	r3, fp, #1
 8007832:	6013      	str	r3, [r2, #0]
 8007834:	9b21      	ldr	r3, [sp, #132]	; 0x84
 8007836:	2b00      	cmp	r3, #0
 8007838:	f43f acf8 	beq.w	800722c <_dtoa_r+0x94>
 800783c:	601d      	str	r5, [r3, #0]
 800783e:	e4f5      	b.n	800722c <_dtoa_r+0x94>
 8007840:	465f      	mov	r7, fp
 8007842:	f815 2c01 	ldrb.w	r2, [r5, #-1]
 8007846:	2a39      	cmp	r2, #57	; 0x39
 8007848:	f105 33ff 	add.w	r3, r5, #4294967295
 800784c:	d106      	bne.n	800785c <_dtoa_r+0x6c4>
 800784e:	9a02      	ldr	r2, [sp, #8]
 8007850:	429a      	cmp	r2, r3
 8007852:	d107      	bne.n	8007864 <_dtoa_r+0x6cc>
 8007854:	2330      	movs	r3, #48	; 0x30
 8007856:	7013      	strb	r3, [r2, #0]
 8007858:	3701      	adds	r7, #1
 800785a:	4613      	mov	r3, r2
 800785c:	781a      	ldrb	r2, [r3, #0]
 800785e:	3201      	adds	r2, #1
 8007860:	701a      	strb	r2, [r3, #0]
 8007862:	e78d      	b.n	8007780 <_dtoa_r+0x5e8>
 8007864:	461d      	mov	r5, r3
 8007866:	e7ec      	b.n	8007842 <_dtoa_r+0x6aa>
 8007868:	2200      	movs	r2, #0
 800786a:	4ba4      	ldr	r3, [pc, #656]	; (8007afc <_dtoa_r+0x964>)
 800786c:	f7f8 ff20 	bl	80006b0 <__aeabi_dmul>
 8007870:	2200      	movs	r2, #0
 8007872:	2300      	movs	r3, #0
 8007874:	4606      	mov	r6, r0
 8007876:	460f      	mov	r7, r1
 8007878:	f7f9 f982 	bl	8000b80 <__aeabi_dcmpeq>
 800787c:	2800      	cmp	r0, #0
 800787e:	d09a      	beq.n	80077b6 <_dtoa_r+0x61e>
 8007880:	e7ce      	b.n	8007820 <_dtoa_r+0x688>
 8007882:	9a09      	ldr	r2, [sp, #36]	; 0x24
 8007884:	2a00      	cmp	r2, #0
 8007886:	f000 80cd 	beq.w	8007a24 <_dtoa_r+0x88c>
 800788a:	9a07      	ldr	r2, [sp, #28]
 800788c:	2a01      	cmp	r2, #1
 800788e:	f300 80af 	bgt.w	80079f0 <_dtoa_r+0x858>
 8007892:	9a12      	ldr	r2, [sp, #72]	; 0x48
 8007894:	2a00      	cmp	r2, #0
 8007896:	f000 80a7 	beq.w	80079e8 <_dtoa_r+0x850>
 800789a:	f203 4333 	addw	r3, r3, #1075	; 0x433
 800789e:	9e08      	ldr	r6, [sp, #32]
 80078a0:	9d05      	ldr	r5, [sp, #20]
 80078a2:	9a05      	ldr	r2, [sp, #20]
 80078a4:	441a      	add	r2, r3
 80078a6:	9205      	str	r2, [sp, #20]
 80078a8:	9a06      	ldr	r2, [sp, #24]
 80078aa:	2101      	movs	r1, #1
 80078ac:	441a      	add	r2, r3
 80078ae:	4620      	mov	r0, r4
 80078b0:	9206      	str	r2, [sp, #24]
 80078b2:	f000 fd1c 	bl	80082ee <__i2b>
 80078b6:	4607      	mov	r7, r0
 80078b8:	2d00      	cmp	r5, #0
 80078ba:	dd0c      	ble.n	80078d6 <_dtoa_r+0x73e>
 80078bc:	9b06      	ldr	r3, [sp, #24]
 80078be:	2b00      	cmp	r3, #0
 80078c0:	dd09      	ble.n	80078d6 <_dtoa_r+0x73e>
 80078c2:	42ab      	cmp	r3, r5
 80078c4:	9a05      	ldr	r2, [sp, #20]
 80078c6:	bfa8      	it	ge
 80078c8:	462b      	movge	r3, r5
 80078ca:	1ad2      	subs	r2, r2, r3
 80078cc:	9205      	str	r2, [sp, #20]
 80078ce:	9a06      	ldr	r2, [sp, #24]
 80078d0:	1aed      	subs	r5, r5, r3
 80078d2:	1ad3      	subs	r3, r2, r3
 80078d4:	9306      	str	r3, [sp, #24]
 80078d6:	9b08      	ldr	r3, [sp, #32]
 80078d8:	b1f3      	cbz	r3, 8007918 <_dtoa_r+0x780>
 80078da:	9b09      	ldr	r3, [sp, #36]	; 0x24
 80078dc:	2b00      	cmp	r3, #0
 80078de:	f000 80a5 	beq.w	8007a2c <_dtoa_r+0x894>
 80078e2:	2e00      	cmp	r6, #0
 80078e4:	dd10      	ble.n	8007908 <_dtoa_r+0x770>
 80078e6:	4639      	mov	r1, r7
 80078e8:	4632      	mov	r2, r6
 80078ea:	4620      	mov	r0, r4
 80078ec:	f000 fd96 	bl	800841c <__pow5mult>
 80078f0:	4652      	mov	r2, sl
 80078f2:	4601      	mov	r1, r0
 80078f4:	4607      	mov	r7, r0
 80078f6:	4620      	mov	r0, r4
 80078f8:	f000 fd02 	bl	8008300 <__multiply>
 80078fc:	4651      	mov	r1, sl
 80078fe:	4680      	mov	r8, r0
 8007900:	4620      	mov	r0, r4
 8007902:	f000 fc54 	bl	80081ae <_Bfree>
 8007906:	46c2      	mov	sl, r8
 8007908:	9b08      	ldr	r3, [sp, #32]
 800790a:	1b9a      	subs	r2, r3, r6
 800790c:	d004      	beq.n	8007918 <_dtoa_r+0x780>
 800790e:	4651      	mov	r1, sl
 8007910:	4620      	mov	r0, r4
 8007912:	f000 fd83 	bl	800841c <__pow5mult>
 8007916:	4682      	mov	sl, r0
 8007918:	2101      	movs	r1, #1
 800791a:	4620      	mov	r0, r4
 800791c:	f000 fce7 	bl	80082ee <__i2b>
 8007920:	9b0b      	ldr	r3, [sp, #44]	; 0x2c
 8007922:	2b00      	cmp	r3, #0
 8007924:	4606      	mov	r6, r0
 8007926:	f340 8083 	ble.w	8007a30 <_dtoa_r+0x898>
 800792a:	461a      	mov	r2, r3
 800792c:	4601      	mov	r1, r0
 800792e:	4620      	mov	r0, r4
 8007930:	f000 fd74 	bl	800841c <__pow5mult>
 8007934:	9b07      	ldr	r3, [sp, #28]
 8007936:	2b01      	cmp	r3, #1
 8007938:	4606      	mov	r6, r0
 800793a:	dd7c      	ble.n	8007a36 <_dtoa_r+0x89e>
 800793c:	f04f 0800 	mov.w	r8, #0
 8007940:	6933      	ldr	r3, [r6, #16]
 8007942:	eb06 0383 	add.w	r3, r6, r3, lsl #2
 8007946:	6918      	ldr	r0, [r3, #16]
 8007948:	f000 fc83 	bl	8008252 <__hi0bits>
 800794c:	f1c0 0020 	rsb	r0, r0, #32
 8007950:	9b06      	ldr	r3, [sp, #24]
 8007952:	4418      	add	r0, r3
 8007954:	f010 001f 	ands.w	r0, r0, #31
 8007958:	f000 8096 	beq.w	8007a88 <_dtoa_r+0x8f0>
 800795c:	f1c0 0320 	rsb	r3, r0, #32
 8007960:	2b04      	cmp	r3, #4
 8007962:	f340 8087 	ble.w	8007a74 <_dtoa_r+0x8dc>
 8007966:	9b05      	ldr	r3, [sp, #20]
 8007968:	f1c0 001c 	rsb	r0, r0, #28
 800796c:	4403      	add	r3, r0
 800796e:	9305      	str	r3, [sp, #20]
 8007970:	9b06      	ldr	r3, [sp, #24]
 8007972:	4405      	add	r5, r0
 8007974:	4403      	add	r3, r0
 8007976:	9306      	str	r3, [sp, #24]
 8007978:	9b05      	ldr	r3, [sp, #20]
 800797a:	2b00      	cmp	r3, #0
 800797c:	dd05      	ble.n	800798a <_dtoa_r+0x7f2>
 800797e:	4651      	mov	r1, sl
 8007980:	461a      	mov	r2, r3
 8007982:	4620      	mov	r0, r4
 8007984:	f000 fd98 	bl	80084b8 <__lshift>
 8007988:	4682      	mov	sl, r0
 800798a:	9b06      	ldr	r3, [sp, #24]
 800798c:	2b00      	cmp	r3, #0
 800798e:	dd05      	ble.n	800799c <_dtoa_r+0x804>
 8007990:	4631      	mov	r1, r6
 8007992:	461a      	mov	r2, r3
 8007994:	4620      	mov	r0, r4
 8007996:	f000 fd8f 	bl	80084b8 <__lshift>
 800799a:	4606      	mov	r6, r0
 800799c:	9b0e      	ldr	r3, [sp, #56]	; 0x38
 800799e:	2b00      	cmp	r3, #0
 80079a0:	d074      	beq.n	8007a8c <_dtoa_r+0x8f4>
 80079a2:	4631      	mov	r1, r6
 80079a4:	4650      	mov	r0, sl
 80079a6:	f000 fdd8 	bl	800855a <__mcmp>
 80079aa:	2800      	cmp	r0, #0
 80079ac:	da6e      	bge.n	8007a8c <_dtoa_r+0x8f4>
 80079ae:	2300      	movs	r3, #0
 80079b0:	4651      	mov	r1, sl
 80079b2:	220a      	movs	r2, #10
 80079b4:	4620      	mov	r0, r4
 80079b6:	f000 fc11 	bl	80081dc <__multadd>
 80079ba:	9b09      	ldr	r3, [sp, #36]	; 0x24
 80079bc:	f10b 3bff 	add.w	fp, fp, #4294967295
 80079c0:	4682      	mov	sl, r0
 80079c2:	2b00      	cmp	r3, #0
 80079c4:	f000 81a8 	beq.w	8007d18 <_dtoa_r+0xb80>
 80079c8:	2300      	movs	r3, #0
 80079ca:	4639      	mov	r1, r7
 80079cc:	220a      	movs	r2, #10
 80079ce:	4620      	mov	r0, r4
 80079d0:	f000 fc04 	bl	80081dc <__multadd>
 80079d4:	9b04      	ldr	r3, [sp, #16]
 80079d6:	2b00      	cmp	r3, #0
 80079d8:	4607      	mov	r7, r0
 80079da:	f300 80c8 	bgt.w	8007b6e <_dtoa_r+0x9d6>
 80079de:	9b07      	ldr	r3, [sp, #28]
 80079e0:	2b02      	cmp	r3, #2
 80079e2:	f340 80c4 	ble.w	8007b6e <_dtoa_r+0x9d6>
 80079e6:	e059      	b.n	8007a9c <_dtoa_r+0x904>
 80079e8:	9b14      	ldr	r3, [sp, #80]	; 0x50
 80079ea:	f1c3 0336 	rsb	r3, r3, #54	; 0x36
 80079ee:	e756      	b.n	800789e <_dtoa_r+0x706>
 80079f0:	9b03      	ldr	r3, [sp, #12]
 80079f2:	1e5e      	subs	r6, r3, #1
 80079f4:	9b08      	ldr	r3, [sp, #32]
 80079f6:	42b3      	cmp	r3, r6
 80079f8:	bfbf      	itttt	lt
 80079fa:	9b08      	ldrlt	r3, [sp, #32]
 80079fc:	9608      	strlt	r6, [sp, #32]
 80079fe:	1af2      	sublt	r2, r6, r3
 8007a00:	9b0b      	ldrlt	r3, [sp, #44]	; 0x2c
 8007a02:	bfb6      	itet	lt
 8007a04:	189b      	addlt	r3, r3, r2
 8007a06:	1b9e      	subge	r6, r3, r6
 8007a08:	930b      	strlt	r3, [sp, #44]	; 0x2c
 8007a0a:	9b03      	ldr	r3, [sp, #12]
 8007a0c:	bfb8      	it	lt
 8007a0e:	2600      	movlt	r6, #0
 8007a10:	2b00      	cmp	r3, #0
 8007a12:	bfb9      	ittee	lt
 8007a14:	9b05      	ldrlt	r3, [sp, #20]
 8007a16:	9a03      	ldrlt	r2, [sp, #12]
 8007a18:	9d05      	ldrge	r5, [sp, #20]
 8007a1a:	9b03      	ldrge	r3, [sp, #12]
 8007a1c:	bfbc      	itt	lt
 8007a1e:	1a9d      	sublt	r5, r3, r2
 8007a20:	2300      	movlt	r3, #0
 8007a22:	e73e      	b.n	80078a2 <_dtoa_r+0x70a>
 8007a24:	9e08      	ldr	r6, [sp, #32]
 8007a26:	9d05      	ldr	r5, [sp, #20]
 8007a28:	9f09      	ldr	r7, [sp, #36]	; 0x24
 8007a2a:	e745      	b.n	80078b8 <_dtoa_r+0x720>
 8007a2c:	9a08      	ldr	r2, [sp, #32]
 8007a2e:	e76e      	b.n	800790e <_dtoa_r+0x776>
 8007a30:	9b07      	ldr	r3, [sp, #28]
 8007a32:	2b01      	cmp	r3, #1
 8007a34:	dc19      	bgt.n	8007a6a <_dtoa_r+0x8d2>
 8007a36:	9b00      	ldr	r3, [sp, #0]
 8007a38:	b9bb      	cbnz	r3, 8007a6a <_dtoa_r+0x8d2>
 8007a3a:	9b01      	ldr	r3, [sp, #4]
 8007a3c:	f3c3 0313 	ubfx	r3, r3, #0, #20
 8007a40:	b99b      	cbnz	r3, 8007a6a <_dtoa_r+0x8d2>
 8007a42:	9b01      	ldr	r3, [sp, #4]
 8007a44:	f023 4300 	bic.w	r3, r3, #2147483648	; 0x80000000
 8007a48:	0d1b      	lsrs	r3, r3, #20
 8007a4a:	051b      	lsls	r3, r3, #20
 8007a4c:	b183      	cbz	r3, 8007a70 <_dtoa_r+0x8d8>
 8007a4e:	9b05      	ldr	r3, [sp, #20]
 8007a50:	3301      	adds	r3, #1
 8007a52:	9305      	str	r3, [sp, #20]
 8007a54:	9b06      	ldr	r3, [sp, #24]
 8007a56:	3301      	adds	r3, #1
 8007a58:	9306      	str	r3, [sp, #24]
 8007a5a:	f04f 0801 	mov.w	r8, #1
 8007a5e:	9b0b      	ldr	r3, [sp, #44]	; 0x2c
 8007a60:	2b00      	cmp	r3, #0
 8007a62:	f47f af6d 	bne.w	8007940 <_dtoa_r+0x7a8>
 8007a66:	2001      	movs	r0, #1
 8007a68:	e772      	b.n	8007950 <_dtoa_r+0x7b8>
 8007a6a:	f04f 0800 	mov.w	r8, #0
 8007a6e:	e7f6      	b.n	8007a5e <_dtoa_r+0x8c6>
 8007a70:	4698      	mov	r8, r3
 8007a72:	e7f4      	b.n	8007a5e <_dtoa_r+0x8c6>
 8007a74:	d080      	beq.n	8007978 <_dtoa_r+0x7e0>
 8007a76:	9a05      	ldr	r2, [sp, #20]
 8007a78:	331c      	adds	r3, #28
 8007a7a:	441a      	add	r2, r3
 8007a7c:	9205      	str	r2, [sp, #20]
 8007a7e:	9a06      	ldr	r2, [sp, #24]
 8007a80:	441a      	add	r2, r3
 8007a82:	441d      	add	r5, r3
 8007a84:	4613      	mov	r3, r2
 8007a86:	e776      	b.n	8007976 <_dtoa_r+0x7de>
 8007a88:	4603      	mov	r3, r0
 8007a8a:	e7f4      	b.n	8007a76 <_dtoa_r+0x8de>
 8007a8c:	9b03      	ldr	r3, [sp, #12]
 8007a8e:	2b00      	cmp	r3, #0
 8007a90:	dc36      	bgt.n	8007b00 <_dtoa_r+0x968>
 8007a92:	9b07      	ldr	r3, [sp, #28]
 8007a94:	2b02      	cmp	r3, #2
 8007a96:	dd33      	ble.n	8007b00 <_dtoa_r+0x968>
 8007a98:	9b03      	ldr	r3, [sp, #12]
 8007a9a:	9304      	str	r3, [sp, #16]
 8007a9c:	9b04      	ldr	r3, [sp, #16]
 8007a9e:	b963      	cbnz	r3, 8007aba <_dtoa_r+0x922>
 8007aa0:	4631      	mov	r1, r6
 8007aa2:	2205      	movs	r2, #5
 8007aa4:	4620      	mov	r0, r4
 8007aa6:	f000 fb99 	bl	80081dc <__multadd>
 8007aaa:	4601      	mov	r1, r0
 8007aac:	4606      	mov	r6, r0
 8007aae:	4650      	mov	r0, sl
 8007ab0:	f000 fd53 	bl	800855a <__mcmp>
 8007ab4:	2800      	cmp	r0, #0
 8007ab6:	f73f adb6 	bgt.w	8007626 <_dtoa_r+0x48e>
 8007aba:	9b0a      	ldr	r3, [sp, #40]	; 0x28
 8007abc:	9d02      	ldr	r5, [sp, #8]
 8007abe:	ea6f 0b03 	mvn.w	fp, r3
 8007ac2:	2300      	movs	r3, #0
 8007ac4:	9303      	str	r3, [sp, #12]
 8007ac6:	4631      	mov	r1, r6
 8007ac8:	4620      	mov	r0, r4
 8007aca:	f000 fb70 	bl	80081ae <_Bfree>
 8007ace:	2f00      	cmp	r7, #0
 8007ad0:	f43f aea6 	beq.w	8007820 <_dtoa_r+0x688>
 8007ad4:	9b03      	ldr	r3, [sp, #12]
 8007ad6:	b12b      	cbz	r3, 8007ae4 <_dtoa_r+0x94c>
 8007ad8:	42bb      	cmp	r3, r7
 8007ada:	d003      	beq.n	8007ae4 <_dtoa_r+0x94c>
 8007adc:	4619      	mov	r1, r3
 8007ade:	4620      	mov	r0, r4
 8007ae0:	f000 fb65 	bl	80081ae <_Bfree>
 8007ae4:	4639      	mov	r1, r7
 8007ae6:	4620      	mov	r0, r4
 8007ae8:	f000 fb61 	bl	80081ae <_Bfree>
 8007aec:	e698      	b.n	8007820 <_dtoa_r+0x688>
 8007aee:	2600      	movs	r6, #0
 8007af0:	4637      	mov	r7, r6
 8007af2:	e7e2      	b.n	8007aba <_dtoa_r+0x922>
 8007af4:	46bb      	mov	fp, r7
 8007af6:	4637      	mov	r7, r6
 8007af8:	e595      	b.n	8007626 <_dtoa_r+0x48e>
 8007afa:	bf00      	nop
 8007afc:	40240000 	.word	0x40240000
 8007b00:	9b09      	ldr	r3, [sp, #36]	; 0x24
 8007b02:	bb93      	cbnz	r3, 8007b6a <_dtoa_r+0x9d2>
 8007b04:	9b03      	ldr	r3, [sp, #12]
 8007b06:	9304      	str	r3, [sp, #16]
 8007b08:	9d02      	ldr	r5, [sp, #8]
 8007b0a:	4631      	mov	r1, r6
 8007b0c:	4650      	mov	r0, sl
 8007b0e:	f7ff fab7 	bl	8007080 <quorem>
 8007b12:	f100 0930 	add.w	r9, r0, #48	; 0x30
 8007b16:	f805 9b01 	strb.w	r9, [r5], #1
 8007b1a:	9b02      	ldr	r3, [sp, #8]
 8007b1c:	9a04      	ldr	r2, [sp, #16]
 8007b1e:	1aeb      	subs	r3, r5, r3
 8007b20:	429a      	cmp	r2, r3
 8007b22:	f300 80dc 	bgt.w	8007cde <_dtoa_r+0xb46>
 8007b26:	9b02      	ldr	r3, [sp, #8]
 8007b28:	2a01      	cmp	r2, #1
 8007b2a:	bfac      	ite	ge
 8007b2c:	189b      	addge	r3, r3, r2
 8007b2e:	3301      	addlt	r3, #1
 8007b30:	4698      	mov	r8, r3
 8007b32:	2300      	movs	r3, #0
 8007b34:	9303      	str	r3, [sp, #12]
 8007b36:	4651      	mov	r1, sl
 8007b38:	2201      	movs	r2, #1
 8007b3a:	4620      	mov	r0, r4
 8007b3c:	f000 fcbc 	bl	80084b8 <__lshift>
 8007b40:	4631      	mov	r1, r6
 8007b42:	4682      	mov	sl, r0
 8007b44:	f000 fd09 	bl	800855a <__mcmp>
 8007b48:	2800      	cmp	r0, #0
 8007b4a:	f300 808d 	bgt.w	8007c68 <_dtoa_r+0xad0>
 8007b4e:	d103      	bne.n	8007b58 <_dtoa_r+0x9c0>
 8007b50:	f019 0f01 	tst.w	r9, #1
 8007b54:	f040 8088 	bne.w	8007c68 <_dtoa_r+0xad0>
 8007b58:	4645      	mov	r5, r8
 8007b5a:	f815 3c01 	ldrb.w	r3, [r5, #-1]
 8007b5e:	2b30      	cmp	r3, #48	; 0x30
 8007b60:	f105 32ff 	add.w	r2, r5, #4294967295
 8007b64:	d1af      	bne.n	8007ac6 <_dtoa_r+0x92e>
 8007b66:	4615      	mov	r5, r2
 8007b68:	e7f7      	b.n	8007b5a <_dtoa_r+0x9c2>
 8007b6a:	9b03      	ldr	r3, [sp, #12]
 8007b6c:	9304      	str	r3, [sp, #16]
 8007b6e:	2d00      	cmp	r5, #0
 8007b70:	dd05      	ble.n	8007b7e <_dtoa_r+0x9e6>
 8007b72:	4639      	mov	r1, r7
 8007b74:	462a      	mov	r2, r5
 8007b76:	4620      	mov	r0, r4
 8007b78:	f000 fc9e 	bl	80084b8 <__lshift>
 8007b7c:	4607      	mov	r7, r0
 8007b7e:	f1b8 0f00 	cmp.w	r8, #0
 8007b82:	d04c      	beq.n	8007c1e <_dtoa_r+0xa86>
 8007b84:	6879      	ldr	r1, [r7, #4]
 8007b86:	4620      	mov	r0, r4
 8007b88:	f000 fadd 	bl	8008146 <_Balloc>
 8007b8c:	693a      	ldr	r2, [r7, #16]
 8007b8e:	3202      	adds	r2, #2
 8007b90:	4605      	mov	r5, r0
 8007b92:	0092      	lsls	r2, r2, #2
 8007b94:	f107 010c 	add.w	r1, r7, #12
 8007b98:	300c      	adds	r0, #12
 8007b9a:	f000 fac1 	bl	8008120 <memcpy>
 8007b9e:	2201      	movs	r2, #1
 8007ba0:	4629      	mov	r1, r5
 8007ba2:	4620      	mov	r0, r4
 8007ba4:	f000 fc88 	bl	80084b8 <__lshift>
 8007ba8:	9b00      	ldr	r3, [sp, #0]
 8007baa:	f8dd 8008 	ldr.w	r8, [sp, #8]
 8007bae:	9703      	str	r7, [sp, #12]
 8007bb0:	f003 0301 	and.w	r3, r3, #1
 8007bb4:	4607      	mov	r7, r0
 8007bb6:	9305      	str	r3, [sp, #20]
 8007bb8:	4631      	mov	r1, r6
 8007bba:	4650      	mov	r0, sl
 8007bbc:	f7ff fa60 	bl	8007080 <quorem>
 8007bc0:	9903      	ldr	r1, [sp, #12]
 8007bc2:	4605      	mov	r5, r0
 8007bc4:	f100 0930 	add.w	r9, r0, #48	; 0x30
 8007bc8:	4650      	mov	r0, sl
 8007bca:	f000 fcc6 	bl	800855a <__mcmp>
 8007bce:	463a      	mov	r2, r7
 8007bd0:	9000      	str	r0, [sp, #0]
 8007bd2:	4631      	mov	r1, r6
 8007bd4:	4620      	mov	r0, r4
 8007bd6:	f000 fcda 	bl	800858e <__mdiff>
 8007bda:	68c3      	ldr	r3, [r0, #12]
 8007bdc:	4602      	mov	r2, r0
 8007bde:	bb03      	cbnz	r3, 8007c22 <_dtoa_r+0xa8a>
 8007be0:	4601      	mov	r1, r0
 8007be2:	9006      	str	r0, [sp, #24]
 8007be4:	4650      	mov	r0, sl
 8007be6:	f000 fcb8 	bl	800855a <__mcmp>
 8007bea:	9a06      	ldr	r2, [sp, #24]
 8007bec:	4603      	mov	r3, r0
 8007bee:	4611      	mov	r1, r2
 8007bf0:	4620      	mov	r0, r4
 8007bf2:	9306      	str	r3, [sp, #24]
 8007bf4:	f000 fadb 	bl	80081ae <_Bfree>
 8007bf8:	9b06      	ldr	r3, [sp, #24]
 8007bfa:	b9a3      	cbnz	r3, 8007c26 <_dtoa_r+0xa8e>
 8007bfc:	9a07      	ldr	r2, [sp, #28]
 8007bfe:	b992      	cbnz	r2, 8007c26 <_dtoa_r+0xa8e>
 8007c00:	9a05      	ldr	r2, [sp, #20]
 8007c02:	b982      	cbnz	r2, 8007c26 <_dtoa_r+0xa8e>
 8007c04:	f1b9 0f39 	cmp.w	r9, #57	; 0x39
 8007c08:	d029      	beq.n	8007c5e <_dtoa_r+0xac6>
 8007c0a:	9b00      	ldr	r3, [sp, #0]
 8007c0c:	2b00      	cmp	r3, #0
 8007c0e:	dd01      	ble.n	8007c14 <_dtoa_r+0xa7c>
 8007c10:	f105 0931 	add.w	r9, r5, #49	; 0x31
 8007c14:	f108 0501 	add.w	r5, r8, #1
 8007c18:	f888 9000 	strb.w	r9, [r8]
 8007c1c:	e753      	b.n	8007ac6 <_dtoa_r+0x92e>
 8007c1e:	4638      	mov	r0, r7
 8007c20:	e7c2      	b.n	8007ba8 <_dtoa_r+0xa10>
 8007c22:	2301      	movs	r3, #1
 8007c24:	e7e3      	b.n	8007bee <_dtoa_r+0xa56>
 8007c26:	9a00      	ldr	r2, [sp, #0]
 8007c28:	2a00      	cmp	r2, #0
 8007c2a:	db04      	blt.n	8007c36 <_dtoa_r+0xa9e>
 8007c2c:	d125      	bne.n	8007c7a <_dtoa_r+0xae2>
 8007c2e:	9a07      	ldr	r2, [sp, #28]
 8007c30:	bb1a      	cbnz	r2, 8007c7a <_dtoa_r+0xae2>
 8007c32:	9a05      	ldr	r2, [sp, #20]
 8007c34:	bb0a      	cbnz	r2, 8007c7a <_dtoa_r+0xae2>
 8007c36:	2b00      	cmp	r3, #0
 8007c38:	ddec      	ble.n	8007c14 <_dtoa_r+0xa7c>
 8007c3a:	4651      	mov	r1, sl
 8007c3c:	2201      	movs	r2, #1
 8007c3e:	4620      	mov	r0, r4
 8007c40:	f000 fc3a 	bl	80084b8 <__lshift>
 8007c44:	4631      	mov	r1, r6
 8007c46:	4682      	mov	sl, r0
 8007c48:	f000 fc87 	bl	800855a <__mcmp>
 8007c4c:	2800      	cmp	r0, #0
 8007c4e:	dc03      	bgt.n	8007c58 <_dtoa_r+0xac0>
 8007c50:	d1e0      	bne.n	8007c14 <_dtoa_r+0xa7c>
 8007c52:	f019 0f01 	tst.w	r9, #1
 8007c56:	d0dd      	beq.n	8007c14 <_dtoa_r+0xa7c>
 8007c58:	f1b9 0f39 	cmp.w	r9, #57	; 0x39
 8007c5c:	d1d8      	bne.n	8007c10 <_dtoa_r+0xa78>
 8007c5e:	2339      	movs	r3, #57	; 0x39
 8007c60:	f888 3000 	strb.w	r3, [r8]
 8007c64:	f108 0801 	add.w	r8, r8, #1
 8007c68:	4645      	mov	r5, r8
 8007c6a:	f815 3c01 	ldrb.w	r3, [r5, #-1]
 8007c6e:	2b39      	cmp	r3, #57	; 0x39
 8007c70:	f105 32ff 	add.w	r2, r5, #4294967295
 8007c74:	d03b      	beq.n	8007cee <_dtoa_r+0xb56>
 8007c76:	3301      	adds	r3, #1
 8007c78:	e040      	b.n	8007cfc <_dtoa_r+0xb64>
 8007c7a:	2b00      	cmp	r3, #0
 8007c7c:	f108 0501 	add.w	r5, r8, #1
 8007c80:	dd05      	ble.n	8007c8e <_dtoa_r+0xaf6>
 8007c82:	f1b9 0f39 	cmp.w	r9, #57	; 0x39
 8007c86:	d0ea      	beq.n	8007c5e <_dtoa_r+0xac6>
 8007c88:	f109 0901 	add.w	r9, r9, #1
 8007c8c:	e7c4      	b.n	8007c18 <_dtoa_r+0xa80>
 8007c8e:	9b02      	ldr	r3, [sp, #8]
 8007c90:	9a04      	ldr	r2, [sp, #16]
 8007c92:	f805 9c01 	strb.w	r9, [r5, #-1]
 8007c96:	1aeb      	subs	r3, r5, r3
 8007c98:	4293      	cmp	r3, r2
 8007c9a:	46a8      	mov	r8, r5
 8007c9c:	f43f af4b 	beq.w	8007b36 <_dtoa_r+0x99e>
 8007ca0:	4651      	mov	r1, sl
 8007ca2:	2300      	movs	r3, #0
 8007ca4:	220a      	movs	r2, #10
 8007ca6:	4620      	mov	r0, r4
 8007ca8:	f000 fa98 	bl	80081dc <__multadd>
 8007cac:	9b03      	ldr	r3, [sp, #12]
 8007cae:	9903      	ldr	r1, [sp, #12]
 8007cb0:	42bb      	cmp	r3, r7
 8007cb2:	4682      	mov	sl, r0
 8007cb4:	f04f 0300 	mov.w	r3, #0
 8007cb8:	f04f 020a 	mov.w	r2, #10
 8007cbc:	4620      	mov	r0, r4
 8007cbe:	d104      	bne.n	8007cca <_dtoa_r+0xb32>
 8007cc0:	f000 fa8c 	bl	80081dc <__multadd>
 8007cc4:	9003      	str	r0, [sp, #12]
 8007cc6:	4607      	mov	r7, r0
 8007cc8:	e776      	b.n	8007bb8 <_dtoa_r+0xa20>
 8007cca:	f000 fa87 	bl	80081dc <__multadd>
 8007cce:	2300      	movs	r3, #0
 8007cd0:	9003      	str	r0, [sp, #12]
 8007cd2:	220a      	movs	r2, #10
 8007cd4:	4639      	mov	r1, r7
 8007cd6:	4620      	mov	r0, r4
 8007cd8:	f000 fa80 	bl	80081dc <__multadd>
 8007cdc:	e7f3      	b.n	8007cc6 <_dtoa_r+0xb2e>
 8007cde:	4651      	mov	r1, sl
 8007ce0:	2300      	movs	r3, #0
 8007ce2:	220a      	movs	r2, #10
 8007ce4:	4620      	mov	r0, r4
 8007ce6:	f000 fa79 	bl	80081dc <__multadd>
 8007cea:	4682      	mov	sl, r0
 8007cec:	e70d      	b.n	8007b0a <_dtoa_r+0x972>
 8007cee:	9b02      	ldr	r3, [sp, #8]
 8007cf0:	4293      	cmp	r3, r2
 8007cf2:	d105      	bne.n	8007d00 <_dtoa_r+0xb68>
 8007cf4:	9a02      	ldr	r2, [sp, #8]
 8007cf6:	f10b 0b01 	add.w	fp, fp, #1
 8007cfa:	2331      	movs	r3, #49	; 0x31
 8007cfc:	7013      	strb	r3, [r2, #0]
 8007cfe:	e6e2      	b.n	8007ac6 <_dtoa_r+0x92e>
 8007d00:	4615      	mov	r5, r2
 8007d02:	e7b2      	b.n	8007c6a <_dtoa_r+0xad2>
 8007d04:	4b09      	ldr	r3, [pc, #36]	; (8007d2c <_dtoa_r+0xb94>)
 8007d06:	f7ff baae 	b.w	8007266 <_dtoa_r+0xce>
 8007d0a:	9b21      	ldr	r3, [sp, #132]	; 0x84
 8007d0c:	2b00      	cmp	r3, #0
 8007d0e:	f47f aa88 	bne.w	8007222 <_dtoa_r+0x8a>
 8007d12:	4b07      	ldr	r3, [pc, #28]	; (8007d30 <_dtoa_r+0xb98>)
 8007d14:	f7ff baa7 	b.w	8007266 <_dtoa_r+0xce>
 8007d18:	9b04      	ldr	r3, [sp, #16]
 8007d1a:	2b00      	cmp	r3, #0
 8007d1c:	f73f aef4 	bgt.w	8007b08 <_dtoa_r+0x970>
 8007d20:	9b07      	ldr	r3, [sp, #28]
 8007d22:	2b02      	cmp	r3, #2
 8007d24:	f77f aef0 	ble.w	8007b08 <_dtoa_r+0x970>
 8007d28:	e6b8      	b.n	8007a9c <_dtoa_r+0x904>
 8007d2a:	bf00      	nop
 8007d2c:	0801ca78 	.word	0x0801ca78
 8007d30:	0801ca9c 	.word	0x0801ca9c

08007d34 <__sflush_r>:
 8007d34:	898a      	ldrh	r2, [r1, #12]
 8007d36:	e92d 41f0 	stmdb	sp!, {r4, r5, r6, r7, r8, lr}
 8007d3a:	4605      	mov	r5, r0
 8007d3c:	0710      	lsls	r0, r2, #28
 8007d3e:	460c      	mov	r4, r1
 8007d40:	d45a      	bmi.n	8007df8 <__sflush_r+0xc4>
 8007d42:	684b      	ldr	r3, [r1, #4]
 8007d44:	2b00      	cmp	r3, #0
 8007d46:	dc05      	bgt.n	8007d54 <__sflush_r+0x20>
 8007d48:	6c0b      	ldr	r3, [r1, #64]	; 0x40
 8007d4a:	2b00      	cmp	r3, #0
 8007d4c:	dc02      	bgt.n	8007d54 <__sflush_r+0x20>
 8007d4e:	2000      	movs	r0, #0
 8007d50:	e8bd 81f0 	ldmia.w	sp!, {r4, r5, r6, r7, r8, pc}
 8007d54:	6ae6      	ldr	r6, [r4, #44]	; 0x2c
 8007d56:	2e00      	cmp	r6, #0
 8007d58:	d0f9      	beq.n	8007d4e <__sflush_r+0x1a>
 8007d5a:	2300      	movs	r3, #0
 8007d5c:	f412 5280 	ands.w	r2, r2, #4096	; 0x1000
 8007d60:	682f      	ldr	r7, [r5, #0]
 8007d62:	602b      	str	r3, [r5, #0]
 8007d64:	d033      	beq.n	8007dce <__sflush_r+0x9a>
 8007d66:	6d60      	ldr	r0, [r4, #84]	; 0x54
 8007d68:	89a3      	ldrh	r3, [r4, #12]
 8007d6a:	075a      	lsls	r2, r3, #29
 8007d6c:	d505      	bpl.n	8007d7a <__sflush_r+0x46>
 8007d6e:	6863      	ldr	r3, [r4, #4]
 8007d70:	1ac0      	subs	r0, r0, r3
 8007d72:	6b63      	ldr	r3, [r4, #52]	; 0x34
 8007d74:	b10b      	cbz	r3, 8007d7a <__sflush_r+0x46>
 8007d76:	6c23      	ldr	r3, [r4, #64]	; 0x40
 8007d78:	1ac0      	subs	r0, r0, r3
 8007d7a:	2300      	movs	r3, #0
 8007d7c:	4602      	mov	r2, r0
 8007d7e:	6ae6      	ldr	r6, [r4, #44]	; 0x2c
 8007d80:	6a21      	ldr	r1, [r4, #32]
 8007d82:	4628      	mov	r0, r5
 8007d84:	47b0      	blx	r6
 8007d86:	1c43      	adds	r3, r0, #1
 8007d88:	89a3      	ldrh	r3, [r4, #12]
 8007d8a:	d106      	bne.n	8007d9a <__sflush_r+0x66>
 8007d8c:	6829      	ldr	r1, [r5, #0]
 8007d8e:	291d      	cmp	r1, #29
 8007d90:	d84b      	bhi.n	8007e2a <__sflush_r+0xf6>
 8007d92:	4a2b      	ldr	r2, [pc, #172]	; (8007e40 <__sflush_r+0x10c>)
 8007d94:	40ca      	lsrs	r2, r1
 8007d96:	07d6      	lsls	r6, r2, #31
 8007d98:	d547      	bpl.n	8007e2a <__sflush_r+0xf6>
 8007d9a:	2200      	movs	r2, #0
 8007d9c:	6062      	str	r2, [r4, #4]
 8007d9e:	04d9      	lsls	r1, r3, #19
 8007da0:	6922      	ldr	r2, [r4, #16]
 8007da2:	6022      	str	r2, [r4, #0]
 8007da4:	d504      	bpl.n	8007db0 <__sflush_r+0x7c>
 8007da6:	1c42      	adds	r2, r0, #1
 8007da8:	d101      	bne.n	8007dae <__sflush_r+0x7a>
 8007daa:	682b      	ldr	r3, [r5, #0]
 8007dac:	b903      	cbnz	r3, 8007db0 <__sflush_r+0x7c>
 8007dae:	6560      	str	r0, [r4, #84]	; 0x54
 8007db0:	6b61      	ldr	r1, [r4, #52]	; 0x34
 8007db2:	602f      	str	r7, [r5, #0]
 8007db4:	2900      	cmp	r1, #0
 8007db6:	d0ca      	beq.n	8007d4e <__sflush_r+0x1a>
 8007db8:	f104 0344 	add.w	r3, r4, #68	; 0x44
 8007dbc:	4299      	cmp	r1, r3
 8007dbe:	d002      	beq.n	8007dc6 <__sflush_r+0x92>
 8007dc0:	4628      	mov	r0, r5
 8007dc2:	f000 fc9f 	bl	8008704 <_free_r>
 8007dc6:	2000      	movs	r0, #0
 8007dc8:	6360      	str	r0, [r4, #52]	; 0x34
 8007dca:	e8bd 81f0 	ldmia.w	sp!, {r4, r5, r6, r7, r8, pc}
 8007dce:	6a21      	ldr	r1, [r4, #32]
 8007dd0:	2301      	movs	r3, #1
 8007dd2:	4628      	mov	r0, r5
 8007dd4:	47b0      	blx	r6
 8007dd6:	1c41      	adds	r1, r0, #1
 8007dd8:	d1c6      	bne.n	8007d68 <__sflush_r+0x34>
 8007dda:	682b      	ldr	r3, [r5, #0]
 8007ddc:	2b00      	cmp	r3, #0
 8007dde:	d0c3      	beq.n	8007d68 <__sflush_r+0x34>
 8007de0:	2b1d      	cmp	r3, #29
 8007de2:	d001      	beq.n	8007de8 <__sflush_r+0xb4>
 8007de4:	2b16      	cmp	r3, #22
 8007de6:	d101      	bne.n	8007dec <__sflush_r+0xb8>
 8007de8:	602f      	str	r7, [r5, #0]
 8007dea:	e7b0      	b.n	8007d4e <__sflush_r+0x1a>
 8007dec:	89a3      	ldrh	r3, [r4, #12]
 8007dee:	f043 0340 	orr.w	r3, r3, #64	; 0x40
 8007df2:	81a3      	strh	r3, [r4, #12]
 8007df4:	e8bd 81f0 	ldmia.w	sp!, {r4, r5, r6, r7, r8, pc}
 8007df8:	690f      	ldr	r7, [r1, #16]
 8007dfa:	2f00      	cmp	r7, #0
 8007dfc:	d0a7      	beq.n	8007d4e <__sflush_r+0x1a>
 8007dfe:	0793      	lsls	r3, r2, #30
 8007e00:	680e      	ldr	r6, [r1, #0]
 8007e02:	bf08      	it	eq
 8007e04:	694b      	ldreq	r3, [r1, #20]
 8007e06:	600f      	str	r7, [r1, #0]
 8007e08:	bf18      	it	ne
 8007e0a:	2300      	movne	r3, #0
 8007e0c:	eba6 0807 	sub.w	r8, r6, r7
 8007e10:	608b      	str	r3, [r1, #8]
 8007e12:	f1b8 0f00 	cmp.w	r8, #0
 8007e16:	dd9a      	ble.n	8007d4e <__sflush_r+0x1a>
 8007e18:	4643      	mov	r3, r8
 8007e1a:	463a      	mov	r2, r7
 8007e1c:	6a21      	ldr	r1, [r4, #32]
 8007e1e:	6aa6      	ldr	r6, [r4, #40]	; 0x28
 8007e20:	4628      	mov	r0, r5
 8007e22:	47b0      	blx	r6
 8007e24:	2800      	cmp	r0, #0
 8007e26:	dc07      	bgt.n	8007e38 <__sflush_r+0x104>
 8007e28:	89a3      	ldrh	r3, [r4, #12]
 8007e2a:	f043 0340 	orr.w	r3, r3, #64	; 0x40
 8007e2e:	81a3      	strh	r3, [r4, #12]
 8007e30:	f04f 30ff 	mov.w	r0, #4294967295
 8007e34:	e8bd 81f0 	ldmia.w	sp!, {r4, r5, r6, r7, r8, pc}
 8007e38:	4407      	add	r7, r0
 8007e3a:	eba8 0800 	sub.w	r8, r8, r0
 8007e3e:	e7e8      	b.n	8007e12 <__sflush_r+0xde>
 8007e40:	20400001 	.word	0x20400001

08007e44 <_fflush_r>:
 8007e44:	b538      	push	{r3, r4, r5, lr}
 8007e46:	690b      	ldr	r3, [r1, #16]
 8007e48:	4605      	mov	r5, r0
 8007e4a:	460c      	mov	r4, r1
 8007e4c:	b1db      	cbz	r3, 8007e86 <_fflush_r+0x42>
 8007e4e:	b118      	cbz	r0, 8007e58 <_fflush_r+0x14>
 8007e50:	6983      	ldr	r3, [r0, #24]
 8007e52:	b90b      	cbnz	r3, 8007e58 <_fflush_r+0x14>
 8007e54:	f000 f860 	bl	8007f18 <__sinit>
 8007e58:	4b0c      	ldr	r3, [pc, #48]	; (8007e8c <_fflush_r+0x48>)
 8007e5a:	429c      	cmp	r4, r3
 8007e5c:	d109      	bne.n	8007e72 <_fflush_r+0x2e>
 8007e5e:	686c      	ldr	r4, [r5, #4]
 8007e60:	f9b4 300c 	ldrsh.w	r3, [r4, #12]
 8007e64:	b17b      	cbz	r3, 8007e86 <_fflush_r+0x42>
 8007e66:	4621      	mov	r1, r4
 8007e68:	4628      	mov	r0, r5
 8007e6a:	e8bd 4038 	ldmia.w	sp!, {r3, r4, r5, lr}
 8007e6e:	f7ff bf61 	b.w	8007d34 <__sflush_r>
 8007e72:	4b07      	ldr	r3, [pc, #28]	; (8007e90 <_fflush_r+0x4c>)
 8007e74:	429c      	cmp	r4, r3
 8007e76:	d101      	bne.n	8007e7c <_fflush_r+0x38>
 8007e78:	68ac      	ldr	r4, [r5, #8]
 8007e7a:	e7f1      	b.n	8007e60 <_fflush_r+0x1c>
 8007e7c:	4b05      	ldr	r3, [pc, #20]	; (8007e94 <_fflush_r+0x50>)
 8007e7e:	429c      	cmp	r4, r3
 8007e80:	bf08      	it	eq
 8007e82:	68ec      	ldreq	r4, [r5, #12]
 8007e84:	e7ec      	b.n	8007e60 <_fflush_r+0x1c>
 8007e86:	2000      	movs	r0, #0
 8007e88:	bd38      	pop	{r3, r4, r5, pc}
 8007e8a:	bf00      	nop
 8007e8c:	0801cacc 	.word	0x0801cacc
 8007e90:	0801caec 	.word	0x0801caec
 8007e94:	0801caac 	.word	0x0801caac

08007e98 <_cleanup_r>:
 8007e98:	4901      	ldr	r1, [pc, #4]	; (8007ea0 <_cleanup_r+0x8>)
 8007e9a:	f000 b8a9 	b.w	8007ff0 <_fwalk_reent>
 8007e9e:	bf00      	nop
 8007ea0:	08007e45 	.word	0x08007e45

08007ea4 <std.isra.0>:
 8007ea4:	2300      	movs	r3, #0
 8007ea6:	b510      	push	{r4, lr}
 8007ea8:	4604      	mov	r4, r0
 8007eaa:	6003      	str	r3, [r0, #0]
 8007eac:	6043      	str	r3, [r0, #4]
 8007eae:	6083      	str	r3, [r0, #8]
 8007eb0:	8181      	strh	r1, [r0, #12]
 8007eb2:	6643      	str	r3, [r0, #100]	; 0x64
 8007eb4:	81c2      	strh	r2, [r0, #14]
 8007eb6:	6103      	str	r3, [r0, #16]
 8007eb8:	6143      	str	r3, [r0, #20]
 8007eba:	6183      	str	r3, [r0, #24]
 8007ebc:	4619      	mov	r1, r3
 8007ebe:	2208      	movs	r2, #8
 8007ec0:	305c      	adds	r0, #92	; 0x5c
 8007ec2:	f000 f938 	bl	8008136 <memset>
 8007ec6:	4b05      	ldr	r3, [pc, #20]	; (8007edc <std.isra.0+0x38>)
 8007ec8:	6263      	str	r3, [r4, #36]	; 0x24
 8007eca:	4b05      	ldr	r3, [pc, #20]	; (8007ee0 <std.isra.0+0x3c>)
 8007ecc:	62a3      	str	r3, [r4, #40]	; 0x28
 8007ece:	4b05      	ldr	r3, [pc, #20]	; (8007ee4 <std.isra.0+0x40>)
 8007ed0:	62e3      	str	r3, [r4, #44]	; 0x2c
 8007ed2:	4b05      	ldr	r3, [pc, #20]	; (8007ee8 <std.isra.0+0x44>)
 8007ed4:	6224      	str	r4, [r4, #32]
 8007ed6:	6323      	str	r3, [r4, #48]	; 0x30
 8007ed8:	bd10      	pop	{r4, pc}
 8007eda:	bf00      	nop
 8007edc:	08008afd 	.word	0x08008afd
 8007ee0:	08008b1f 	.word	0x08008b1f
 8007ee4:	08008b57 	.word	0x08008b57
 8007ee8:	08008b7b 	.word	0x08008b7b

08007eec <__sfmoreglue>:
 8007eec:	b570      	push	{r4, r5, r6, lr}
 8007eee:	1e4a      	subs	r2, r1, #1
 8007ef0:	2568      	movs	r5, #104	; 0x68
 8007ef2:	4355      	muls	r5, r2
 8007ef4:	460e      	mov	r6, r1
 8007ef6:	f105 0174 	add.w	r1, r5, #116	; 0x74
 8007efa:	f000 fc51 	bl	80087a0 <_malloc_r>
 8007efe:	4604      	mov	r4, r0
 8007f00:	b140      	cbz	r0, 8007f14 <__sfmoreglue+0x28>
 8007f02:	2100      	movs	r1, #0
 8007f04:	e880 0042 	stmia.w	r0, {r1, r6}
 8007f08:	300c      	adds	r0, #12
 8007f0a:	60a0      	str	r0, [r4, #8]
 8007f0c:	f105 0268 	add.w	r2, r5, #104	; 0x68
 8007f10:	f000 f911 	bl	8008136 <memset>
 8007f14:	4620      	mov	r0, r4
 8007f16:	bd70      	pop	{r4, r5, r6, pc}

08007f18 <__sinit>:
 8007f18:	6983      	ldr	r3, [r0, #24]
 8007f1a:	b510      	push	{r4, lr}
 8007f1c:	4604      	mov	r4, r0
 8007f1e:	bb33      	cbnz	r3, 8007f6e <__sinit+0x56>
 8007f20:	6483      	str	r3, [r0, #72]	; 0x48
 8007f22:	64c3      	str	r3, [r0, #76]	; 0x4c
 8007f24:	6503      	str	r3, [r0, #80]	; 0x50
 8007f26:	4b12      	ldr	r3, [pc, #72]	; (8007f70 <__sinit+0x58>)
 8007f28:	4a12      	ldr	r2, [pc, #72]	; (8007f74 <__sinit+0x5c>)
 8007f2a:	681b      	ldr	r3, [r3, #0]
 8007f2c:	6282      	str	r2, [r0, #40]	; 0x28
 8007f2e:	4298      	cmp	r0, r3
 8007f30:	bf04      	itt	eq
 8007f32:	2301      	moveq	r3, #1
 8007f34:	6183      	streq	r3, [r0, #24]
 8007f36:	f000 f81f 	bl	8007f78 <__sfp>
 8007f3a:	6060      	str	r0, [r4, #4]
 8007f3c:	4620      	mov	r0, r4
 8007f3e:	f000 f81b 	bl	8007f78 <__sfp>
 8007f42:	60a0      	str	r0, [r4, #8]
 8007f44:	4620      	mov	r0, r4
 8007f46:	f000 f817 	bl	8007f78 <__sfp>
 8007f4a:	2200      	movs	r2, #0
 8007f4c:	60e0      	str	r0, [r4, #12]
 8007f4e:	2104      	movs	r1, #4
 8007f50:	6860      	ldr	r0, [r4, #4]
 8007f52:	f7ff ffa7 	bl	8007ea4 <std.isra.0>
 8007f56:	2201      	movs	r2, #1
 8007f58:	2109      	movs	r1, #9
 8007f5a:	68a0      	ldr	r0, [r4, #8]
 8007f5c:	f7ff ffa2 	bl	8007ea4 <std.isra.0>
 8007f60:	2202      	movs	r2, #2
 8007f62:	2112      	movs	r1, #18
 8007f64:	68e0      	ldr	r0, [r4, #12]
 8007f66:	f7ff ff9d 	bl	8007ea4 <std.isra.0>
 8007f6a:	2301      	movs	r3, #1
 8007f6c:	61a3      	str	r3, [r4, #24]
 8007f6e:	bd10      	pop	{r4, pc}
 8007f70:	0801ca64 	.word	0x0801ca64
 8007f74:	08007e99 	.word	0x08007e99

08007f78 <__sfp>:
 8007f78:	b5f8      	push	{r3, r4, r5, r6, r7, lr}
 8007f7a:	4b1c      	ldr	r3, [pc, #112]	; (8007fec <__sfp+0x74>)
 8007f7c:	681e      	ldr	r6, [r3, #0]
 8007f7e:	69b3      	ldr	r3, [r6, #24]
 8007f80:	4607      	mov	r7, r0
 8007f82:	b913      	cbnz	r3, 8007f8a <__sfp+0x12>
 8007f84:	4630      	mov	r0, r6
 8007f86:	f7ff ffc7 	bl	8007f18 <__sinit>
 8007f8a:	3648      	adds	r6, #72	; 0x48
 8007f8c:	68b4      	ldr	r4, [r6, #8]
 8007f8e:	6873      	ldr	r3, [r6, #4]
 8007f90:	3b01      	subs	r3, #1
 8007f92:	d503      	bpl.n	8007f9c <__sfp+0x24>
 8007f94:	6833      	ldr	r3, [r6, #0]
 8007f96:	b133      	cbz	r3, 8007fa6 <__sfp+0x2e>
 8007f98:	6836      	ldr	r6, [r6, #0]
 8007f9a:	e7f7      	b.n	8007f8c <__sfp+0x14>
 8007f9c:	f9b4 500c 	ldrsh.w	r5, [r4, #12]
 8007fa0:	b16d      	cbz	r5, 8007fbe <__sfp+0x46>
 8007fa2:	3468      	adds	r4, #104	; 0x68
 8007fa4:	e7f4      	b.n	8007f90 <__sfp+0x18>
 8007fa6:	2104      	movs	r1, #4
 8007fa8:	4638      	mov	r0, r7
 8007faa:	f7ff ff9f 	bl	8007eec <__sfmoreglue>
 8007fae:	6030      	str	r0, [r6, #0]
 8007fb0:	2800      	cmp	r0, #0
 8007fb2:	d1f1      	bne.n	8007f98 <__sfp+0x20>
 8007fb4:	230c      	movs	r3, #12
 8007fb6:	603b      	str	r3, [r7, #0]
 8007fb8:	4604      	mov	r4, r0
 8007fba:	4620      	mov	r0, r4
 8007fbc:	bdf8      	pop	{r3, r4, r5, r6, r7, pc}
 8007fbe:	f64f 73ff 	movw	r3, #65535	; 0xffff
 8007fc2:	81e3      	strh	r3, [r4, #14]
 8007fc4:	2301      	movs	r3, #1
 8007fc6:	81a3      	strh	r3, [r4, #12]
 8007fc8:	6665      	str	r5, [r4, #100]	; 0x64
 8007fca:	6025      	str	r5, [r4, #0]
 8007fcc:	60a5      	str	r5, [r4, #8]
 8007fce:	6065      	str	r5, [r4, #4]
 8007fd0:	6125      	str	r5, [r4, #16]
 8007fd2:	6165      	str	r5, [r4, #20]
 8007fd4:	61a5      	str	r5, [r4, #24]
 8007fd6:	2208      	movs	r2, #8
 8007fd8:	4629      	mov	r1, r5
 8007fda:	f104 005c 	add.w	r0, r4, #92	; 0x5c
 8007fde:	f000 f8aa 	bl	8008136 <memset>
 8007fe2:	6365      	str	r5, [r4, #52]	; 0x34
 8007fe4:	63a5      	str	r5, [r4, #56]	; 0x38
 8007fe6:	64a5      	str	r5, [r4, #72]	; 0x48
 8007fe8:	64e5      	str	r5, [r4, #76]	; 0x4c
 8007fea:	e7e6      	b.n	8007fba <__sfp+0x42>
 8007fec:	0801ca64 	.word	0x0801ca64

08007ff0 <_fwalk_reent>:
 8007ff0:	e92d 43f8 	stmdb	sp!, {r3, r4, r5, r6, r7, r8, r9, lr}
 8007ff4:	4680      	mov	r8, r0
 8007ff6:	4689      	mov	r9, r1
 8007ff8:	f100 0448 	add.w	r4, r0, #72	; 0x48
 8007ffc:	2600      	movs	r6, #0
 8007ffe:	b914      	cbnz	r4, 8008006 <_fwalk_reent+0x16>
 8008000:	4630      	mov	r0, r6
 8008002:	e8bd 83f8 	ldmia.w	sp!, {r3, r4, r5, r6, r7, r8, r9, pc}
 8008006:	68a5      	ldr	r5, [r4, #8]
 8008008:	6867      	ldr	r7, [r4, #4]
 800800a:	3f01      	subs	r7, #1
 800800c:	d501      	bpl.n	8008012 <_fwalk_reent+0x22>
 800800e:	6824      	ldr	r4, [r4, #0]
 8008010:	e7f5      	b.n	8007ffe <_fwalk_reent+0xe>
 8008012:	89ab      	ldrh	r3, [r5, #12]
 8008014:	2b01      	cmp	r3, #1
 8008016:	d907      	bls.n	8008028 <_fwalk_reent+0x38>
 8008018:	f9b5 300e 	ldrsh.w	r3, [r5, #14]
 800801c:	3301      	adds	r3, #1
 800801e:	d003      	beq.n	8008028 <_fwalk_reent+0x38>
 8008020:	4629      	mov	r1, r5
 8008022:	4640      	mov	r0, r8
 8008024:	47c8      	blx	r9
 8008026:	4306      	orrs	r6, r0
 8008028:	3568      	adds	r5, #104	; 0x68
 800802a:	e7ee      	b.n	800800a <_fwalk_reent+0x1a>

0800802c <_localeconv_r>:
 800802c:	4b04      	ldr	r3, [pc, #16]	; (8008040 <_localeconv_r+0x14>)
 800802e:	681b      	ldr	r3, [r3, #0]
 8008030:	6a18      	ldr	r0, [r3, #32]
 8008032:	4b04      	ldr	r3, [pc, #16]	; (8008044 <_localeconv_r+0x18>)
 8008034:	2800      	cmp	r0, #0
 8008036:	bf08      	it	eq
 8008038:	4618      	moveq	r0, r3
 800803a:	30f0      	adds	r0, #240	; 0xf0
 800803c:	4770      	bx	lr
 800803e:	bf00      	nop
 8008040:	2000000c 	.word	0x2000000c
 8008044:	20000070 	.word	0x20000070

08008048 <__swhatbuf_r>:
 8008048:	b570      	push	{r4, r5, r6, lr}
 800804a:	460e      	mov	r6, r1
 800804c:	f9b1 100e 	ldrsh.w	r1, [r1, #14]
 8008050:	2900      	cmp	r1, #0
 8008052:	b090      	sub	sp, #64	; 0x40
 8008054:	4614      	mov	r4, r2
 8008056:	461d      	mov	r5, r3
 8008058:	da07      	bge.n	800806a <__swhatbuf_r+0x22>
 800805a:	2300      	movs	r3, #0
 800805c:	602b      	str	r3, [r5, #0]
 800805e:	89b3      	ldrh	r3, [r6, #12]
 8008060:	061a      	lsls	r2, r3, #24
 8008062:	d410      	bmi.n	8008086 <__swhatbuf_r+0x3e>
 8008064:	f44f 6380 	mov.w	r3, #1024	; 0x400
 8008068:	e00e      	b.n	8008088 <__swhatbuf_r+0x40>
 800806a:	aa01      	add	r2, sp, #4
 800806c:	f000 fdac 	bl	8008bc8 <_fstat_r>
 8008070:	2800      	cmp	r0, #0
 8008072:	dbf2      	blt.n	800805a <__swhatbuf_r+0x12>
 8008074:	9a02      	ldr	r2, [sp, #8]
 8008076:	f402 4270 	and.w	r2, r2, #61440	; 0xf000
 800807a:	f5a2 5300 	sub.w	r3, r2, #8192	; 0x2000
 800807e:	425a      	negs	r2, r3
 8008080:	415a      	adcs	r2, r3
 8008082:	602a      	str	r2, [r5, #0]
 8008084:	e7ee      	b.n	8008064 <__swhatbuf_r+0x1c>
 8008086:	2340      	movs	r3, #64	; 0x40
 8008088:	2000      	movs	r0, #0
 800808a:	6023      	str	r3, [r4, #0]
 800808c:	b010      	add	sp, #64	; 0x40
 800808e:	bd70      	pop	{r4, r5, r6, pc}

08008090 <__smakebuf_r>:
 8008090:	898b      	ldrh	r3, [r1, #12]
 8008092:	b573      	push	{r0, r1, r4, r5, r6, lr}
 8008094:	079d      	lsls	r5, r3, #30
 8008096:	4606      	mov	r6, r0
 8008098:	460c      	mov	r4, r1
 800809a:	d507      	bpl.n	80080ac <__smakebuf_r+0x1c>
 800809c:	f104 0347 	add.w	r3, r4, #71	; 0x47
 80080a0:	6023      	str	r3, [r4, #0]
 80080a2:	6123      	str	r3, [r4, #16]
 80080a4:	2301      	movs	r3, #1
 80080a6:	6163      	str	r3, [r4, #20]
 80080a8:	b002      	add	sp, #8
 80080aa:	bd70      	pop	{r4, r5, r6, pc}
 80080ac:	ab01      	add	r3, sp, #4
 80080ae:	466a      	mov	r2, sp
 80080b0:	f7ff ffca 	bl	8008048 <__swhatbuf_r>
 80080b4:	9900      	ldr	r1, [sp, #0]
 80080b6:	4605      	mov	r5, r0
 80080b8:	4630      	mov	r0, r6
 80080ba:	f000 fb71 	bl	80087a0 <_malloc_r>
 80080be:	b948      	cbnz	r0, 80080d4 <__smakebuf_r+0x44>
 80080c0:	f9b4 300c 	ldrsh.w	r3, [r4, #12]
 80080c4:	059a      	lsls	r2, r3, #22
 80080c6:	d4ef      	bmi.n	80080a8 <__smakebuf_r+0x18>
 80080c8:	f023 0303 	bic.w	r3, r3, #3
 80080cc:	f043 0302 	orr.w	r3, r3, #2
 80080d0:	81a3      	strh	r3, [r4, #12]
 80080d2:	e7e3      	b.n	800809c <__smakebuf_r+0xc>
 80080d4:	4b0d      	ldr	r3, [pc, #52]	; (800810c <__smakebuf_r+0x7c>)
 80080d6:	62b3      	str	r3, [r6, #40]	; 0x28
 80080d8:	89a3      	ldrh	r3, [r4, #12]
 80080da:	6020      	str	r0, [r4, #0]
 80080dc:	f043 0380 	orr.w	r3, r3, #128	; 0x80
 80080e0:	81a3      	strh	r3, [r4, #12]
 80080e2:	9b00      	ldr	r3, [sp, #0]
 80080e4:	6163      	str	r3, [r4, #20]
 80080e6:	9b01      	ldr	r3, [sp, #4]
 80080e8:	6120      	str	r0, [r4, #16]
 80080ea:	b15b      	cbz	r3, 8008104 <__smakebuf_r+0x74>
 80080ec:	f9b4 100e 	ldrsh.w	r1, [r4, #14]
 80080f0:	4630      	mov	r0, r6
 80080f2:	f000 fd7b 	bl	8008bec <_isatty_r>
 80080f6:	b128      	cbz	r0, 8008104 <__smakebuf_r+0x74>
 80080f8:	89a3      	ldrh	r3, [r4, #12]
 80080fa:	f023 0303 	bic.w	r3, r3, #3
 80080fe:	f043 0301 	orr.w	r3, r3, #1
 8008102:	81a3      	strh	r3, [r4, #12]
 8008104:	89a3      	ldrh	r3, [r4, #12]
 8008106:	431d      	orrs	r5, r3
 8008108:	81a5      	strh	r5, [r4, #12]
 800810a:	e7cd      	b.n	80080a8 <__smakebuf_r+0x18>
 800810c:	08007e99 	.word	0x08007e99

08008110 <malloc>:
 8008110:	4b02      	ldr	r3, [pc, #8]	; (800811c <malloc+0xc>)
 8008112:	4601      	mov	r1, r0
 8008114:	6818      	ldr	r0, [r3, #0]
 8008116:	f000 bb43 	b.w	80087a0 <_malloc_r>
 800811a:	bf00      	nop
 800811c:	2000000c 	.word	0x2000000c

08008120 <memcpy>:
 8008120:	b510      	push	{r4, lr}
 8008122:	1e43      	subs	r3, r0, #1
 8008124:	440a      	add	r2, r1
 8008126:	4291      	cmp	r1, r2
 8008128:	d100      	bne.n	800812c <memcpy+0xc>
 800812a:	bd10      	pop	{r4, pc}
 800812c:	f811 4b01 	ldrb.w	r4, [r1], #1
 8008130:	f803 4f01 	strb.w	r4, [r3, #1]!
 8008134:	e7f7      	b.n	8008126 <memcpy+0x6>

08008136 <memset>:
 8008136:	4402      	add	r2, r0
 8008138:	4603      	mov	r3, r0
 800813a:	4293      	cmp	r3, r2
 800813c:	d100      	bne.n	8008140 <memset+0xa>
 800813e:	4770      	bx	lr
 8008140:	f803 1b01 	strb.w	r1, [r3], #1
 8008144:	e7f9      	b.n	800813a <memset+0x4>

08008146 <_Balloc>:
 8008146:	b570      	push	{r4, r5, r6, lr}
 8008148:	6a45      	ldr	r5, [r0, #36]	; 0x24
 800814a:	4604      	mov	r4, r0
 800814c:	460e      	mov	r6, r1
 800814e:	b93d      	cbnz	r5, 8008160 <_Balloc+0x1a>
 8008150:	2010      	movs	r0, #16
 8008152:	f7ff ffdd 	bl	8008110 <malloc>
 8008156:	6260      	str	r0, [r4, #36]	; 0x24
 8008158:	6045      	str	r5, [r0, #4]
 800815a:	6085      	str	r5, [r0, #8]
 800815c:	6005      	str	r5, [r0, #0]
 800815e:	60c5      	str	r5, [r0, #12]
 8008160:	6a65      	ldr	r5, [r4, #36]	; 0x24
 8008162:	68eb      	ldr	r3, [r5, #12]
 8008164:	b183      	cbz	r3, 8008188 <_Balloc+0x42>
 8008166:	6a63      	ldr	r3, [r4, #36]	; 0x24
 8008168:	68db      	ldr	r3, [r3, #12]
 800816a:	f853 0026 	ldr.w	r0, [r3, r6, lsl #2]
 800816e:	b9b8      	cbnz	r0, 80081a0 <_Balloc+0x5a>
 8008170:	2101      	movs	r1, #1
 8008172:	fa01 f506 	lsl.w	r5, r1, r6
 8008176:	1d6a      	adds	r2, r5, #5
 8008178:	0092      	lsls	r2, r2, #2
 800817a:	4620      	mov	r0, r4
 800817c:	f000 fab4 	bl	80086e8 <_calloc_r>
 8008180:	b160      	cbz	r0, 800819c <_Balloc+0x56>
 8008182:	6046      	str	r6, [r0, #4]
 8008184:	6085      	str	r5, [r0, #8]
 8008186:	e00e      	b.n	80081a6 <_Balloc+0x60>
 8008188:	2221      	movs	r2, #33	; 0x21
 800818a:	2104      	movs	r1, #4
 800818c:	4620      	mov	r0, r4
 800818e:	f000 faab 	bl	80086e8 <_calloc_r>
 8008192:	6a63      	ldr	r3, [r4, #36]	; 0x24
 8008194:	60e8      	str	r0, [r5, #12]
 8008196:	68db      	ldr	r3, [r3, #12]
 8008198:	2b00      	cmp	r3, #0
 800819a:	d1e4      	bne.n	8008166 <_Balloc+0x20>
 800819c:	2000      	movs	r0, #0
 800819e:	bd70      	pop	{r4, r5, r6, pc}
 80081a0:	6802      	ldr	r2, [r0, #0]
 80081a2:	f843 2026 	str.w	r2, [r3, r6, lsl #2]
 80081a6:	2300      	movs	r3, #0
 80081a8:	6103      	str	r3, [r0, #16]
 80081aa:	60c3      	str	r3, [r0, #12]
 80081ac:	bd70      	pop	{r4, r5, r6, pc}

080081ae <_Bfree>:
 80081ae:	b570      	push	{r4, r5, r6, lr}
 80081b0:	6a44      	ldr	r4, [r0, #36]	; 0x24
 80081b2:	4606      	mov	r6, r0
 80081b4:	460d      	mov	r5, r1
 80081b6:	b93c      	cbnz	r4, 80081c8 <_Bfree+0x1a>
 80081b8:	2010      	movs	r0, #16
 80081ba:	f7ff ffa9 	bl	8008110 <malloc>
 80081be:	6270      	str	r0, [r6, #36]	; 0x24
 80081c0:	6044      	str	r4, [r0, #4]
 80081c2:	6084      	str	r4, [r0, #8]
 80081c4:	6004      	str	r4, [r0, #0]
 80081c6:	60c4      	str	r4, [r0, #12]
 80081c8:	b13d      	cbz	r5, 80081da <_Bfree+0x2c>
 80081ca:	6a73      	ldr	r3, [r6, #36]	; 0x24
 80081cc:	686a      	ldr	r2, [r5, #4]
 80081ce:	68db      	ldr	r3, [r3, #12]
 80081d0:	f853 1022 	ldr.w	r1, [r3, r2, lsl #2]
 80081d4:	6029      	str	r1, [r5, #0]
 80081d6:	f843 5022 	str.w	r5, [r3, r2, lsl #2]
 80081da:	bd70      	pop	{r4, r5, r6, pc}

080081dc <__multadd>:
 80081dc:	e92d 41f0 	stmdb	sp!, {r4, r5, r6, r7, r8, lr}
 80081e0:	690d      	ldr	r5, [r1, #16]
 80081e2:	461f      	mov	r7, r3
 80081e4:	4606      	mov	r6, r0
 80081e6:	460c      	mov	r4, r1
 80081e8:	f101 0e14 	add.w	lr, r1, #20
 80081ec:	2300      	movs	r3, #0
 80081ee:	f8de 0000 	ldr.w	r0, [lr]
 80081f2:	b281      	uxth	r1, r0
 80081f4:	fb02 7101 	mla	r1, r2, r1, r7
 80081f8:	0c0f      	lsrs	r7, r1, #16
 80081fa:	0c00      	lsrs	r0, r0, #16
 80081fc:	fb02 7000 	mla	r0, r2, r0, r7
 8008200:	b289      	uxth	r1, r1
 8008202:	3301      	adds	r3, #1
 8008204:	eb01 4100 	add.w	r1, r1, r0, lsl #16
 8008208:	429d      	cmp	r5, r3
 800820a:	ea4f 4710 	mov.w	r7, r0, lsr #16
 800820e:	f84e 1b04 	str.w	r1, [lr], #4
 8008212:	dcec      	bgt.n	80081ee <__multadd+0x12>
 8008214:	b1d7      	cbz	r7, 800824c <__multadd+0x70>
 8008216:	68a3      	ldr	r3, [r4, #8]
 8008218:	429d      	cmp	r5, r3
 800821a:	db12      	blt.n	8008242 <__multadd+0x66>
 800821c:	6861      	ldr	r1, [r4, #4]
 800821e:	4630      	mov	r0, r6
 8008220:	3101      	adds	r1, #1
 8008222:	f7ff ff90 	bl	8008146 <_Balloc>
 8008226:	6922      	ldr	r2, [r4, #16]
 8008228:	3202      	adds	r2, #2
 800822a:	f104 010c 	add.w	r1, r4, #12
 800822e:	4680      	mov	r8, r0
 8008230:	0092      	lsls	r2, r2, #2
 8008232:	300c      	adds	r0, #12
 8008234:	f7ff ff74 	bl	8008120 <memcpy>
 8008238:	4621      	mov	r1, r4
 800823a:	4630      	mov	r0, r6
 800823c:	f7ff ffb7 	bl	80081ae <_Bfree>
 8008240:	4644      	mov	r4, r8
 8008242:	eb04 0385 	add.w	r3, r4, r5, lsl #2
 8008246:	3501      	adds	r5, #1
 8008248:	615f      	str	r7, [r3, #20]
 800824a:	6125      	str	r5, [r4, #16]
 800824c:	4620      	mov	r0, r4
 800824e:	e8bd 81f0 	ldmia.w	sp!, {r4, r5, r6, r7, r8, pc}

08008252 <__hi0bits>:
 8008252:	0c02      	lsrs	r2, r0, #16
 8008254:	0412      	lsls	r2, r2, #16
 8008256:	4603      	mov	r3, r0
 8008258:	b9b2      	cbnz	r2, 8008288 <__hi0bits+0x36>
 800825a:	0403      	lsls	r3, r0, #16
 800825c:	2010      	movs	r0, #16
 800825e:	f013 4f7f 	tst.w	r3, #4278190080	; 0xff000000
 8008262:	bf04      	itt	eq
 8008264:	021b      	lsleq	r3, r3, #8
 8008266:	3008      	addeq	r0, #8
 8008268:	f013 4f70 	tst.w	r3, #4026531840	; 0xf0000000
 800826c:	bf04      	itt	eq
 800826e:	011b      	lsleq	r3, r3, #4
 8008270:	3004      	addeq	r0, #4
 8008272:	f013 4f40 	tst.w	r3, #3221225472	; 0xc0000000
 8008276:	bf04      	itt	eq
 8008278:	009b      	lsleq	r3, r3, #2
 800827a:	3002      	addeq	r0, #2
 800827c:	2b00      	cmp	r3, #0
 800827e:	db06      	blt.n	800828e <__hi0bits+0x3c>
 8008280:	005b      	lsls	r3, r3, #1
 8008282:	d503      	bpl.n	800828c <__hi0bits+0x3a>
 8008284:	3001      	adds	r0, #1
 8008286:	4770      	bx	lr
 8008288:	2000      	movs	r0, #0
 800828a:	e7e8      	b.n	800825e <__hi0bits+0xc>
 800828c:	2020      	movs	r0, #32
 800828e:	4770      	bx	lr

08008290 <__lo0bits>:
 8008290:	6803      	ldr	r3, [r0, #0]
 8008292:	f013 0207 	ands.w	r2, r3, #7
 8008296:	4601      	mov	r1, r0
 8008298:	d00b      	beq.n	80082b2 <__lo0bits+0x22>
 800829a:	07da      	lsls	r2, r3, #31
 800829c:	d423      	bmi.n	80082e6 <__lo0bits+0x56>
 800829e:	0798      	lsls	r0, r3, #30
 80082a0:	bf49      	itett	mi
 80082a2:	085b      	lsrmi	r3, r3, #1
 80082a4:	089b      	lsrpl	r3, r3, #2
 80082a6:	2001      	movmi	r0, #1
 80082a8:	600b      	strmi	r3, [r1, #0]
 80082aa:	bf5c      	itt	pl
 80082ac:	600b      	strpl	r3, [r1, #0]
 80082ae:	2002      	movpl	r0, #2
 80082b0:	4770      	bx	lr
 80082b2:	b298      	uxth	r0, r3
 80082b4:	b9a8      	cbnz	r0, 80082e2 <__lo0bits+0x52>
 80082b6:	0c1b      	lsrs	r3, r3, #16
 80082b8:	2010      	movs	r0, #16
 80082ba:	f013 0fff 	tst.w	r3, #255	; 0xff
 80082be:	bf04      	itt	eq
 80082c0:	0a1b      	lsreq	r3, r3, #8
 80082c2:	3008      	addeq	r0, #8
 80082c4:	071a      	lsls	r2, r3, #28
 80082c6:	bf04      	itt	eq
 80082c8:	091b      	lsreq	r3, r3, #4
 80082ca:	3004      	addeq	r0, #4
 80082cc:	079a      	lsls	r2, r3, #30
 80082ce:	bf04      	itt	eq
 80082d0:	089b      	lsreq	r3, r3, #2
 80082d2:	3002      	addeq	r0, #2
 80082d4:	07da      	lsls	r2, r3, #31
 80082d6:	d402      	bmi.n	80082de <__lo0bits+0x4e>
 80082d8:	085b      	lsrs	r3, r3, #1
 80082da:	d006      	beq.n	80082ea <__lo0bits+0x5a>
 80082dc:	3001      	adds	r0, #1
 80082de:	600b      	str	r3, [r1, #0]
 80082e0:	4770      	bx	lr
 80082e2:	4610      	mov	r0, r2
 80082e4:	e7e9      	b.n	80082ba <__lo0bits+0x2a>
 80082e6:	2000      	movs	r0, #0
 80082e8:	4770      	bx	lr
 80082ea:	2020      	movs	r0, #32
 80082ec:	4770      	bx	lr

080082ee <__i2b>:
 80082ee:	b510      	push	{r4, lr}
 80082f0:	460c      	mov	r4, r1
 80082f2:	2101      	movs	r1, #1
 80082f4:	f7ff ff27 	bl	8008146 <_Balloc>
 80082f8:	2201      	movs	r2, #1
 80082fa:	6144      	str	r4, [r0, #20]
 80082fc:	6102      	str	r2, [r0, #16]
 80082fe:	bd10      	pop	{r4, pc}

08008300 <__multiply>:
 8008300:	e92d 4ff7 	stmdb	sp!, {r0, r1, r2, r4, r5, r6, r7, r8, r9, sl, fp, lr}
 8008304:	4614      	mov	r4, r2
 8008306:	690a      	ldr	r2, [r1, #16]
 8008308:	6923      	ldr	r3, [r4, #16]
 800830a:	429a      	cmp	r2, r3
 800830c:	bfb8      	it	lt
 800830e:	460b      	movlt	r3, r1
 8008310:	4689      	mov	r9, r1
 8008312:	bfbc      	itt	lt
 8008314:	46a1      	movlt	r9, r4
 8008316:	461c      	movlt	r4, r3
 8008318:	f8d9 7010 	ldr.w	r7, [r9, #16]
 800831c:	f8d4 a010 	ldr.w	sl, [r4, #16]
 8008320:	f8d9 3008 	ldr.w	r3, [r9, #8]
 8008324:	f8d9 1004 	ldr.w	r1, [r9, #4]
 8008328:	eb07 060a 	add.w	r6, r7, sl
 800832c:	429e      	cmp	r6, r3
 800832e:	bfc8      	it	gt
 8008330:	3101      	addgt	r1, #1
 8008332:	f7ff ff08 	bl	8008146 <_Balloc>
 8008336:	f100 0514 	add.w	r5, r0, #20
 800833a:	eb05 0886 	add.w	r8, r5, r6, lsl #2
 800833e:	462b      	mov	r3, r5
 8008340:	2200      	movs	r2, #0
 8008342:	4543      	cmp	r3, r8
 8008344:	d316      	bcc.n	8008374 <__multiply+0x74>
 8008346:	f104 0214 	add.w	r2, r4, #20
 800834a:	f109 0114 	add.w	r1, r9, #20
 800834e:	eb02 038a 	add.w	r3, r2, sl, lsl #2
 8008352:	eb01 0787 	add.w	r7, r1, r7, lsl #2
 8008356:	9301      	str	r3, [sp, #4]
 8008358:	9c01      	ldr	r4, [sp, #4]
 800835a:	4294      	cmp	r4, r2
 800835c:	4613      	mov	r3, r2
 800835e:	d80c      	bhi.n	800837a <__multiply+0x7a>
 8008360:	2e00      	cmp	r6, #0
 8008362:	dd03      	ble.n	800836c <__multiply+0x6c>
 8008364:	f858 3d04 	ldr.w	r3, [r8, #-4]!
 8008368:	2b00      	cmp	r3, #0
 800836a:	d054      	beq.n	8008416 <__multiply+0x116>
 800836c:	6106      	str	r6, [r0, #16]
 800836e:	b003      	add	sp, #12
 8008370:	e8bd 8ff0 	ldmia.w	sp!, {r4, r5, r6, r7, r8, r9, sl, fp, pc}
 8008374:	f843 2b04 	str.w	r2, [r3], #4
 8008378:	e7e3      	b.n	8008342 <__multiply+0x42>
 800837a:	f8b3 a000 	ldrh.w	sl, [r3]
 800837e:	3204      	adds	r2, #4
 8008380:	f1ba 0f00 	cmp.w	sl, #0
 8008384:	d020      	beq.n	80083c8 <__multiply+0xc8>
 8008386:	46ae      	mov	lr, r5
 8008388:	4689      	mov	r9, r1
 800838a:	f04f 0c00 	mov.w	ip, #0
 800838e:	f859 4b04 	ldr.w	r4, [r9], #4
 8008392:	f8be b000 	ldrh.w	fp, [lr]
 8008396:	b2a3      	uxth	r3, r4
 8008398:	fb0a b303 	mla	r3, sl, r3, fp
 800839c:	ea4f 4b14 	mov.w	fp, r4, lsr #16
 80083a0:	f8de 4000 	ldr.w	r4, [lr]
 80083a4:	4463      	add	r3, ip
 80083a6:	ea4f 4c14 	mov.w	ip, r4, lsr #16
 80083aa:	fb0a c40b 	mla	r4, sl, fp, ip
 80083ae:	eb04 4413 	add.w	r4, r4, r3, lsr #16
 80083b2:	b29b      	uxth	r3, r3
 80083b4:	ea43 4304 	orr.w	r3, r3, r4, lsl #16
 80083b8:	454f      	cmp	r7, r9
 80083ba:	ea4f 4c14 	mov.w	ip, r4, lsr #16
 80083be:	f84e 3b04 	str.w	r3, [lr], #4
 80083c2:	d8e4      	bhi.n	800838e <__multiply+0x8e>
 80083c4:	f8ce c000 	str.w	ip, [lr]
 80083c8:	f832 9c02 	ldrh.w	r9, [r2, #-2]
 80083cc:	f1b9 0f00 	cmp.w	r9, #0
 80083d0:	d01f      	beq.n	8008412 <__multiply+0x112>
 80083d2:	682b      	ldr	r3, [r5, #0]
 80083d4:	46ae      	mov	lr, r5
 80083d6:	468c      	mov	ip, r1
 80083d8:	f04f 0a00 	mov.w	sl, #0
 80083dc:	f8bc 4000 	ldrh.w	r4, [ip]
 80083e0:	f8be b002 	ldrh.w	fp, [lr, #2]
 80083e4:	fb09 b404 	mla	r4, r9, r4, fp
 80083e8:	44a2      	add	sl, r4
 80083ea:	b29b      	uxth	r3, r3
 80083ec:	ea43 430a 	orr.w	r3, r3, sl, lsl #16
 80083f0:	f84e 3b04 	str.w	r3, [lr], #4
 80083f4:	f85c 3b04 	ldr.w	r3, [ip], #4
 80083f8:	f8be 4000 	ldrh.w	r4, [lr]
 80083fc:	0c1b      	lsrs	r3, r3, #16
 80083fe:	fb09 4303 	mla	r3, r9, r3, r4
 8008402:	eb03 431a 	add.w	r3, r3, sl, lsr #16
 8008406:	4567      	cmp	r7, ip
 8008408:	ea4f 4a13 	mov.w	sl, r3, lsr #16
 800840c:	d8e6      	bhi.n	80083dc <__multiply+0xdc>
 800840e:	f8ce 3000 	str.w	r3, [lr]
 8008412:	3504      	adds	r5, #4
 8008414:	e7a0      	b.n	8008358 <__multiply+0x58>
 8008416:	3e01      	subs	r6, #1
 8008418:	e7a2      	b.n	8008360 <__multiply+0x60>
	...

0800841c <__pow5mult>:
 800841c:	e92d 43f8 	stmdb	sp!, {r3, r4, r5, r6, r7, r8, r9, lr}
 8008420:	4615      	mov	r5, r2
 8008422:	f012 0203 	ands.w	r2, r2, #3
 8008426:	4606      	mov	r6, r0
 8008428:	460f      	mov	r7, r1
 800842a:	d007      	beq.n	800843c <__pow5mult+0x20>
 800842c:	3a01      	subs	r2, #1
 800842e:	4c21      	ldr	r4, [pc, #132]	; (80084b4 <__pow5mult+0x98>)
 8008430:	2300      	movs	r3, #0
 8008432:	f854 2022 	ldr.w	r2, [r4, r2, lsl #2]
 8008436:	f7ff fed1 	bl	80081dc <__multadd>
 800843a:	4607      	mov	r7, r0
 800843c:	10ad      	asrs	r5, r5, #2
 800843e:	d035      	beq.n	80084ac <__pow5mult+0x90>
 8008440:	6a74      	ldr	r4, [r6, #36]	; 0x24
 8008442:	b93c      	cbnz	r4, 8008454 <__pow5mult+0x38>
 8008444:	2010      	movs	r0, #16
 8008446:	f7ff fe63 	bl	8008110 <malloc>
 800844a:	6270      	str	r0, [r6, #36]	; 0x24
 800844c:	6044      	str	r4, [r0, #4]
 800844e:	6084      	str	r4, [r0, #8]
 8008450:	6004      	str	r4, [r0, #0]
 8008452:	60c4      	str	r4, [r0, #12]
 8008454:	f8d6 8024 	ldr.w	r8, [r6, #36]	; 0x24
 8008458:	f8d8 4008 	ldr.w	r4, [r8, #8]
 800845c:	b94c      	cbnz	r4, 8008472 <__pow5mult+0x56>
 800845e:	f240 2171 	movw	r1, #625	; 0x271
 8008462:	4630      	mov	r0, r6
 8008464:	f7ff ff43 	bl	80082ee <__i2b>
 8008468:	2300      	movs	r3, #0
 800846a:	f8c8 0008 	str.w	r0, [r8, #8]
 800846e:	4604      	mov	r4, r0
 8008470:	6003      	str	r3, [r0, #0]
 8008472:	f04f 0800 	mov.w	r8, #0
 8008476:	07eb      	lsls	r3, r5, #31
 8008478:	d50a      	bpl.n	8008490 <__pow5mult+0x74>
 800847a:	4639      	mov	r1, r7
 800847c:	4622      	mov	r2, r4
 800847e:	4630      	mov	r0, r6
 8008480:	f7ff ff3e 	bl	8008300 <__multiply>
 8008484:	4639      	mov	r1, r7
 8008486:	4681      	mov	r9, r0
 8008488:	4630      	mov	r0, r6
 800848a:	f7ff fe90 	bl	80081ae <_Bfree>
 800848e:	464f      	mov	r7, r9
 8008490:	106d      	asrs	r5, r5, #1
 8008492:	d00b      	beq.n	80084ac <__pow5mult+0x90>
 8008494:	6820      	ldr	r0, [r4, #0]
 8008496:	b938      	cbnz	r0, 80084a8 <__pow5mult+0x8c>
 8008498:	4622      	mov	r2, r4
 800849a:	4621      	mov	r1, r4
 800849c:	4630      	mov	r0, r6
 800849e:	f7ff ff2f 	bl	8008300 <__multiply>
 80084a2:	6020      	str	r0, [r4, #0]
 80084a4:	f8c0 8000 	str.w	r8, [r0]
 80084a8:	4604      	mov	r4, r0
 80084aa:	e7e4      	b.n	8008476 <__pow5mult+0x5a>
 80084ac:	4638      	mov	r0, r7
 80084ae:	e8bd 83f8 	ldmia.w	sp!, {r3, r4, r5, r6, r7, r8, r9, pc}
 80084b2:	bf00      	nop
 80084b4:	0801cc00 	.word	0x0801cc00

080084b8 <__lshift>:
 80084b8:	e92d 47f0 	stmdb	sp!, {r4, r5, r6, r7, r8, r9, sl, lr}
 80084bc:	460c      	mov	r4, r1
 80084be:	ea4f 1a62 	mov.w	sl, r2, asr #5
 80084c2:	6923      	ldr	r3, [r4, #16]
 80084c4:	6849      	ldr	r1, [r1, #4]
 80084c6:	eb0a 0903 	add.w	r9, sl, r3
 80084ca:	68a3      	ldr	r3, [r4, #8]
 80084cc:	4607      	mov	r7, r0
 80084ce:	4616      	mov	r6, r2
 80084d0:	f109 0501 	add.w	r5, r9, #1
 80084d4:	42ab      	cmp	r3, r5
 80084d6:	db31      	blt.n	800853c <__lshift+0x84>
 80084d8:	4638      	mov	r0, r7
 80084da:	f7ff fe34 	bl	8008146 <_Balloc>
 80084de:	2200      	movs	r2, #0
 80084e0:	4680      	mov	r8, r0
 80084e2:	f100 0314 	add.w	r3, r0, #20
 80084e6:	4611      	mov	r1, r2
 80084e8:	4552      	cmp	r2, sl
 80084ea:	db2a      	blt.n	8008542 <__lshift+0x8a>
 80084ec:	6920      	ldr	r0, [r4, #16]
 80084ee:	ea2a 7aea 	bic.w	sl, sl, sl, asr #31
 80084f2:	f104 0114 	add.w	r1, r4, #20
 80084f6:	f016 021f 	ands.w	r2, r6, #31
 80084fa:	eb03 038a 	add.w	r3, r3, sl, lsl #2
 80084fe:	eb01 0e80 	add.w	lr, r1, r0, lsl #2
 8008502:	d022      	beq.n	800854a <__lshift+0x92>
 8008504:	f1c2 0c20 	rsb	ip, r2, #32
 8008508:	2000      	movs	r0, #0
 800850a:	680e      	ldr	r6, [r1, #0]
 800850c:	4096      	lsls	r6, r2
 800850e:	4330      	orrs	r0, r6
 8008510:	f843 0b04 	str.w	r0, [r3], #4
 8008514:	f851 0b04 	ldr.w	r0, [r1], #4
 8008518:	458e      	cmp	lr, r1
 800851a:	fa20 f00c 	lsr.w	r0, r0, ip
 800851e:	d8f4      	bhi.n	800850a <__lshift+0x52>
 8008520:	6018      	str	r0, [r3, #0]
 8008522:	b108      	cbz	r0, 8008528 <__lshift+0x70>
 8008524:	f109 0502 	add.w	r5, r9, #2
 8008528:	3d01      	subs	r5, #1
 800852a:	4638      	mov	r0, r7
 800852c:	f8c8 5010 	str.w	r5, [r8, #16]
 8008530:	4621      	mov	r1, r4
 8008532:	f7ff fe3c 	bl	80081ae <_Bfree>
 8008536:	4640      	mov	r0, r8
 8008538:	e8bd 87f0 	ldmia.w	sp!, {r4, r5, r6, r7, r8, r9, sl, pc}
 800853c:	3101      	adds	r1, #1
 800853e:	005b      	lsls	r3, r3, #1
 8008540:	e7c8      	b.n	80084d4 <__lshift+0x1c>
 8008542:	f843 1022 	str.w	r1, [r3, r2, lsl #2]
 8008546:	3201      	adds	r2, #1
 8008548:	e7ce      	b.n	80084e8 <__lshift+0x30>
 800854a:	3b04      	subs	r3, #4
 800854c:	f851 2b04 	ldr.w	r2, [r1], #4
 8008550:	f843 2f04 	str.w	r2, [r3, #4]!
 8008554:	458e      	cmp	lr, r1
 8008556:	d8f9      	bhi.n	800854c <__lshift+0x94>
 8008558:	e7e6      	b.n	8008528 <__lshift+0x70>

0800855a <__mcmp>:
 800855a:	6903      	ldr	r3, [r0, #16]
 800855c:	690a      	ldr	r2, [r1, #16]
 800855e:	1a9b      	subs	r3, r3, r2
 8008560:	b530      	push	{r4, r5, lr}
 8008562:	d10c      	bne.n	800857e <__mcmp+0x24>
 8008564:	0092      	lsls	r2, r2, #2
 8008566:	3014      	adds	r0, #20
 8008568:	3114      	adds	r1, #20
 800856a:	1884      	adds	r4, r0, r2
 800856c:	4411      	add	r1, r2
 800856e:	f854 5d04 	ldr.w	r5, [r4, #-4]!
 8008572:	f851 2d04 	ldr.w	r2, [r1, #-4]!
 8008576:	4295      	cmp	r5, r2
 8008578:	d003      	beq.n	8008582 <__mcmp+0x28>
 800857a:	d305      	bcc.n	8008588 <__mcmp+0x2e>
 800857c:	2301      	movs	r3, #1
 800857e:	4618      	mov	r0, r3
 8008580:	bd30      	pop	{r4, r5, pc}
 8008582:	42a0      	cmp	r0, r4
 8008584:	d3f3      	bcc.n	800856e <__mcmp+0x14>
 8008586:	e7fa      	b.n	800857e <__mcmp+0x24>
 8008588:	f04f 33ff 	mov.w	r3, #4294967295
 800858c:	e7f7      	b.n	800857e <__mcmp+0x24>

0800858e <__mdiff>:
 800858e:	e92d 47f0 	stmdb	sp!, {r4, r5, r6, r7, r8, r9, sl, lr}
 8008592:	460d      	mov	r5, r1
 8008594:	4607      	mov	r7, r0
 8008596:	4611      	mov	r1, r2
 8008598:	4628      	mov	r0, r5
 800859a:	4614      	mov	r4, r2
 800859c:	f7ff ffdd 	bl	800855a <__mcmp>
 80085a0:	1e06      	subs	r6, r0, #0
 80085a2:	d108      	bne.n	80085b6 <__mdiff+0x28>
 80085a4:	4631      	mov	r1, r6
 80085a6:	4638      	mov	r0, r7
 80085a8:	f7ff fdcd 	bl	8008146 <_Balloc>
 80085ac:	2301      	movs	r3, #1
 80085ae:	6103      	str	r3, [r0, #16]
 80085b0:	6146      	str	r6, [r0, #20]
 80085b2:	e8bd 87f0 	ldmia.w	sp!, {r4, r5, r6, r7, r8, r9, sl, pc}
 80085b6:	bfa4      	itt	ge
 80085b8:	4623      	movge	r3, r4
 80085ba:	462c      	movge	r4, r5
 80085bc:	4638      	mov	r0, r7
 80085be:	6861      	ldr	r1, [r4, #4]
 80085c0:	bfa6      	itte	ge
 80085c2:	461d      	movge	r5, r3
 80085c4:	2600      	movge	r6, #0
 80085c6:	2601      	movlt	r6, #1
 80085c8:	f7ff fdbd 	bl	8008146 <_Balloc>
 80085cc:	692b      	ldr	r3, [r5, #16]
 80085ce:	60c6      	str	r6, [r0, #12]
 80085d0:	6926      	ldr	r6, [r4, #16]
 80085d2:	f105 0914 	add.w	r9, r5, #20
 80085d6:	f104 0214 	add.w	r2, r4, #20
 80085da:	eb02 0786 	add.w	r7, r2, r6, lsl #2
 80085de:	eb09 0883 	add.w	r8, r9, r3, lsl #2
 80085e2:	f100 0514 	add.w	r5, r0, #20
 80085e6:	f04f 0c00 	mov.w	ip, #0
 80085ea:	f852 ab04 	ldr.w	sl, [r2], #4
 80085ee:	f859 4b04 	ldr.w	r4, [r9], #4
 80085f2:	fa1c f18a 	uxtah	r1, ip, sl
 80085f6:	b2a3      	uxth	r3, r4
 80085f8:	1ac9      	subs	r1, r1, r3
 80085fa:	0c23      	lsrs	r3, r4, #16
 80085fc:	ebc3 431a 	rsb	r3, r3, sl, lsr #16
 8008600:	eb03 4321 	add.w	r3, r3, r1, asr #16
 8008604:	b289      	uxth	r1, r1
 8008606:	ea4f 4c23 	mov.w	ip, r3, asr #16
 800860a:	45c8      	cmp	r8, r9
 800860c:	ea41 4303 	orr.w	r3, r1, r3, lsl #16
 8008610:	4696      	mov	lr, r2
 8008612:	f845 3b04 	str.w	r3, [r5], #4
 8008616:	d8e8      	bhi.n	80085ea <__mdiff+0x5c>
 8008618:	45be      	cmp	lr, r7
 800861a:	d305      	bcc.n	8008628 <__mdiff+0x9a>
 800861c:	f855 3d04 	ldr.w	r3, [r5, #-4]!
 8008620:	b18b      	cbz	r3, 8008646 <__mdiff+0xb8>
 8008622:	6106      	str	r6, [r0, #16]
 8008624:	e8bd 87f0 	ldmia.w	sp!, {r4, r5, r6, r7, r8, r9, sl, pc}
 8008628:	f85e 1b04 	ldr.w	r1, [lr], #4
 800862c:	fa1c f381 	uxtah	r3, ip, r1
 8008630:	141a      	asrs	r2, r3, #16
 8008632:	eb02 4211 	add.w	r2, r2, r1, lsr #16
 8008636:	b29b      	uxth	r3, r3
 8008638:	ea43 4302 	orr.w	r3, r3, r2, lsl #16
 800863c:	ea4f 4c22 	mov.w	ip, r2, asr #16
 8008640:	f845 3b04 	str.w	r3, [r5], #4
 8008644:	e7e8      	b.n	8008618 <__mdiff+0x8a>
 8008646:	3e01      	subs	r6, #1
 8008648:	e7e8      	b.n	800861c <__mdiff+0x8e>

0800864a <__d2b>:
 800864a:	e92d 43f7 	stmdb	sp!, {r0, r1, r2, r4, r5, r6, r7, r8, r9, lr}
 800864e:	460e      	mov	r6, r1
 8008650:	2101      	movs	r1, #1
 8008652:	ec59 8b10 	vmov	r8, r9, d0
 8008656:	4615      	mov	r5, r2
 8008658:	f7ff fd75 	bl	8008146 <_Balloc>
 800865c:	f3c9 540a 	ubfx	r4, r9, #20, #11
 8008660:	4607      	mov	r7, r0
 8008662:	f3c9 0313 	ubfx	r3, r9, #0, #20
 8008666:	bb34      	cbnz	r4, 80086b6 <__d2b+0x6c>
 8008668:	9301      	str	r3, [sp, #4]
 800866a:	f1b8 0f00 	cmp.w	r8, #0
 800866e:	d027      	beq.n	80086c0 <__d2b+0x76>
 8008670:	a802      	add	r0, sp, #8
 8008672:	f840 8d08 	str.w	r8, [r0, #-8]!
 8008676:	f7ff fe0b 	bl	8008290 <__lo0bits>
 800867a:	9900      	ldr	r1, [sp, #0]
 800867c:	b1f0      	cbz	r0, 80086bc <__d2b+0x72>
 800867e:	9a01      	ldr	r2, [sp, #4]
 8008680:	f1c0 0320 	rsb	r3, r0, #32
 8008684:	fa02 f303 	lsl.w	r3, r2, r3
 8008688:	430b      	orrs	r3, r1
 800868a:	40c2      	lsrs	r2, r0
 800868c:	617b      	str	r3, [r7, #20]
 800868e:	9201      	str	r2, [sp, #4]
 8008690:	9b01      	ldr	r3, [sp, #4]
 8008692:	61bb      	str	r3, [r7, #24]
 8008694:	2b00      	cmp	r3, #0
 8008696:	bf14      	ite	ne
 8008698:	2102      	movne	r1, #2
 800869a:	2101      	moveq	r1, #1
 800869c:	6139      	str	r1, [r7, #16]
 800869e:	b1c4      	cbz	r4, 80086d2 <__d2b+0x88>
 80086a0:	f2a4 4433 	subw	r4, r4, #1075	; 0x433
 80086a4:	4404      	add	r4, r0
 80086a6:	6034      	str	r4, [r6, #0]
 80086a8:	f1c0 0035 	rsb	r0, r0, #53	; 0x35
 80086ac:	6028      	str	r0, [r5, #0]
 80086ae:	4638      	mov	r0, r7
 80086b0:	b003      	add	sp, #12
 80086b2:	e8bd 83f0 	ldmia.w	sp!, {r4, r5, r6, r7, r8, r9, pc}
 80086b6:	f443 1380 	orr.w	r3, r3, #1048576	; 0x100000
 80086ba:	e7d5      	b.n	8008668 <__d2b+0x1e>
 80086bc:	6179      	str	r1, [r7, #20]
 80086be:	e7e7      	b.n	8008690 <__d2b+0x46>
 80086c0:	a801      	add	r0, sp, #4
 80086c2:	f7ff fde5 	bl	8008290 <__lo0bits>
 80086c6:	9b01      	ldr	r3, [sp, #4]
 80086c8:	617b      	str	r3, [r7, #20]
 80086ca:	2101      	movs	r1, #1
 80086cc:	6139      	str	r1, [r7, #16]
 80086ce:	3020      	adds	r0, #32
 80086d0:	e7e5      	b.n	800869e <__d2b+0x54>
 80086d2:	eb07 0381 	add.w	r3, r7, r1, lsl #2
 80086d6:	f2a0 4032 	subw	r0, r0, #1074	; 0x432
 80086da:	6030      	str	r0, [r6, #0]
 80086dc:	6918      	ldr	r0, [r3, #16]
 80086de:	f7ff fdb8 	bl	8008252 <__hi0bits>
 80086e2:	ebc0 1041 	rsb	r0, r0, r1, lsl #5
 80086e6:	e7e1      	b.n	80086ac <__d2b+0x62>

080086e8 <_calloc_r>:
 80086e8:	b538      	push	{r3, r4, r5, lr}
 80086ea:	fb02 f401 	mul.w	r4, r2, r1
 80086ee:	4621      	mov	r1, r4
 80086f0:	f000 f856 	bl	80087a0 <_malloc_r>
 80086f4:	4605      	mov	r5, r0
 80086f6:	b118      	cbz	r0, 8008700 <_calloc_r+0x18>
 80086f8:	4622      	mov	r2, r4
 80086fa:	2100      	movs	r1, #0
 80086fc:	f7ff fd1b 	bl	8008136 <memset>
 8008700:	4628      	mov	r0, r5
 8008702:	bd38      	pop	{r3, r4, r5, pc}

08008704 <_free_r>:
 8008704:	b538      	push	{r3, r4, r5, lr}
 8008706:	4605      	mov	r5, r0
 8008708:	2900      	cmp	r1, #0
 800870a:	d045      	beq.n	8008798 <_free_r+0x94>
 800870c:	f851 3c04 	ldr.w	r3, [r1, #-4]
 8008710:	1f0c      	subs	r4, r1, #4
 8008712:	2b00      	cmp	r3, #0
 8008714:	bfb8      	it	lt
 8008716:	18e4      	addlt	r4, r4, r3
 8008718:	f000 fa9c 	bl	8008c54 <__malloc_lock>
 800871c:	4a1f      	ldr	r2, [pc, #124]	; (800879c <_free_r+0x98>)
 800871e:	6813      	ldr	r3, [r2, #0]
 8008720:	4610      	mov	r0, r2
 8008722:	b933      	cbnz	r3, 8008732 <_free_r+0x2e>
 8008724:	6063      	str	r3, [r4, #4]
 8008726:	6014      	str	r4, [r2, #0]
 8008728:	4628      	mov	r0, r5
 800872a:	e8bd 4038 	ldmia.w	sp!, {r3, r4, r5, lr}
 800872e:	f000 ba92 	b.w	8008c56 <__malloc_unlock>
 8008732:	42a3      	cmp	r3, r4
 8008734:	d90c      	bls.n	8008750 <_free_r+0x4c>
 8008736:	6821      	ldr	r1, [r4, #0]
 8008738:	1862      	adds	r2, r4, r1
 800873a:	4293      	cmp	r3, r2
 800873c:	bf04      	itt	eq
 800873e:	681a      	ldreq	r2, [r3, #0]
 8008740:	685b      	ldreq	r3, [r3, #4]
 8008742:	6063      	str	r3, [r4, #4]
 8008744:	bf04      	itt	eq
 8008746:	1852      	addeq	r2, r2, r1
 8008748:	6022      	streq	r2, [r4, #0]
 800874a:	6004      	str	r4, [r0, #0]
 800874c:	e7ec      	b.n	8008728 <_free_r+0x24>
 800874e:	4613      	mov	r3, r2
 8008750:	685a      	ldr	r2, [r3, #4]
 8008752:	b10a      	cbz	r2, 8008758 <_free_r+0x54>
 8008754:	42a2      	cmp	r2, r4
 8008756:	d9fa      	bls.n	800874e <_free_r+0x4a>
 8008758:	6819      	ldr	r1, [r3, #0]
 800875a:	1858      	adds	r0, r3, r1
 800875c:	42a0      	cmp	r0, r4
 800875e:	d10b      	bne.n	8008778 <_free_r+0x74>
 8008760:	6820      	ldr	r0, [r4, #0]
 8008762:	4401      	add	r1, r0
 8008764:	1858      	adds	r0, r3, r1
 8008766:	4282      	cmp	r2, r0
 8008768:	6019      	str	r1, [r3, #0]
 800876a:	d1dd      	bne.n	8008728 <_free_r+0x24>
 800876c:	6810      	ldr	r0, [r2, #0]
 800876e:	6852      	ldr	r2, [r2, #4]
 8008770:	605a      	str	r2, [r3, #4]
 8008772:	4401      	add	r1, r0
 8008774:	6019      	str	r1, [r3, #0]
 8008776:	e7d7      	b.n	8008728 <_free_r+0x24>
 8008778:	d902      	bls.n	8008780 <_free_r+0x7c>
 800877a:	230c      	movs	r3, #12
 800877c:	602b      	str	r3, [r5, #0]
 800877e:	e7d3      	b.n	8008728 <_free_r+0x24>
 8008780:	6820      	ldr	r0, [r4, #0]
 8008782:	1821      	adds	r1, r4, r0
 8008784:	428a      	cmp	r2, r1
 8008786:	bf04      	itt	eq
 8008788:	6811      	ldreq	r1, [r2, #0]
 800878a:	6852      	ldreq	r2, [r2, #4]
 800878c:	6062      	str	r2, [r4, #4]
 800878e:	bf04      	itt	eq
 8008790:	1809      	addeq	r1, r1, r0
 8008792:	6021      	streq	r1, [r4, #0]
 8008794:	605c      	str	r4, [r3, #4]
 8008796:	e7c7      	b.n	8008728 <_free_r+0x24>
 8008798:	bd38      	pop	{r3, r4, r5, pc}
 800879a:	bf00      	nop
 800879c:	2000f228 	.word	0x2000f228

080087a0 <_malloc_r>:
 80087a0:	b570      	push	{r4, r5, r6, lr}
 80087a2:	1ccd      	adds	r5, r1, #3
 80087a4:	f025 0503 	bic.w	r5, r5, #3
 80087a8:	3508      	adds	r5, #8
 80087aa:	2d0c      	cmp	r5, #12
 80087ac:	bf38      	it	cc
 80087ae:	250c      	movcc	r5, #12
 80087b0:	2d00      	cmp	r5, #0
 80087b2:	4606      	mov	r6, r0
 80087b4:	db01      	blt.n	80087ba <_malloc_r+0x1a>
 80087b6:	42a9      	cmp	r1, r5
 80087b8:	d903      	bls.n	80087c2 <_malloc_r+0x22>
 80087ba:	230c      	movs	r3, #12
 80087bc:	6033      	str	r3, [r6, #0]
 80087be:	2000      	movs	r0, #0
 80087c0:	bd70      	pop	{r4, r5, r6, pc}
 80087c2:	f000 fa47 	bl	8008c54 <__malloc_lock>
 80087c6:	4a23      	ldr	r2, [pc, #140]	; (8008854 <_malloc_r+0xb4>)
 80087c8:	6814      	ldr	r4, [r2, #0]
 80087ca:	4621      	mov	r1, r4
 80087cc:	b991      	cbnz	r1, 80087f4 <_malloc_r+0x54>
 80087ce:	4c22      	ldr	r4, [pc, #136]	; (8008858 <_malloc_r+0xb8>)
 80087d0:	6823      	ldr	r3, [r4, #0]
 80087d2:	b91b      	cbnz	r3, 80087dc <_malloc_r+0x3c>
 80087d4:	4630      	mov	r0, r6
 80087d6:	f000 f981 	bl	8008adc <_sbrk_r>
 80087da:	6020      	str	r0, [r4, #0]
 80087dc:	4629      	mov	r1, r5
 80087de:	4630      	mov	r0, r6
 80087e0:	f000 f97c 	bl	8008adc <_sbrk_r>
 80087e4:	1c43      	adds	r3, r0, #1
 80087e6:	d126      	bne.n	8008836 <_malloc_r+0x96>
 80087e8:	230c      	movs	r3, #12
 80087ea:	6033      	str	r3, [r6, #0]
 80087ec:	4630      	mov	r0, r6
 80087ee:	f000 fa32 	bl	8008c56 <__malloc_unlock>
 80087f2:	e7e4      	b.n	80087be <_malloc_r+0x1e>
 80087f4:	680b      	ldr	r3, [r1, #0]
 80087f6:	1b5b      	subs	r3, r3, r5
 80087f8:	d41a      	bmi.n	8008830 <_malloc_r+0x90>
 80087fa:	2b0b      	cmp	r3, #11
 80087fc:	d90f      	bls.n	800881e <_malloc_r+0x7e>
 80087fe:	600b      	str	r3, [r1, #0]
 8008800:	50cd      	str	r5, [r1, r3]
 8008802:	18cc      	adds	r4, r1, r3
 8008804:	4630      	mov	r0, r6
 8008806:	f000 fa26 	bl	8008c56 <__malloc_unlock>
 800880a:	f104 000b 	add.w	r0, r4, #11
 800880e:	1d23      	adds	r3, r4, #4
 8008810:	f020 0007 	bic.w	r0, r0, #7
 8008814:	1ac3      	subs	r3, r0, r3
 8008816:	d01b      	beq.n	8008850 <_malloc_r+0xb0>
 8008818:	425a      	negs	r2, r3
 800881a:	50e2      	str	r2, [r4, r3]
 800881c:	bd70      	pop	{r4, r5, r6, pc}
 800881e:	428c      	cmp	r4, r1
 8008820:	bf0d      	iteet	eq
 8008822:	6863      	ldreq	r3, [r4, #4]
 8008824:	684b      	ldrne	r3, [r1, #4]
 8008826:	6063      	strne	r3, [r4, #4]
 8008828:	6013      	streq	r3, [r2, #0]
 800882a:	bf18      	it	ne
 800882c:	460c      	movne	r4, r1
 800882e:	e7e9      	b.n	8008804 <_malloc_r+0x64>
 8008830:	460c      	mov	r4, r1
 8008832:	6849      	ldr	r1, [r1, #4]
 8008834:	e7ca      	b.n	80087cc <_malloc_r+0x2c>
 8008836:	1cc4      	adds	r4, r0, #3
 8008838:	f024 0403 	bic.w	r4, r4, #3
 800883c:	42a0      	cmp	r0, r4
 800883e:	d005      	beq.n	800884c <_malloc_r+0xac>
 8008840:	1a21      	subs	r1, r4, r0
 8008842:	4630      	mov	r0, r6
 8008844:	f000 f94a 	bl	8008adc <_sbrk_r>
 8008848:	3001      	adds	r0, #1
 800884a:	d0cd      	beq.n	80087e8 <_malloc_r+0x48>
 800884c:	6025      	str	r5, [r4, #0]
 800884e:	e7d9      	b.n	8008804 <_malloc_r+0x64>
 8008850:	bd70      	pop	{r4, r5, r6, pc}
 8008852:	bf00      	nop
 8008854:	2000f228 	.word	0x2000f228
 8008858:	2000f22c 	.word	0x2000f22c

0800885c <__sfputc_r>:
 800885c:	6893      	ldr	r3, [r2, #8]
 800885e:	3b01      	subs	r3, #1
 8008860:	2b00      	cmp	r3, #0
 8008862:	b410      	push	{r4}
 8008864:	6093      	str	r3, [r2, #8]
 8008866:	da09      	bge.n	800887c <__sfputc_r+0x20>
 8008868:	6994      	ldr	r4, [r2, #24]
 800886a:	42a3      	cmp	r3, r4
 800886c:	db02      	blt.n	8008874 <__sfputc_r+0x18>
 800886e:	b2cb      	uxtb	r3, r1
 8008870:	2b0a      	cmp	r3, #10
 8008872:	d103      	bne.n	800887c <__sfputc_r+0x20>
 8008874:	f85d 4b04 	ldr.w	r4, [sp], #4
 8008878:	f7fe bb42 	b.w	8006f00 <__swbuf_r>
 800887c:	6813      	ldr	r3, [r2, #0]
 800887e:	1c58      	adds	r0, r3, #1
 8008880:	6010      	str	r0, [r2, #0]
 8008882:	7019      	strb	r1, [r3, #0]
 8008884:	b2c8      	uxtb	r0, r1
 8008886:	f85d 4b04 	ldr.w	r4, [sp], #4
 800888a:	4770      	bx	lr

0800888c <__sfputs_r>:
 800888c:	b5f8      	push	{r3, r4, r5, r6, r7, lr}
 800888e:	4606      	mov	r6, r0
 8008890:	460f      	mov	r7, r1
 8008892:	4614      	mov	r4, r2
 8008894:	18d5      	adds	r5, r2, r3
 8008896:	42ac      	cmp	r4, r5
 8008898:	d101      	bne.n	800889e <__sfputs_r+0x12>
 800889a:	2000      	movs	r0, #0
 800889c:	e007      	b.n	80088ae <__sfputs_r+0x22>
 800889e:	463a      	mov	r2, r7
 80088a0:	f814 1b01 	ldrb.w	r1, [r4], #1
 80088a4:	4630      	mov	r0, r6
 80088a6:	f7ff ffd9 	bl	800885c <__sfputc_r>
 80088aa:	1c43      	adds	r3, r0, #1
 80088ac:	d1f3      	bne.n	8008896 <__sfputs_r+0xa>
 80088ae:	bdf8      	pop	{r3, r4, r5, r6, r7, pc}

080088b0 <_vfiprintf_r>:
 80088b0:	e92d 4ff0 	stmdb	sp!, {r4, r5, r6, r7, r8, r9, sl, fp, lr}
 80088b4:	b09d      	sub	sp, #116	; 0x74
 80088b6:	460c      	mov	r4, r1
 80088b8:	4617      	mov	r7, r2
 80088ba:	9303      	str	r3, [sp, #12]
 80088bc:	4606      	mov	r6, r0
 80088be:	b118      	cbz	r0, 80088c8 <_vfiprintf_r+0x18>
 80088c0:	6983      	ldr	r3, [r0, #24]
 80088c2:	b90b      	cbnz	r3, 80088c8 <_vfiprintf_r+0x18>
 80088c4:	f7ff fb28 	bl	8007f18 <__sinit>
 80088c8:	4b7c      	ldr	r3, [pc, #496]	; (8008abc <_vfiprintf_r+0x20c>)
 80088ca:	429c      	cmp	r4, r3
 80088cc:	d157      	bne.n	800897e <_vfiprintf_r+0xce>
 80088ce:	6874      	ldr	r4, [r6, #4]
 80088d0:	89a3      	ldrh	r3, [r4, #12]
 80088d2:	0718      	lsls	r0, r3, #28
 80088d4:	d55d      	bpl.n	8008992 <_vfiprintf_r+0xe2>
 80088d6:	6923      	ldr	r3, [r4, #16]
 80088d8:	2b00      	cmp	r3, #0
 80088da:	d05a      	beq.n	8008992 <_vfiprintf_r+0xe2>
 80088dc:	2300      	movs	r3, #0
 80088de:	9309      	str	r3, [sp, #36]	; 0x24
 80088e0:	2320      	movs	r3, #32
 80088e2:	f88d 3029 	strb.w	r3, [sp, #41]	; 0x29
 80088e6:	2330      	movs	r3, #48	; 0x30
 80088e8:	f88d 302a 	strb.w	r3, [sp, #42]	; 0x2a
 80088ec:	f04f 0b01 	mov.w	fp, #1
 80088f0:	46b8      	mov	r8, r7
 80088f2:	4645      	mov	r5, r8
 80088f4:	f815 3b01 	ldrb.w	r3, [r5], #1
 80088f8:	2b00      	cmp	r3, #0
 80088fa:	d155      	bne.n	80089a8 <_vfiprintf_r+0xf8>
 80088fc:	ebb8 0a07 	subs.w	sl, r8, r7
 8008900:	d00b      	beq.n	800891a <_vfiprintf_r+0x6a>
 8008902:	4653      	mov	r3, sl
 8008904:	463a      	mov	r2, r7
 8008906:	4621      	mov	r1, r4
 8008908:	4630      	mov	r0, r6
 800890a:	f7ff ffbf 	bl	800888c <__sfputs_r>
 800890e:	3001      	adds	r0, #1
 8008910:	f000 80c4 	beq.w	8008a9c <_vfiprintf_r+0x1ec>
 8008914:	9b09      	ldr	r3, [sp, #36]	; 0x24
 8008916:	4453      	add	r3, sl
 8008918:	9309      	str	r3, [sp, #36]	; 0x24
 800891a:	f898 3000 	ldrb.w	r3, [r8]
 800891e:	2b00      	cmp	r3, #0
 8008920:	f000 80bc 	beq.w	8008a9c <_vfiprintf_r+0x1ec>
 8008924:	2300      	movs	r3, #0
 8008926:	f04f 32ff 	mov.w	r2, #4294967295
 800892a:	9304      	str	r3, [sp, #16]
 800892c:	9307      	str	r3, [sp, #28]
 800892e:	9205      	str	r2, [sp, #20]
 8008930:	9306      	str	r3, [sp, #24]
 8008932:	f88d 3053 	strb.w	r3, [sp, #83]	; 0x53
 8008936:	931a      	str	r3, [sp, #104]	; 0x68
 8008938:	2205      	movs	r2, #5
 800893a:	7829      	ldrb	r1, [r5, #0]
 800893c:	4860      	ldr	r0, [pc, #384]	; (8008ac0 <_vfiprintf_r+0x210>)
 800893e:	f7f7 fcaf 	bl	80002a0 <memchr>
 8008942:	f105 0801 	add.w	r8, r5, #1
 8008946:	9b04      	ldr	r3, [sp, #16]
 8008948:	2800      	cmp	r0, #0
 800894a:	d131      	bne.n	80089b0 <_vfiprintf_r+0x100>
 800894c:	06d9      	lsls	r1, r3, #27
 800894e:	bf44      	itt	mi
 8008950:	2220      	movmi	r2, #32
 8008952:	f88d 2053 	strbmi.w	r2, [sp, #83]	; 0x53
 8008956:	071a      	lsls	r2, r3, #28
 8008958:	bf44      	itt	mi
 800895a:	222b      	movmi	r2, #43	; 0x2b
 800895c:	f88d 2053 	strbmi.w	r2, [sp, #83]	; 0x53
 8008960:	782a      	ldrb	r2, [r5, #0]
 8008962:	2a2a      	cmp	r2, #42	; 0x2a
 8008964:	d02c      	beq.n	80089c0 <_vfiprintf_r+0x110>
 8008966:	9a07      	ldr	r2, [sp, #28]
 8008968:	2100      	movs	r1, #0
 800896a:	200a      	movs	r0, #10
 800896c:	46a8      	mov	r8, r5
 800896e:	3501      	adds	r5, #1
 8008970:	f898 3000 	ldrb.w	r3, [r8]
 8008974:	3b30      	subs	r3, #48	; 0x30
 8008976:	2b09      	cmp	r3, #9
 8008978:	d96d      	bls.n	8008a56 <_vfiprintf_r+0x1a6>
 800897a:	b371      	cbz	r1, 80089da <_vfiprintf_r+0x12a>
 800897c:	e026      	b.n	80089cc <_vfiprintf_r+0x11c>
 800897e:	4b51      	ldr	r3, [pc, #324]	; (8008ac4 <_vfiprintf_r+0x214>)
 8008980:	429c      	cmp	r4, r3
 8008982:	d101      	bne.n	8008988 <_vfiprintf_r+0xd8>
 8008984:	68b4      	ldr	r4, [r6, #8]
 8008986:	e7a3      	b.n	80088d0 <_vfiprintf_r+0x20>
 8008988:	4b4f      	ldr	r3, [pc, #316]	; (8008ac8 <_vfiprintf_r+0x218>)
 800898a:	429c      	cmp	r4, r3
 800898c:	bf08      	it	eq
 800898e:	68f4      	ldreq	r4, [r6, #12]
 8008990:	e79e      	b.n	80088d0 <_vfiprintf_r+0x20>
 8008992:	4621      	mov	r1, r4
 8008994:	4630      	mov	r0, r6
 8008996:	f7fe fb05 	bl	8006fa4 <__swsetup_r>
 800899a:	2800      	cmp	r0, #0
 800899c:	d09e      	beq.n	80088dc <_vfiprintf_r+0x2c>
 800899e:	f04f 30ff 	mov.w	r0, #4294967295
 80089a2:	b01d      	add	sp, #116	; 0x74
 80089a4:	e8bd 8ff0 	ldmia.w	sp!, {r4, r5, r6, r7, r8, r9, sl, fp, pc}
 80089a8:	2b25      	cmp	r3, #37	; 0x25
 80089aa:	d0a7      	beq.n	80088fc <_vfiprintf_r+0x4c>
 80089ac:	46a8      	mov	r8, r5
 80089ae:	e7a0      	b.n	80088f2 <_vfiprintf_r+0x42>
 80089b0:	4a43      	ldr	r2, [pc, #268]	; (8008ac0 <_vfiprintf_r+0x210>)
 80089b2:	1a80      	subs	r0, r0, r2
 80089b4:	fa0b f000 	lsl.w	r0, fp, r0
 80089b8:	4318      	orrs	r0, r3
 80089ba:	9004      	str	r0, [sp, #16]
 80089bc:	4645      	mov	r5, r8
 80089be:	e7bb      	b.n	8008938 <_vfiprintf_r+0x88>
 80089c0:	9a03      	ldr	r2, [sp, #12]
 80089c2:	1d11      	adds	r1, r2, #4
 80089c4:	6812      	ldr	r2, [r2, #0]
 80089c6:	9103      	str	r1, [sp, #12]
 80089c8:	2a00      	cmp	r2, #0
 80089ca:	db01      	blt.n	80089d0 <_vfiprintf_r+0x120>
 80089cc:	9207      	str	r2, [sp, #28]
 80089ce:	e004      	b.n	80089da <_vfiprintf_r+0x12a>
 80089d0:	4252      	negs	r2, r2
 80089d2:	f043 0302 	orr.w	r3, r3, #2
 80089d6:	9207      	str	r2, [sp, #28]
 80089d8:	9304      	str	r3, [sp, #16]
 80089da:	f898 3000 	ldrb.w	r3, [r8]
 80089de:	2b2e      	cmp	r3, #46	; 0x2e
 80089e0:	d110      	bne.n	8008a04 <_vfiprintf_r+0x154>
 80089e2:	f898 3001 	ldrb.w	r3, [r8, #1]
 80089e6:	2b2a      	cmp	r3, #42	; 0x2a
 80089e8:	f108 0101 	add.w	r1, r8, #1
 80089ec:	d137      	bne.n	8008a5e <_vfiprintf_r+0x1ae>
 80089ee:	9b03      	ldr	r3, [sp, #12]
 80089f0:	1d1a      	adds	r2, r3, #4
 80089f2:	681b      	ldr	r3, [r3, #0]
 80089f4:	9203      	str	r2, [sp, #12]
 80089f6:	2b00      	cmp	r3, #0
 80089f8:	bfb8      	it	lt
 80089fa:	f04f 33ff 	movlt.w	r3, #4294967295
 80089fe:	f108 0802 	add.w	r8, r8, #2
 8008a02:	9305      	str	r3, [sp, #20]
 8008a04:	4d31      	ldr	r5, [pc, #196]	; (8008acc <_vfiprintf_r+0x21c>)
 8008a06:	f898 1000 	ldrb.w	r1, [r8]
 8008a0a:	2203      	movs	r2, #3
 8008a0c:	4628      	mov	r0, r5
 8008a0e:	f7f7 fc47 	bl	80002a0 <memchr>
 8008a12:	b140      	cbz	r0, 8008a26 <_vfiprintf_r+0x176>
 8008a14:	2340      	movs	r3, #64	; 0x40
 8008a16:	1b40      	subs	r0, r0, r5
 8008a18:	fa03 f000 	lsl.w	r0, r3, r0
 8008a1c:	9b04      	ldr	r3, [sp, #16]
 8008a1e:	4303      	orrs	r3, r0
 8008a20:	9304      	str	r3, [sp, #16]
 8008a22:	f108 0801 	add.w	r8, r8, #1
 8008a26:	f898 1000 	ldrb.w	r1, [r8]
 8008a2a:	4829      	ldr	r0, [pc, #164]	; (8008ad0 <_vfiprintf_r+0x220>)
 8008a2c:	f88d 1028 	strb.w	r1, [sp, #40]	; 0x28
 8008a30:	2206      	movs	r2, #6
 8008a32:	f108 0701 	add.w	r7, r8, #1
 8008a36:	f7f7 fc33 	bl	80002a0 <memchr>
 8008a3a:	2800      	cmp	r0, #0
 8008a3c:	d034      	beq.n	8008aa8 <_vfiprintf_r+0x1f8>
 8008a3e:	4b25      	ldr	r3, [pc, #148]	; (8008ad4 <_vfiprintf_r+0x224>)
 8008a40:	bb03      	cbnz	r3, 8008a84 <_vfiprintf_r+0x1d4>
 8008a42:	9b03      	ldr	r3, [sp, #12]
 8008a44:	3307      	adds	r3, #7
 8008a46:	f023 0307 	bic.w	r3, r3, #7
 8008a4a:	3308      	adds	r3, #8
 8008a4c:	9303      	str	r3, [sp, #12]
 8008a4e:	9b09      	ldr	r3, [sp, #36]	; 0x24
 8008a50:	444b      	add	r3, r9
 8008a52:	9309      	str	r3, [sp, #36]	; 0x24
 8008a54:	e74c      	b.n	80088f0 <_vfiprintf_r+0x40>
 8008a56:	fb00 3202 	mla	r2, r0, r2, r3
 8008a5a:	2101      	movs	r1, #1
 8008a5c:	e786      	b.n	800896c <_vfiprintf_r+0xbc>
 8008a5e:	2300      	movs	r3, #0
 8008a60:	9305      	str	r3, [sp, #20]
 8008a62:	4618      	mov	r0, r3
 8008a64:	250a      	movs	r5, #10
 8008a66:	4688      	mov	r8, r1
 8008a68:	3101      	adds	r1, #1
 8008a6a:	f898 2000 	ldrb.w	r2, [r8]
 8008a6e:	3a30      	subs	r2, #48	; 0x30
 8008a70:	2a09      	cmp	r2, #9
 8008a72:	d903      	bls.n	8008a7c <_vfiprintf_r+0x1cc>
 8008a74:	2b00      	cmp	r3, #0
 8008a76:	d0c5      	beq.n	8008a04 <_vfiprintf_r+0x154>
 8008a78:	9005      	str	r0, [sp, #20]
 8008a7a:	e7c3      	b.n	8008a04 <_vfiprintf_r+0x154>
 8008a7c:	fb05 2000 	mla	r0, r5, r0, r2
 8008a80:	2301      	movs	r3, #1
 8008a82:	e7f0      	b.n	8008a66 <_vfiprintf_r+0x1b6>
 8008a84:	ab03      	add	r3, sp, #12
 8008a86:	9300      	str	r3, [sp, #0]
 8008a88:	4622      	mov	r2, r4
 8008a8a:	4b13      	ldr	r3, [pc, #76]	; (8008ad8 <_vfiprintf_r+0x228>)
 8008a8c:	a904      	add	r1, sp, #16
 8008a8e:	4630      	mov	r0, r6
 8008a90:	f7fd fde4 	bl	800665c <_printf_float>
 8008a94:	f1b0 3fff 	cmp.w	r0, #4294967295
 8008a98:	4681      	mov	r9, r0
 8008a9a:	d1d8      	bne.n	8008a4e <_vfiprintf_r+0x19e>
 8008a9c:	89a3      	ldrh	r3, [r4, #12]
 8008a9e:	065b      	lsls	r3, r3, #25
 8008aa0:	f53f af7d 	bmi.w	800899e <_vfiprintf_r+0xee>
 8008aa4:	9809      	ldr	r0, [sp, #36]	; 0x24
 8008aa6:	e77c      	b.n	80089a2 <_vfiprintf_r+0xf2>
 8008aa8:	ab03      	add	r3, sp, #12
 8008aaa:	9300      	str	r3, [sp, #0]
 8008aac:	4622      	mov	r2, r4
 8008aae:	4b0a      	ldr	r3, [pc, #40]	; (8008ad8 <_vfiprintf_r+0x228>)
 8008ab0:	a904      	add	r1, sp, #16
 8008ab2:	4630      	mov	r0, r6
 8008ab4:	f7fe f888 	bl	8006bc8 <_printf_i>
 8008ab8:	e7ec      	b.n	8008a94 <_vfiprintf_r+0x1e4>
 8008aba:	bf00      	nop
 8008abc:	0801cacc 	.word	0x0801cacc
 8008ac0:	0801cc0c 	.word	0x0801cc0c
 8008ac4:	0801caec 	.word	0x0801caec
 8008ac8:	0801caac 	.word	0x0801caac
 8008acc:	0801cc12 	.word	0x0801cc12
 8008ad0:	0801cc16 	.word	0x0801cc16
 8008ad4:	0800665d 	.word	0x0800665d
 8008ad8:	0800888d 	.word	0x0800888d

08008adc <_sbrk_r>:
 8008adc:	b538      	push	{r3, r4, r5, lr}
 8008ade:	4c06      	ldr	r4, [pc, #24]	; (8008af8 <_sbrk_r+0x1c>)
 8008ae0:	2300      	movs	r3, #0
 8008ae2:	4605      	mov	r5, r0
 8008ae4:	4608      	mov	r0, r1
 8008ae6:	6023      	str	r3, [r4, #0]
 8008ae8:	f000 f8fe 	bl	8008ce8 <_sbrk>
 8008aec:	1c43      	adds	r3, r0, #1
 8008aee:	d102      	bne.n	8008af6 <_sbrk_r+0x1a>
 8008af0:	6823      	ldr	r3, [r4, #0]
 8008af2:	b103      	cbz	r3, 8008af6 <_sbrk_r+0x1a>
 8008af4:	602b      	str	r3, [r5, #0]
 8008af6:	bd38      	pop	{r3, r4, r5, pc}
 8008af8:	2000f3a0 	.word	0x2000f3a0

08008afc <__sread>:
 8008afc:	b510      	push	{r4, lr}
 8008afe:	460c      	mov	r4, r1
 8008b00:	f9b1 100e 	ldrsh.w	r1, [r1, #14]
 8008b04:	f000 f8a8 	bl	8008c58 <_read_r>
 8008b08:	2800      	cmp	r0, #0
 8008b0a:	bfab      	itete	ge
 8008b0c:	6d63      	ldrge	r3, [r4, #84]	; 0x54
 8008b0e:	89a3      	ldrhlt	r3, [r4, #12]
 8008b10:	181b      	addge	r3, r3, r0
 8008b12:	f423 5380 	biclt.w	r3, r3, #4096	; 0x1000
 8008b16:	bfac      	ite	ge
 8008b18:	6563      	strge	r3, [r4, #84]	; 0x54
 8008b1a:	81a3      	strhlt	r3, [r4, #12]
 8008b1c:	bd10      	pop	{r4, pc}

08008b1e <__swrite>:
 8008b1e:	e92d 41f0 	stmdb	sp!, {r4, r5, r6, r7, r8, lr}
 8008b22:	461f      	mov	r7, r3
 8008b24:	898b      	ldrh	r3, [r1, #12]
 8008b26:	05db      	lsls	r3, r3, #23
 8008b28:	4605      	mov	r5, r0
 8008b2a:	460c      	mov	r4, r1
 8008b2c:	4616      	mov	r6, r2
 8008b2e:	d505      	bpl.n	8008b3c <__swrite+0x1e>
 8008b30:	2302      	movs	r3, #2
 8008b32:	2200      	movs	r2, #0
 8008b34:	f9b1 100e 	ldrsh.w	r1, [r1, #14]
 8008b38:	f000 f868 	bl	8008c0c <_lseek_r>
 8008b3c:	89a3      	ldrh	r3, [r4, #12]
 8008b3e:	f9b4 100e 	ldrsh.w	r1, [r4, #14]
 8008b42:	f423 5380 	bic.w	r3, r3, #4096	; 0x1000
 8008b46:	81a3      	strh	r3, [r4, #12]
 8008b48:	4632      	mov	r2, r6
 8008b4a:	463b      	mov	r3, r7
 8008b4c:	4628      	mov	r0, r5
 8008b4e:	e8bd 41f0 	ldmia.w	sp!, {r4, r5, r6, r7, r8, lr}
 8008b52:	f000 b817 	b.w	8008b84 <_write_r>

08008b56 <__sseek>:
 8008b56:	b510      	push	{r4, lr}
 8008b58:	460c      	mov	r4, r1
 8008b5a:	f9b1 100e 	ldrsh.w	r1, [r1, #14]
 8008b5e:	f000 f855 	bl	8008c0c <_lseek_r>
 8008b62:	1c43      	adds	r3, r0, #1
 8008b64:	89a3      	ldrh	r3, [r4, #12]
 8008b66:	bf15      	itete	ne
 8008b68:	6560      	strne	r0, [r4, #84]	; 0x54
 8008b6a:	f423 5380 	biceq.w	r3, r3, #4096	; 0x1000
 8008b6e:	f443 5380 	orrne.w	r3, r3, #4096	; 0x1000
 8008b72:	81a3      	strheq	r3, [r4, #12]
 8008b74:	bf18      	it	ne
 8008b76:	81a3      	strhne	r3, [r4, #12]
 8008b78:	bd10      	pop	{r4, pc}

08008b7a <__sclose>:
 8008b7a:	f9b1 100e 	ldrsh.w	r1, [r1, #14]
 8008b7e:	f000 b813 	b.w	8008ba8 <_close_r>
	...

08008b84 <_write_r>:
 8008b84:	b538      	push	{r3, r4, r5, lr}
 8008b86:	4c07      	ldr	r4, [pc, #28]	; (8008ba4 <_write_r+0x20>)
 8008b88:	4605      	mov	r5, r0
 8008b8a:	4608      	mov	r0, r1
 8008b8c:	4611      	mov	r1, r2
 8008b8e:	2200      	movs	r2, #0
 8008b90:	6022      	str	r2, [r4, #0]
 8008b92:	461a      	mov	r2, r3
 8008b94:	f7fb ff12 	bl	80049bc <_write>
 8008b98:	1c43      	adds	r3, r0, #1
 8008b9a:	d102      	bne.n	8008ba2 <_write_r+0x1e>
 8008b9c:	6823      	ldr	r3, [r4, #0]
 8008b9e:	b103      	cbz	r3, 8008ba2 <_write_r+0x1e>
 8008ba0:	602b      	str	r3, [r5, #0]
 8008ba2:	bd38      	pop	{r3, r4, r5, pc}
 8008ba4:	2000f3a0 	.word	0x2000f3a0

08008ba8 <_close_r>:
 8008ba8:	b538      	push	{r3, r4, r5, lr}
 8008baa:	4c06      	ldr	r4, [pc, #24]	; (8008bc4 <_close_r+0x1c>)
 8008bac:	2300      	movs	r3, #0
 8008bae:	4605      	mov	r5, r0
 8008bb0:	4608      	mov	r0, r1
 8008bb2:	6023      	str	r3, [r4, #0]
 8008bb4:	f000 f870 	bl	8008c98 <_close>
 8008bb8:	1c43      	adds	r3, r0, #1
 8008bba:	d102      	bne.n	8008bc2 <_close_r+0x1a>
 8008bbc:	6823      	ldr	r3, [r4, #0]
 8008bbe:	b103      	cbz	r3, 8008bc2 <_close_r+0x1a>
 8008bc0:	602b      	str	r3, [r5, #0]
 8008bc2:	bd38      	pop	{r3, r4, r5, pc}
 8008bc4:	2000f3a0 	.word	0x2000f3a0

08008bc8 <_fstat_r>:
 8008bc8:	b538      	push	{r3, r4, r5, lr}
 8008bca:	4c07      	ldr	r4, [pc, #28]	; (8008be8 <_fstat_r+0x20>)
 8008bcc:	2300      	movs	r3, #0
 8008bce:	4605      	mov	r5, r0
 8008bd0:	4608      	mov	r0, r1
 8008bd2:	4611      	mov	r1, r2
 8008bd4:	6023      	str	r3, [r4, #0]
 8008bd6:	f000 f867 	bl	8008ca8 <_fstat>
 8008bda:	1c43      	adds	r3, r0, #1
 8008bdc:	d102      	bne.n	8008be4 <_fstat_r+0x1c>
 8008bde:	6823      	ldr	r3, [r4, #0]
 8008be0:	b103      	cbz	r3, 8008be4 <_fstat_r+0x1c>
 8008be2:	602b      	str	r3, [r5, #0]
 8008be4:	bd38      	pop	{r3, r4, r5, pc}
 8008be6:	bf00      	nop
 8008be8:	2000f3a0 	.word	0x2000f3a0

08008bec <_isatty_r>:
 8008bec:	b538      	push	{r3, r4, r5, lr}
 8008bee:	4c06      	ldr	r4, [pc, #24]	; (8008c08 <_isatty_r+0x1c>)
 8008bf0:	2300      	movs	r3, #0
 8008bf2:	4605      	mov	r5, r0
 8008bf4:	4608      	mov	r0, r1
 8008bf6:	6023      	str	r3, [r4, #0]
 8008bf8:	f000 f85e 	bl	8008cb8 <_isatty>
 8008bfc:	1c43      	adds	r3, r0, #1
 8008bfe:	d102      	bne.n	8008c06 <_isatty_r+0x1a>
 8008c00:	6823      	ldr	r3, [r4, #0]
 8008c02:	b103      	cbz	r3, 8008c06 <_isatty_r+0x1a>
 8008c04:	602b      	str	r3, [r5, #0]
 8008c06:	bd38      	pop	{r3, r4, r5, pc}
 8008c08:	2000f3a0 	.word	0x2000f3a0

08008c0c <_lseek_r>:
 8008c0c:	b538      	push	{r3, r4, r5, lr}
 8008c0e:	4c07      	ldr	r4, [pc, #28]	; (8008c2c <_lseek_r+0x20>)
 8008c10:	4605      	mov	r5, r0
 8008c12:	4608      	mov	r0, r1
 8008c14:	4611      	mov	r1, r2
 8008c16:	2200      	movs	r2, #0
 8008c18:	6022      	str	r2, [r4, #0]
 8008c1a:	461a      	mov	r2, r3
 8008c1c:	f000 f854 	bl	8008cc8 <_lseek>
 8008c20:	1c43      	adds	r3, r0, #1
 8008c22:	d102      	bne.n	8008c2a <_lseek_r+0x1e>
 8008c24:	6823      	ldr	r3, [r4, #0]
 8008c26:	b103      	cbz	r3, 8008c2a <_lseek_r+0x1e>
 8008c28:	602b      	str	r3, [r5, #0]
 8008c2a:	bd38      	pop	{r3, r4, r5, pc}
 8008c2c:	2000f3a0 	.word	0x2000f3a0

08008c30 <__ascii_mbtowc>:
 8008c30:	b082      	sub	sp, #8
 8008c32:	b901      	cbnz	r1, 8008c36 <__ascii_mbtowc+0x6>
 8008c34:	a901      	add	r1, sp, #4
 8008c36:	b142      	cbz	r2, 8008c4a <__ascii_mbtowc+0x1a>
 8008c38:	b14b      	cbz	r3, 8008c4e <__ascii_mbtowc+0x1e>
 8008c3a:	7813      	ldrb	r3, [r2, #0]
 8008c3c:	600b      	str	r3, [r1, #0]
 8008c3e:	7812      	ldrb	r2, [r2, #0]
 8008c40:	1c10      	adds	r0, r2, #0
 8008c42:	bf18      	it	ne
 8008c44:	2001      	movne	r0, #1
 8008c46:	b002      	add	sp, #8
 8008c48:	4770      	bx	lr
 8008c4a:	4610      	mov	r0, r2
 8008c4c:	e7fb      	b.n	8008c46 <__ascii_mbtowc+0x16>
 8008c4e:	f06f 0001 	mvn.w	r0, #1
 8008c52:	e7f8      	b.n	8008c46 <__ascii_mbtowc+0x16>

08008c54 <__malloc_lock>:
 8008c54:	4770      	bx	lr

08008c56 <__malloc_unlock>:
 8008c56:	4770      	bx	lr

08008c58 <_read_r>:
 8008c58:	b538      	push	{r3, r4, r5, lr}
 8008c5a:	4c07      	ldr	r4, [pc, #28]	; (8008c78 <_read_r+0x20>)
 8008c5c:	4605      	mov	r5, r0
 8008c5e:	4608      	mov	r0, r1
 8008c60:	4611      	mov	r1, r2
 8008c62:	2200      	movs	r2, #0
 8008c64:	6022      	str	r2, [r4, #0]
 8008c66:	461a      	mov	r2, r3
 8008c68:	f000 f836 	bl	8008cd8 <_read>
 8008c6c:	1c43      	adds	r3, r0, #1
 8008c6e:	d102      	bne.n	8008c76 <_read_r+0x1e>
 8008c70:	6823      	ldr	r3, [r4, #0]
 8008c72:	b103      	cbz	r3, 8008c76 <_read_r+0x1e>
 8008c74:	602b      	str	r3, [r5, #0]
 8008c76:	bd38      	pop	{r3, r4, r5, pc}
 8008c78:	2000f3a0 	.word	0x2000f3a0

08008c7c <__ascii_wctomb>:
 8008c7c:	b149      	cbz	r1, 8008c92 <__ascii_wctomb+0x16>
 8008c7e:	2aff      	cmp	r2, #255	; 0xff
 8008c80:	bf85      	ittet	hi
 8008c82:	238a      	movhi	r3, #138	; 0x8a
 8008c84:	6003      	strhi	r3, [r0, #0]
 8008c86:	700a      	strbls	r2, [r1, #0]
 8008c88:	f04f 30ff 	movhi.w	r0, #4294967295
 8008c8c:	bf98      	it	ls
 8008c8e:	2001      	movls	r0, #1
 8008c90:	4770      	bx	lr
 8008c92:	4608      	mov	r0, r1
 8008c94:	4770      	bx	lr
	...

08008c98 <_close>:
 8008c98:	4b02      	ldr	r3, [pc, #8]	; (8008ca4 <_close+0xc>)
 8008c9a:	2258      	movs	r2, #88	; 0x58
 8008c9c:	601a      	str	r2, [r3, #0]
 8008c9e:	f04f 30ff 	mov.w	r0, #4294967295
 8008ca2:	4770      	bx	lr
 8008ca4:	2000f3a0 	.word	0x2000f3a0

08008ca8 <_fstat>:
 8008ca8:	4b02      	ldr	r3, [pc, #8]	; (8008cb4 <_fstat+0xc>)
 8008caa:	2258      	movs	r2, #88	; 0x58
 8008cac:	601a      	str	r2, [r3, #0]
 8008cae:	f04f 30ff 	mov.w	r0, #4294967295
 8008cb2:	4770      	bx	lr
 8008cb4:	2000f3a0 	.word	0x2000f3a0

08008cb8 <_isatty>:
 8008cb8:	4b02      	ldr	r3, [pc, #8]	; (8008cc4 <_isatty+0xc>)
 8008cba:	2258      	movs	r2, #88	; 0x58
 8008cbc:	601a      	str	r2, [r3, #0]
 8008cbe:	2000      	movs	r0, #0
 8008cc0:	4770      	bx	lr
 8008cc2:	bf00      	nop
 8008cc4:	2000f3a0 	.word	0x2000f3a0

08008cc8 <_lseek>:
 8008cc8:	4b02      	ldr	r3, [pc, #8]	; (8008cd4 <_lseek+0xc>)
 8008cca:	2258      	movs	r2, #88	; 0x58
 8008ccc:	601a      	str	r2, [r3, #0]
 8008cce:	f04f 30ff 	mov.w	r0, #4294967295
 8008cd2:	4770      	bx	lr
 8008cd4:	2000f3a0 	.word	0x2000f3a0

08008cd8 <_read>:
 8008cd8:	4b02      	ldr	r3, [pc, #8]	; (8008ce4 <_read+0xc>)
 8008cda:	2258      	movs	r2, #88	; 0x58
 8008cdc:	601a      	str	r2, [r3, #0]
 8008cde:	f04f 30ff 	mov.w	r0, #4294967295
 8008ce2:	4770      	bx	lr
 8008ce4:	2000f3a0 	.word	0x2000f3a0

08008ce8 <_sbrk>:
 8008ce8:	4b04      	ldr	r3, [pc, #16]	; (8008cfc <_sbrk+0x14>)
 8008cea:	6819      	ldr	r1, [r3, #0]
 8008cec:	4602      	mov	r2, r0
 8008cee:	b909      	cbnz	r1, 8008cf4 <_sbrk+0xc>
 8008cf0:	4903      	ldr	r1, [pc, #12]	; (8008d00 <_sbrk+0x18>)
 8008cf2:	6019      	str	r1, [r3, #0]
 8008cf4:	6818      	ldr	r0, [r3, #0]
 8008cf6:	4402      	add	r2, r0
 8008cf8:	601a      	str	r2, [r3, #0]
 8008cfa:	4770      	bx	lr
 8008cfc:	2000f230 	.word	0x2000f230
 8008d00:	2000f3a8 	.word	0x2000f3a8

08008d04 <_init>:
 8008d04:	b5f8      	push	{r3, r4, r5, r6, r7, lr}
 8008d06:	bf00      	nop
 8008d08:	bcf8      	pop	{r3, r4, r5, r6, r7}
 8008d0a:	bc08      	pop	{r3}
 8008d0c:	469e      	mov	lr, r3
 8008d0e:	4770      	bx	lr

08008d10 <_fini>:
 8008d10:	b5f8      	push	{r3, r4, r5, r6, r7, lr}
 8008d12:	bf00      	nop
 8008d14:	bcf8      	pop	{r3, r4, r5, r6, r7}
 8008d16:	bc08      	pop	{r3}
 8008d18:	469e      	mov	lr, r3
 8008d1a:	4770      	bx	lr
 8008d1c:	0000      	movs	r0, r0
	...
